
obj/bios.elf:     file format elf32-littlearm


Disassembly of section .text:

70010000 <_reset_vector>:
70010000:	ea000021 	b	7001008c <_start>

70010004 <_undefined>:
70010004:	eafffffe 	b	70010004 <_undefined>

70010008 <_software_int>:
70010008:	eafffffe 	b	70010008 <_software_int>

7001000c <_prefetch_abort>:
7001000c:	eafffffe 	b	7001000c <_prefetch_abort>

70010010 <_data_abort>:
70010010:	eafffffe 	b	70010010 <_data_abort>

70010014 <_IRQ>:
70010014:	e24ee004 	sub	lr, lr, #4
70010018:	e92d5fff 	push	{r0, r1, r2, r3, r4, r5, r6, r7, r8, r9, sl, fp, ip, lr}
7001001c:	e1a0700d 	mov	r7, sp
70010020:	e14f8000 	mrs	r8, SPSR
70010024:	e92d0180 	push	{r7, r8}
70010028:	e1a0000d 	mov	r0, sp
7001002c:	eb0083f5 	bl	70031008 <kernel_handler_irq>
70010030:	e1a0d000 	mov	sp, r0
70010034:	e8bd0180 	pop	{r7, r8}
70010038:	e1a0d007 	mov	sp, r7
7001003c:	e169f008 	msr	SPSR_fc, r8
70010040:	e8fd9fff 	ldm	sp!, {r0, r1, r2, r3, r4, r5, r6, r7, r8, r9, sl, fp, ip, pc}^
70010044:	eafffffe 	b	70010044 <_IRQ+0x30>

70010048 <_FIQ>:
70010048:	eafffffe 	b	70010048 <_FIQ>

7001004c <_table_start>:
7001004c:	e59ff018 	ldr	pc, [pc, #24]	; 7001006c <addr_reset_vector>
70010050:	e59ff018 	ldr	pc, [pc, #24]	; 70010070 <addr_undefined>
70010054:	e59ff018 	ldr	pc, [pc, #24]	; 70010074 <addr_software_int>
70010058:	e59ff018 	ldr	pc, [pc, #24]	; 70010078 <addr_prefetch_abort>
7001005c:	e59ff018 	ldr	pc, [pc, #24]	; 7001007c <addr_data_abort>
70010060:	e59ff018 	ldr	pc, [pc, #24]	; 70010080 <addr_reserved>
70010064:	e59ff018 	ldr	pc, [pc, #24]	; 70010084 <addr_IRQ>
70010068:	e59ff018 	ldr	pc, [pc, #24]	; 70010088 <addr_FIQ>

7001006c <addr_reset_vector>:
7001006c:	70010000 	andvc	r0, r1, r0

70010070 <addr_undefined>:
70010070:	70010004 	andvc	r0, r1, r4

70010074 <addr_software_int>:
70010074:	70010008 	andvc	r0, r1, r8

70010078 <addr_prefetch_abort>:
70010078:	7001000c 	andvc	r0, r1, ip

7001007c <addr_data_abort>:
7001007c:	70010010 	andvc	r0, r1, r0, lsl r0

70010080 <addr_reserved>:
70010080:	70010000 	andvc	r0, r1, r0

70010084 <addr_IRQ>:
70010084:	70010014 	andvc	r0, r1, r4, lsl r0

70010088 <addr_FIQ>:
70010088:	70010048 	andvc	r0, r1, r8, asr #32

7001008c <_start>:
7001008c:	e59f0074 	ldr	r0, [pc, #116]	; 70010108 <idle+0x8>
70010090:	e59f1074 	ldr	r1, [pc, #116]	; 7001010c <idle+0xc>
70010094:	e59f2074 	ldr	r2, [pc, #116]	; 70010110 <idle+0x10>

70010098 <_TABLE_LOOP>:
70010098:	e4913004 	ldr	r3, [r1], #4
7001009c:	e4803004 	str	r3, [r0], #4
700100a0:	e2522004 	subs	r2, r2, #4
700100a4:	e3520000 	cmp	r2, #0
700100a8:	1afffffa 	bne	70010098 <_TABLE_LOOP>

700100ac <_STACK_INIT>:
700100ac:	e321f0d2 	msr	CPSR_c, #210	; 0xd2
700100b0:	e59fd05c 	ldr	sp, [pc, #92]	; 70010114 <idle+0x14>
700100b4:	e321f0d1 	msr	CPSR_c, #209	; 0xd1
700100b8:	e59fd058 	ldr	sp, [pc, #88]	; 70010118 <idle+0x18>
700100bc:	e321f0df 	msr	CPSR_c, #223	; 0xdf
700100c0:	e59fd054 	ldr	sp, [pc, #84]	; 7001011c <idle+0x1c>
700100c4:	e321f0d7 	msr	CPSR_c, #215	; 0xd7
700100c8:	e59fd050 	ldr	sp, [pc, #80]	; 70010120 <idle+0x20>
700100cc:	e321f0db 	msr	CPSR_c, #219	; 0xdb
700100d0:	e59fd04c 	ldr	sp, [pc, #76]	; 70010124 <idle+0x24>
700100d4:	e321f0d3 	msr	CPSR_c, #211	; 0xd3
700100d8:	e59fd048 	ldr	sp, [pc, #72]	; 70010128 <idle+0x28>

700100dc <_MEMDEPLOY>:
700100dc:	e59fa048 	ldr	sl, [pc, #72]	; 7001012c <idle+0x2c>
700100e0:	e1a0e00f 	mov	lr, pc
700100e4:	e12fff1a 	bx	sl

700100e8 <_BOARD_INIT>:
700100e8:	e59fa040 	ldr	sl, [pc, #64]	; 70010130 <idle+0x30>
700100ec:	e1a0e00f 	mov	lr, pc
700100f0:	e12fff1a 	bx	sl

700100f4 <_IRQ_ENABLE>:
700100f4:	e10f0000 	mrs	r0, CPSR
700100f8:	e3c00080 	bic	r0, r0, #128	; 0x80
700100fc:	e121f000 	msr	CPSR_c, r0

70010100 <idle>:
70010100:	e320f003 	wfi
70010104:	eafffffd 	b	70010100 <idle>
70010108:	00000000 	andeq	r0, r0, r0
7001010c:	7001004c 	andvc	r0, r1, ip, asr #32
70010110:	00000040 	andeq	r0, r0, r0, asr #32
70010114:	70020080 	andvc	r0, r2, r0, lsl #1
70010118:	70020100 	andvc	r0, r2, r0, lsl #2
7001011c:	70020680 	andvc	r0, r2, r0, lsl #13
70010120:	70020200 	andvc	r0, r2, r0, lsl #4
70010124:	70020280 	andvc	r0, r2, r0, lsl #5
70010128:	70020180 	andvc	r0, r2, r0, lsl #3
7001012c:	70010284 	andvc	r0, r1, r4, lsl #5
70010130:	70030fe0 	andvc	r0, r3, r0, ror #31
	...

70010140 <_irq_enable>:
70010140:	f57ff04f 	dsb	sy
70010144:	e10f0000 	mrs	r0, CPSR
70010148:	e3c00080 	bic	r0, r0, #128	; 0x80
7001014c:	e129f000 	msr	CPSR_fc, r0
70010150:	f57ff04f 	dsb	sy
70010154:	f57ff06f 	isb	sy
70010158:	e12fff1e 	bx	lr
7001015c:	00000000 	andeq	r0, r0, r0

70010160 <_irq_disable>:
70010160:	f57ff04f 	dsb	sy
70010164:	e10f0000 	mrs	r0, CPSR
70010168:	e3800040 	orr	r0, r0, #64	; 0x40
7001016c:	e129f000 	msr	CPSR_fc, r0
70010170:	f57ff04f 	dsb	sy
70010174:	f57ff06f 	isb	sy
70010178:	e12fff1e 	bx	lr

7001017c <_LOAD_ISR_Vectors_Base>:
7001017c:	ee0c0f10 	mcr	15, 0, r0, cr12, cr0, {0}
70010180:	f57ff04f 	dsb	sy
70010184:	e12fff1e 	bx	lr
	...

70010190 <_HALT_CPU>:
70010190:	e320f003 	wfi
70010194:	e12fff1e 	bx	lr
	...

700101a0 <_BREAKPOINT_DEBUG>:
700101a0:	e320f002 	wfe
700101a4:	e12fff1e 	bx	lr
	...

700101b0 <_READ_CPSR_REGS>:
700101b0:	f57ff04f 	dsb	sy
700101b4:	e10f0000 	mrs	r0, CPSR
700101b8:	e12fff1e 	bx	lr
700101bc:	00000000 	andeq	r0, r0, r0

700101c0 <_EOI>:
700101c0:	e3a00001 	mov	r0, #1
700101c4:	e59f1034 	ldr	r1, [pc, #52]	; 70010200 <_READ_32+0x8>
700101c8:	e5810048 	str	r0, [r1, #72]	; 0x48
700101cc:	e12fff1e 	bx	lr

700101d0 <_WRITE_8>:
700101d0:	e5c01000 	strb	r1, [r0]
700101d4:	e12fff1e 	bx	lr

700101d8 <_WRITE_16>:
700101d8:	e1c010b0 	strh	r1, [r0]
700101dc:	e12fff1e 	bx	lr

700101e0 <_WRITE_32>:
700101e0:	e5801000 	str	r1, [r0]
700101e4:	e12fff1e 	bx	lr

700101e8 <_READ_8>:
700101e8:	e5d00000 	ldrb	r0, [r0]
700101ec:	e12fff1e 	bx	lr

700101f0 <_READ_16>:
700101f0:	e1d000b0 	ldrh	r0, [r0]
700101f4:	e12fff1e 	bx	lr

700101f8 <_READ_32>:
700101f8:	e5900000 	ldr	r0, [r0]
700101fc:	e12fff1e 	bx	lr
70010200:	48200000 	stmdami	r0!, {}	; <UNPREDICTABLE>

70010204 <memcopy>:
70010204:	e52db004 	push	{fp}		; (str fp, [sp, #-4]!)
70010208:	e28db000 	add	fp, sp, #0
7001020c:	e24dd01c 	sub	sp, sp, #28
70010210:	e50b0010 	str	r0, [fp, #-16]
70010214:	e50b1014 	str	r1, [fp, #-20]	; 0xffffffec
70010218:	e50b2018 	str	r2, [fp, #-24]	; 0xffffffe8
7001021c:	e3a03000 	mov	r3, #0
70010220:	e50b3008 	str	r3, [fp, #-8]
70010224:	e3a03000 	mov	r3, #0
70010228:	e50b3008 	str	r3, [fp, #-8]
7001022c:	ea00000c 	b	70010264 <memcopy+0x60>
70010230:	e51b3008 	ldr	r3, [fp, #-8]
70010234:	e1a03103 	lsl	r3, r3, #2
70010238:	e51b2010 	ldr	r2, [fp, #-16]
7001023c:	e0822003 	add	r2, r2, r3
70010240:	e51b3008 	ldr	r3, [fp, #-8]
70010244:	e1a03103 	lsl	r3, r3, #2
70010248:	e51b1014 	ldr	r1, [fp, #-20]	; 0xffffffec
7001024c:	e0813003 	add	r3, r1, r3
70010250:	e5922000 	ldr	r2, [r2]
70010254:	e5832000 	str	r2, [r3]
70010258:	e51b3008 	ldr	r3, [fp, #-8]
7001025c:	e2833001 	add	r3, r3, #1
70010260:	e50b3008 	str	r3, [fp, #-8]
70010264:	e51b3008 	ldr	r3, [fp, #-8]
70010268:	e51b2018 	ldr	r2, [fp, #-24]	; 0xffffffe8
7001026c:	e1520003 	cmp	r2, r3
70010270:	8affffee 	bhi	70010230 <memcopy+0x2c>
70010274:	e320f000 	nop	{0}
70010278:	e28bd000 	add	sp, fp, #0
7001027c:	e49db004 	pop	{fp}		; (ldr fp, [sp], #4)
70010280:	e12fff1e 	bx	lr

70010284 <memdeploy>:
70010284:	e92d4800 	push	{fp, lr}
70010288:	e28db004 	add	fp, sp, #4
7001028c:	e3013534 	movw	r3, #5428	; 0x1534
70010290:	e3403000 	movt	r3, #0
70010294:	e1a02003 	mov	r2, r3
70010298:	e3001000 	movw	r1, #0
7001029c:	e3471003 	movt	r1, #28675	; 0x7003
700102a0:	e3000434 	movw	r0, #1076	; 0x434
700102a4:	e3470001 	movt	r0, #28673	; 0x7001
700102a8:	ebffffd5 	bl	70010204 <memcopy>
700102ac:	e3003000 	movw	r3, #0
700102b0:	e3403000 	movt	r3, #0
700102b4:	e1a02003 	mov	r2, r3
700102b8:	e3021000 	movw	r1, #8192	; 0x2000
700102bc:	e3471002 	movt	r1, #28674	; 0x7002
700102c0:	e3010968 	movw	r0, #6504	; 0x1968
700102c4:	e3470001 	movt	r0, #28673	; 0x7001
700102c8:	ebffffcd 	bl	70010204 <memcopy>
700102cc:	e30030c0 	movw	r3, #192	; 0xc0
700102d0:	e3403000 	movt	r3, #0
700102d4:	e1a02003 	mov	r2, r3
700102d8:	e3021000 	movw	r1, #8192	; 0x2000
700102dc:	e3471003 	movt	r1, #28675	; 0x7003
700102e0:	e3010968 	movw	r0, #6504	; 0x1968
700102e4:	e3470001 	movt	r0, #28673	; 0x7001
700102e8:	ebffffc5 	bl	70010204 <memcopy>
700102ec:	e3003000 	movw	r3, #0
700102f0:	e3403000 	movt	r3, #0
700102f4:	e1a02003 	mov	r2, r3
700102f8:	e3031000 	movw	r1, #12288	; 0x3000
700102fc:	e3471002 	movt	r1, #28674	; 0x7002
70010300:	e3010a28 	movw	r0, #6696	; 0x1a28
70010304:	e3470001 	movt	r0, #28673	; 0x7001
70010308:	ebffffbd 	bl	70010204 <memcopy>
7001030c:	e3003010 	movw	r3, #16
70010310:	e3403000 	movt	r3, #0
70010314:	e1a02003 	mov	r2, r3
70010318:	e3041000 	movw	r1, #16384	; 0x4000
7001031c:	e3471003 	movt	r1, #28675	; 0x7003
70010320:	e3010a28 	movw	r0, #6696	; 0x1a28
70010324:	e3470001 	movt	r0, #28673	; 0x7001
70010328:	ebffffb5 	bl	70010204 <memcopy>
7001032c:	e30030dc 	movw	r3, #220	; 0xdc
70010330:	e3403000 	movt	r3, #0
70010334:	e1a02003 	mov	r2, r3
70010338:	e3001000 	movw	r1, #0
7001033c:	e3481075 	movt	r1, #32885	; 0x8075
70010340:	e3010a38 	movw	r0, #6712	; 0x1a38
70010344:	e3470001 	movt	r0, #28673	; 0x7001
70010348:	ebffffad 	bl	70010204 <memcopy>
7001034c:	e3003000 	movw	r3, #0
70010350:	e3403000 	movt	r3, #0
70010354:	e1a02003 	mov	r2, r3
70010358:	e3031000 	movw	r1, #12288	; 0x3000
7001035c:	e3481075 	movt	r1, #32885	; 0x8075
70010360:	e3010b14 	movw	r0, #6932	; 0x1b14
70010364:	e3470001 	movt	r0, #28673	; 0x7001
70010368:	ebffffa5 	bl	70010204 <memcopy>
7001036c:	e3003000 	movw	r3, #0
70010370:	e3403000 	movt	r3, #0
70010374:	e1a02003 	mov	r2, r3
70010378:	e3011000 	movw	r1, #4096	; 0x1000
7001037c:	e3481075 	movt	r1, #32885	; 0x8075
70010380:	e3010b14 	movw	r0, #6932	; 0x1b14
70010384:	e3470001 	movt	r0, #28673	; 0x7001
70010388:	ebffff9d 	bl	70010204 <memcopy>
7001038c:	e3003000 	movw	r3, #0
70010390:	e3403000 	movt	r3, #0
70010394:	e1a02003 	mov	r2, r3
70010398:	e3041000 	movw	r1, #16384	; 0x4000
7001039c:	e3481075 	movt	r1, #32885	; 0x8075
700103a0:	e3010b14 	movw	r0, #6932	; 0x1b14
700103a4:	e3470001 	movt	r0, #28673	; 0x7001
700103a8:	ebffff95 	bl	70010204 <memcopy>
700103ac:	e3003078 	movw	r3, #120	; 0x78
700103b0:	e3403000 	movt	r3, #0
700103b4:	e1a02003 	mov	r2, r3
700103b8:	e3001000 	movw	r1, #0
700103bc:	e3481074 	movt	r1, #32884	; 0x8074
700103c0:	e3010b14 	movw	r0, #6932	; 0x1b14
700103c4:	e3470001 	movt	r0, #28673	; 0x7001
700103c8:	ebffff8d 	bl	70010204 <memcopy>
700103cc:	e3003000 	movw	r3, #0
700103d0:	e3403000 	movt	r3, #0
700103d4:	e1a02003 	mov	r2, r3
700103d8:	e3031000 	movw	r1, #12288	; 0x3000
700103dc:	e3481074 	movt	r1, #32884	; 0x8074
700103e0:	e3010b8c 	movw	r0, #7052	; 0x1b8c
700103e4:	e3470001 	movt	r0, #28673	; 0x7001
700103e8:	ebffff85 	bl	70010204 <memcopy>
700103ec:	e3003000 	movw	r3, #0
700103f0:	e3403000 	movt	r3, #0
700103f4:	e1a02003 	mov	r2, r3
700103f8:	e3011000 	movw	r1, #4096	; 0x1000
700103fc:	e3481074 	movt	r1, #32884	; 0x8074
70010400:	e3010b8c 	movw	r0, #7052	; 0x1b8c
70010404:	e3470001 	movt	r0, #28673	; 0x7001
70010408:	ebffff7d 	bl	70010204 <memcopy>
7001040c:	e3003000 	movw	r3, #0
70010410:	e3403000 	movt	r3, #0
70010414:	e1a02003 	mov	r2, r3
70010418:	e3041000 	movw	r1, #16384	; 0x4000
7001041c:	e3481074 	movt	r1, #32884	; 0x8074
70010420:	e3010b8c 	movw	r0, #7052	; 0x1b8c
70010424:	e3470001 	movt	r0, #28673	; 0x7001
70010428:	ebffff75 	bl	70010204 <memcopy>
7001042c:	e320f000 	nop	{0}
70010430:	e8bd8800 	pop	{fp, pc}

Disassembly of section .kernel:

70030000 <MMU_Get_ID_MMFR0>:
70030000:	e52db004 	push	{fp}		; (str fp, [sp, #-4]!)
70030004:	e28db000 	add	fp, sp, #0
70030008:	e24dd00c 	sub	sp, sp, #12
7003000c:	ee100f91 	mrc	15, 0, r0, cr0, cr1, {4}
70030010:	e50b0008 	str	r0, [fp, #-8]
70030014:	e51b3008 	ldr	r3, [fp, #-8]
70030018:	e1a00003 	mov	r0, r3
7003001c:	e28bd000 	add	sp, fp, #0
70030020:	e49db004 	pop	{fp}		; (ldr fp, [sp], #4)
70030024:	e12fff1e 	bx	lr

70030028 <MMU_Get_ID_MMFR1>:
70030028:	e52db004 	push	{fp}		; (str fp, [sp, #-4]!)
7003002c:	e28db000 	add	fp, sp, #0
70030030:	e24dd00c 	sub	sp, sp, #12
70030034:	ee100fb1 	mrc	15, 0, r0, cr0, cr1, {5}
70030038:	e50b0008 	str	r0, [fp, #-8]
7003003c:	e51b3008 	ldr	r3, [fp, #-8]
70030040:	e1a00003 	mov	r0, r3
70030044:	e28bd000 	add	sp, fp, #0
70030048:	e49db004 	pop	{fp}		; (ldr fp, [sp], #4)
7003004c:	e12fff1e 	bx	lr

70030050 <MMU_Get_ID_MMFR2>:
70030050:	e52db004 	push	{fp}		; (str fp, [sp, #-4]!)
70030054:	e28db000 	add	fp, sp, #0
70030058:	e24dd00c 	sub	sp, sp, #12
7003005c:	ee100fd1 	mrc	15, 0, r0, cr0, cr1, {6}
70030060:	e50b0008 	str	r0, [fp, #-8]
70030064:	e51b3008 	ldr	r3, [fp, #-8]
70030068:	e1a00003 	mov	r0, r3
7003006c:	e28bd000 	add	sp, fp, #0
70030070:	e49db004 	pop	{fp}		; (ldr fp, [sp], #4)
70030074:	e12fff1e 	bx	lr

70030078 <MMU_Get_ID_MMFR3>:
70030078:	e52db004 	push	{fp}		; (str fp, [sp, #-4]!)
7003007c:	e28db000 	add	fp, sp, #0
70030080:	e24dd00c 	sub	sp, sp, #12
70030084:	ee100ff1 	mrc	15, 0, r0, cr0, cr1, {7}
70030088:	e50b0008 	str	r0, [fp, #-8]
7003008c:	e51b3008 	ldr	r3, [fp, #-8]
70030090:	e1a00003 	mov	r0, r3
70030094:	e28bd000 	add	sp, fp, #0
70030098:	e49db004 	pop	{fp}		; (ldr fp, [sp], #4)
7003009c:	e12fff1e 	bx	lr

700300a0 <MMU_Get_TTBCR>:
700300a0:	e52db004 	push	{fp}		; (str fp, [sp, #-4]!)
700300a4:	e28db000 	add	fp, sp, #0
700300a8:	e24dd00c 	sub	sp, sp, #12
700300ac:	ee120f50 	mrc	15, 0, r0, cr2, cr0, {2}
700300b0:	e50b0008 	str	r0, [fp, #-8]
700300b4:	e51b3008 	ldr	r3, [fp, #-8]
700300b8:	e1a00003 	mov	r0, r3
700300bc:	e28bd000 	add	sp, fp, #0
700300c0:	e49db004 	pop	{fp}		; (ldr fp, [sp], #4)
700300c4:	e12fff1e 	bx	lr

700300c8 <MMU_Set_TTBCR>:
700300c8:	e52db004 	push	{fp}		; (str fp, [sp, #-4]!)
700300cc:	e28db000 	add	fp, sp, #0
700300d0:	e24dd00c 	sub	sp, sp, #12
700300d4:	e50b0008 	str	r0, [fp, #-8]
700300d8:	e51b0008 	ldr	r0, [fp, #-8]
700300dc:	f57ff06f 	isb	sy
700300e0:	f57ff04f 	dsb	sy
700300e4:	ee020f50 	mcr	15, 0, r0, cr2, cr0, {2}
700300e8:	e320f000 	nop	{0}
700300ec:	e28bd000 	add	sp, fp, #0
700300f0:	e49db004 	pop	{fp}		; (ldr fp, [sp], #4)
700300f4:	e12fff1e 	bx	lr

700300f8 <MMU_Get_DACR>:
700300f8:	e52db004 	push	{fp}		; (str fp, [sp, #-4]!)
700300fc:	e28db000 	add	fp, sp, #0
70030100:	e24dd00c 	sub	sp, sp, #12
70030104:	ee130f10 	mrc	15, 0, r0, cr3, cr0, {0}
70030108:	e50b0008 	str	r0, [fp, #-8]
7003010c:	e51b3008 	ldr	r3, [fp, #-8]
70030110:	e1a00003 	mov	r0, r3
70030114:	e28bd000 	add	sp, fp, #0
70030118:	e49db004 	pop	{fp}		; (ldr fp, [sp], #4)
7003011c:	e12fff1e 	bx	lr

70030120 <MMU_Set_DACR>:
70030120:	e52db004 	push	{fp}		; (str fp, [sp, #-4]!)
70030124:	e28db000 	add	fp, sp, #0
70030128:	e24dd00c 	sub	sp, sp, #12
7003012c:	e50b0008 	str	r0, [fp, #-8]
70030130:	e51b0008 	ldr	r0, [fp, #-8]
70030134:	f57ff06f 	isb	sy
70030138:	f57ff04f 	dsb	sy
7003013c:	ee030f10 	mcr	15, 0, r0, cr3, cr0, {0}
70030140:	e320f000 	nop	{0}
70030144:	e28bd000 	add	sp, fp, #0
70030148:	e49db004 	pop	{fp}		; (ldr fp, [sp], #4)
7003014c:	e12fff1e 	bx	lr

70030150 <MMU_Get_TTBR0>:
70030150:	e52db004 	push	{fp}		; (str fp, [sp, #-4]!)
70030154:	e28db000 	add	fp, sp, #0
70030158:	e24dd00c 	sub	sp, sp, #12
7003015c:	ee120f10 	mrc	15, 0, r0, cr2, cr0, {0}
70030160:	e50b0008 	str	r0, [fp, #-8]
70030164:	e51b3008 	ldr	r3, [fp, #-8]
70030168:	e1a00003 	mov	r0, r3
7003016c:	e28bd000 	add	sp, fp, #0
70030170:	e49db004 	pop	{fp}		; (ldr fp, [sp], #4)
70030174:	e12fff1e 	bx	lr

70030178 <MMU_Set_TTBR0>:
70030178:	e52db004 	push	{fp}		; (str fp, [sp, #-4]!)
7003017c:	e28db000 	add	fp, sp, #0
70030180:	e24dd00c 	sub	sp, sp, #12
70030184:	e50b0008 	str	r0, [fp, #-8]
70030188:	e51b0008 	ldr	r0, [fp, #-8]
7003018c:	f57ff06f 	isb	sy
70030190:	f57ff04f 	dsb	sy
70030194:	ee020f10 	mcr	15, 0, r0, cr2, cr0, {0}
70030198:	e320f000 	nop	{0}
7003019c:	e28bd000 	add	sp, fp, #0
700301a0:	e49db004 	pop	{fp}		; (ldr fp, [sp], #4)
700301a4:	e12fff1e 	bx	lr

700301a8 <MMU_Get_TTBR1>:
700301a8:	e52db004 	push	{fp}		; (str fp, [sp, #-4]!)
700301ac:	e28db000 	add	fp, sp, #0
700301b0:	e24dd00c 	sub	sp, sp, #12
700301b4:	ee120f30 	mrc	15, 0, r0, cr2, cr0, {1}
700301b8:	e50b0008 	str	r0, [fp, #-8]
700301bc:	e51b3008 	ldr	r3, [fp, #-8]
700301c0:	e1a00003 	mov	r0, r3
700301c4:	e28bd000 	add	sp, fp, #0
700301c8:	e49db004 	pop	{fp}		; (ldr fp, [sp], #4)
700301cc:	e12fff1e 	bx	lr

700301d0 <MMU_Set_TTBR1>:
700301d0:	e52db004 	push	{fp}		; (str fp, [sp, #-4]!)
700301d4:	e28db000 	add	fp, sp, #0
700301d8:	e24dd00c 	sub	sp, sp, #12
700301dc:	e50b0008 	str	r0, [fp, #-8]
700301e0:	e51b0008 	ldr	r0, [fp, #-8]
700301e4:	f57ff06f 	isb	sy
700301e8:	f57ff04f 	dsb	sy
700301ec:	ee020f30 	mcr	15, 0, r0, cr2, cr0, {1}
700301f0:	e320f000 	nop	{0}
700301f4:	e28bd000 	add	sp, fp, #0
700301f8:	e49db004 	pop	{fp}		; (ldr fp, [sp], #4)
700301fc:	e12fff1e 	bx	lr

70030200 <MMU_Get_SCTLR>:
70030200:	e52db004 	push	{fp}		; (str fp, [sp, #-4]!)
70030204:	e28db000 	add	fp, sp, #0
70030208:	e24dd00c 	sub	sp, sp, #12
7003020c:	ee110f10 	mrc	15, 0, r0, cr1, cr0, {0}
70030210:	e50b0008 	str	r0, [fp, #-8]
70030214:	e51b3008 	ldr	r3, [fp, #-8]
70030218:	e1a00003 	mov	r0, r3
7003021c:	e28bd000 	add	sp, fp, #0
70030220:	e49db004 	pop	{fp}		; (ldr fp, [sp], #4)
70030224:	e12fff1e 	bx	lr

70030228 <MMU_Set_SCTLR>:
70030228:	e52db004 	push	{fp}		; (str fp, [sp, #-4]!)
7003022c:	e28db000 	add	fp, sp, #0
70030230:	e24dd00c 	sub	sp, sp, #12
70030234:	e50b0008 	str	r0, [fp, #-8]
70030238:	e51b0008 	ldr	r0, [fp, #-8]
7003023c:	f57ff06f 	isb	sy
70030240:	f57ff04f 	dsb	sy
70030244:	ee010f10 	mcr	15, 0, r0, cr1, cr0, {0}
70030248:	e320f000 	nop	{0}
7003024c:	e28bd000 	add	sp, fp, #0
70030250:	e49db004 	pop	{fp}		; (ldr fp, [sp], #4)
70030254:	e12fff1e 	bx	lr

70030258 <MMU_Get_VBAR>:
70030258:	e52db004 	push	{fp}		; (str fp, [sp, #-4]!)
7003025c:	e28db000 	add	fp, sp, #0
70030260:	e24dd00c 	sub	sp, sp, #12
70030264:	ee1c0f10 	mrc	15, 0, r0, cr12, cr0, {0}
70030268:	e50b0008 	str	r0, [fp, #-8]
7003026c:	e51b3008 	ldr	r3, [fp, #-8]
70030270:	e1a00003 	mov	r0, r3
70030274:	e28bd000 	add	sp, fp, #0
70030278:	e49db004 	pop	{fp}		; (ldr fp, [sp], #4)
7003027c:	e12fff1e 	bx	lr

70030280 <MMU_Set_VBAR>:
70030280:	e52db004 	push	{fp}		; (str fp, [sp, #-4]!)
70030284:	e28db000 	add	fp, sp, #0
70030288:	e24dd00c 	sub	sp, sp, #12
7003028c:	e50b0008 	str	r0, [fp, #-8]
70030290:	e51b0008 	ldr	r0, [fp, #-8]
70030294:	ee0c0f10 	mcr	15, 0, r0, cr12, cr0, {0}
70030298:	e320f000 	nop	{0}
7003029c:	e28bd000 	add	sp, fp, #0
700302a0:	e49db004 	pop	{fp}		; (ldr fp, [sp], #4)
700302a4:	e12fff1e 	bx	lr

700302a8 <MMU_Get_FirstLevelTranslationTable_PhysicalAddress>:
700302a8:	e92d4800 	push	{fp, lr}
700302ac:	e28db004 	add	fp, sp, #4
700302b0:	e24dd010 	sub	sp, sp, #16
700302b4:	ebffff79 	bl	700300a0 <MMU_Get_TTBCR>
700302b8:	e1a03000 	mov	r3, r0
700302bc:	e50b3010 	str	r3, [fp, #-16]
700302c0:	ebffffa2 	bl	70030150 <MMU_Get_TTBR0>
700302c4:	e1a03000 	mov	r3, r0
700302c8:	e50b3014 	str	r3, [fp, #-20]	; 0xffffffec
700302cc:	e55b3010 	ldrb	r3, [fp, #-16]
700302d0:	e7e23053 	ubfx	r3, r3, #0, #3
700302d4:	e6ef3073 	uxtb	r3, r3
700302d8:	e54b3009 	strb	r3, [fp, #-9]
700302dc:	e3a03000 	mov	r3, #0
700302e0:	e50b3008 	str	r3, [fp, #-8]
700302e4:	e55b3009 	ldrb	r3, [fp, #-9]
700302e8:	e3530000 	cmp	r3, #0
700302ec:	1a000003 	bne	70030300 <MMU_Get_FirstLevelTranslationTable_PhysicalAddress+0x58>
700302f0:	e51b3014 	ldr	r3, [fp, #-20]	; 0xffffffec
700302f4:	e3c33dff 	bic	r3, r3, #16320	; 0x3fc0
700302f8:	e3c3303f 	bic	r3, r3, #63	; 0x3f
700302fc:	e50b3008 	str	r3, [fp, #-8]
70030300:	e51b3008 	ldr	r3, [fp, #-8]
70030304:	e1a00003 	mov	r0, r3
70030308:	e24bd004 	sub	sp, fp, #4
7003030c:	e8bd8800 	pop	{fp, pc}

70030310 <MMU_Set_FirstLevelTranslationTable_PhysicalAddress>:
70030310:	e92d4800 	push	{fp, lr}
70030314:	e28db004 	add	fp, sp, #4
70030318:	e24dd018 	sub	sp, sp, #24
7003031c:	e50b0018 	str	r0, [fp, #-24]	; 0xffffffe8
70030320:	ebffff5e 	bl	700300a0 <MMU_Get_TTBCR>
70030324:	e1a03000 	mov	r3, r0
70030328:	e50b300c 	str	r3, [fp, #-12]
7003032c:	ebffff87 	bl	70030150 <MMU_Get_TTBR0>
70030330:	e1a03000 	mov	r3, r0
70030334:	e50b3010 	str	r3, [fp, #-16]
70030338:	e55b300c 	ldrb	r3, [fp, #-12]
7003033c:	e7e23053 	ubfx	r3, r3, #0, #3
70030340:	e6ef3073 	uxtb	r3, r3
70030344:	e54b3005 	strb	r3, [fp, #-5]
70030348:	e55b3005 	ldrb	r3, [fp, #-5]
7003034c:	e3530000 	cmp	r3, #0
70030350:	1a000005 	bne	7003036c <MMU_Set_FirstLevelTranslationTable_PhysicalAddress+0x5c>
70030354:	e51b3018 	ldr	r3, [fp, #-24]	; 0xffffffe8
70030358:	e3c33dff 	bic	r3, r3, #16320	; 0x3fc0
7003035c:	e3c3303f 	bic	r3, r3, #63	; 0x3f
70030360:	e50b3010 	str	r3, [fp, #-16]
70030364:	e51b0010 	ldr	r0, [fp, #-16]
70030368:	ebffff82 	bl	70030178 <MMU_Set_TTBR0>
7003036c:	e320f000 	nop	{0}
70030370:	e24bd004 	sub	sp, fp, #4
70030374:	e8bd8800 	pop	{fp, pc}

70030378 <MMU_Enable_AccessFlag>:
70030378:	e92d4800 	push	{fp, lr}
7003037c:	e28db004 	add	fp, sp, #4
70030380:	e24dd010 	sub	sp, sp, #16
70030384:	e1a03000 	mov	r3, r0
70030388:	e54b300d 	strb	r3, [fp, #-13]
7003038c:	ebffff9b 	bl	70030200 <MMU_Get_SCTLR>
70030390:	e1a03000 	mov	r3, r0
70030394:	e50b3008 	str	r3, [fp, #-8]
70030398:	e55b300d 	ldrb	r3, [fp, #-13]
7003039c:	e2033001 	and	r3, r3, #1
700303a0:	e6ef2073 	uxtb	r2, r3
700303a4:	e55b3005 	ldrb	r3, [fp, #-5]
700303a8:	e7c53292 	bfi	r3, r2, #5, #1
700303ac:	e54b3005 	strb	r3, [fp, #-5]
700303b0:	e51b0008 	ldr	r0, [fp, #-8]
700303b4:	ebffff9b 	bl	70030228 <MMU_Set_SCTLR>
700303b8:	e320f000 	nop	{0}
700303bc:	e24bd004 	sub	sp, fp, #4
700303c0:	e8bd8800 	pop	{fp, pc}

700303c4 <MMU_Enable>:
700303c4:	e92d4800 	push	{fp, lr}
700303c8:	e28db004 	add	fp, sp, #4
700303cc:	e24dd010 	sub	sp, sp, #16
700303d0:	e1a03000 	mov	r3, r0
700303d4:	e54b300d 	strb	r3, [fp, #-13]
700303d8:	ebffff88 	bl	70030200 <MMU_Get_SCTLR>
700303dc:	e1a03000 	mov	r3, r0
700303e0:	e50b3008 	str	r3, [fp, #-8]
700303e4:	e55b300d 	ldrb	r3, [fp, #-13]
700303e8:	e2033001 	and	r3, r3, #1
700303ec:	e6ef2073 	uxtb	r2, r3
700303f0:	e55b3008 	ldrb	r3, [fp, #-8]
700303f4:	e7c03012 	bfi	r3, r2, #0, #1
700303f8:	e54b3008 	strb	r3, [fp, #-8]
700303fc:	e51b0008 	ldr	r0, [fp, #-8]
70030400:	ebffff88 	bl	70030228 <MMU_Set_SCTLR>
70030404:	e320f000 	nop	{0}
70030408:	e24bd004 	sub	sp, fp, #4
7003040c:	e8bd8800 	pop	{fp, pc}

70030410 <MMU_Invalidate_TLB>:
70030410:	e52db004 	push	{fp}		; (str fp, [sp, #-4]!)
70030414:	e28db000 	add	fp, sp, #0
70030418:	ee080f16 	mcr	15, 0, r0, cr8, cr6, {0}
7003041c:	ee080f15 	mcr	15, 0, r0, cr8, cr5, {0}
70030420:	ee080f17 	mcr	15, 0, r0, cr8, cr7, {0}
70030424:	e320f000 	nop	{0}
70030428:	e28bd000 	add	sp, fp, #0
7003042c:	e49db004 	pop	{fp}		; (ldr fp, [sp], #4)
70030430:	e12fff1e 	bx	lr

70030434 <__level1_page_init>:
70030434:	e52db004 	push	{fp}		; (str fp, [sp, #-4]!)
70030438:	e28db000 	add	fp, sp, #0
7003043c:	e24dd01c 	sub	sp, sp, #28
70030440:	e50b0010 	str	r0, [fp, #-16]
70030444:	e50b1014 	str	r1, [fp, #-20]	; 0xffffffec
70030448:	e50b2018 	str	r2, [fp, #-24]	; 0xffffffe8
7003044c:	e3a03000 	mov	r3, #0
70030450:	e50b3008 	str	r3, [fp, #-8]
70030454:	e51b3014 	ldr	r3, [fp, #-20]	; 0xffffffec
70030458:	e1a03a23 	lsr	r3, r3, #20
7003045c:	e50b3008 	str	r3, [fp, #-8]
70030460:	e51b3018 	ldr	r3, [fp, #-24]	; 0xffffffe8
70030464:	e2831001 	add	r1, r3, #1
70030468:	e51b3008 	ldr	r3, [fp, #-8]
7003046c:	e1a03103 	lsl	r3, r3, #2
70030470:	e51b2010 	ldr	r2, [fp, #-16]
70030474:	e0823003 	add	r3, r2, r3
70030478:	e1a02001 	mov	r2, r1
7003047c:	e5832000 	str	r2, [r3]
70030480:	e320f000 	nop	{0}
70030484:	e28bd000 	add	sp, fp, #0
70030488:	e49db004 	pop	{fp}		; (ldr fp, [sp], #4)
7003048c:	e12fff1e 	bx	lr

70030490 <__level2_page_init>:
70030490:	e52db004 	push	{fp}		; (str fp, [sp, #-4]!)
70030494:	e28db000 	add	fp, sp, #0
70030498:	e24dd01c 	sub	sp, sp, #28
7003049c:	e50b0010 	str	r0, [fp, #-16]
700304a0:	e50b1014 	str	r1, [fp, #-20]	; 0xffffffec
700304a4:	e50b2018 	str	r2, [fp, #-24]	; 0xffffffe8
700304a8:	e3a03000 	mov	r3, #0
700304ac:	e50b3008 	str	r3, [fp, #-8]
700304b0:	e51b3014 	ldr	r3, [fp, #-20]	; 0xffffffec
700304b4:	e1a03623 	lsr	r3, r3, #12
700304b8:	e6ef3073 	uxtb	r3, r3
700304bc:	e50b3008 	str	r3, [fp, #-8]
700304c0:	e51b3018 	ldr	r3, [fp, #-24]	; 0xffffffe8
700304c4:	e2831032 	add	r1, r3, #50	; 0x32
700304c8:	e51b3008 	ldr	r3, [fp, #-8]
700304cc:	e1a03103 	lsl	r3, r3, #2
700304d0:	e51b2010 	ldr	r2, [fp, #-16]
700304d4:	e0823003 	add	r3, r2, r3
700304d8:	e1a02001 	mov	r2, r1
700304dc:	e5832000 	str	r2, [r3]
700304e0:	e320f000 	nop	{0}
700304e4:	e28bd000 	add	sp, fp, #0
700304e8:	e49db004 	pop	{fp}		; (ldr fp, [sp], #4)
700304ec:	e12fff1e 	bx	lr

700304f0 <__mmu_init>:
700304f0:	e92d4800 	push	{fp, lr}
700304f4:	e28db004 	add	fp, sp, #4
700304f8:	e24dd010 	sub	sp, sp, #16
700304fc:	e3a03000 	mov	r3, #0
70030500:	e50b3008 	str	r3, [fp, #-8]
70030504:	e3a03000 	mov	r3, #0
70030508:	e50b3008 	str	r3, [fp, #-8]
7003050c:	ea000009 	b	70030538 <__mmu_init+0x48>
70030510:	e51b3008 	ldr	r3, [fp, #-8]
70030514:	e1a02103 	lsl	r2, r3, #2
70030518:	e3003000 	movw	r3, #0
7003051c:	e3473008 	movt	r3, #28680	; 0x7008
70030520:	e0823003 	add	r3, r2, r3
70030524:	e3a02000 	mov	r2, #0
70030528:	e5832000 	str	r2, [r3]
7003052c:	e51b3008 	ldr	r3, [fp, #-8]
70030530:	e2833001 	add	r3, r3, #1
70030534:	e50b3008 	str	r3, [fp, #-8]
70030538:	e51b3008 	ldr	r3, [fp, #-8]
7003053c:	e3730b05 	cmn	r3, #5120	; 0x1400
70030540:	bafffff2 	blt	70030510 <__mmu_init+0x20>
70030544:	e3003000 	movw	r3, #0
70030548:	e3403000 	movt	r3, #0
7003054c:	e59f2954 	ldr	r2, [pc, #2388]	; 70030ea8 <__mmu_init+0x9b8>
70030550:	e1a01003 	mov	r1, r3
70030554:	e3000000 	movw	r0, #0
70030558:	e3470008 	movt	r0, #28680	; 0x7008
7003055c:	ebffffb4 	bl	70030434 <__level1_page_init>
70030560:	e59f3944 	ldr	r3, [pc, #2372]	; 70030eac <__mmu_init+0x9bc>
70030564:	e1a02003 	mov	r2, r3
70030568:	e3a01a01 	mov	r1, #4096	; 0x1000
7003056c:	e3411001 	movt	r1, #4097	; 0x1001
70030570:	e3000000 	movw	r0, #0
70030574:	e3470008 	movt	r0, #28680	; 0x7008
70030578:	ebffffad 	bl	70030434 <__level1_page_init>
7003057c:	e59f392c 	ldr	r3, [pc, #2348]	; 70030eb0 <__mmu_init+0x9c0>
70030580:	e1a02003 	mov	r2, r3
70030584:	e3a0141e 	mov	r1, #503316480	; 0x1e000000
70030588:	e3000000 	movw	r0, #0
7003058c:	e3470008 	movt	r0, #28680	; 0x7008
70030590:	ebffffa7 	bl	70030434 <__level1_page_init>
70030594:	e3003000 	movw	r3, #0
70030598:	e3473003 	movt	r3, #28675	; 0x7003
7003059c:	e59f2910 	ldr	r2, [pc, #2320]	; 70030eb4 <__mmu_init+0x9c4>
700305a0:	e1a01003 	mov	r1, r3
700305a4:	e3000000 	movw	r0, #0
700305a8:	e3470008 	movt	r0, #28680	; 0x7008
700305ac:	ebffffa0 	bl	70030434 <__level1_page_init>
700305b0:	e59f08f0 	ldr	r0, [pc, #2288]	; 70030ea8 <__mmu_init+0x9b8>
700305b4:	e3003000 	movw	r3, #0
700305b8:	e3403000 	movt	r3, #0
700305bc:	e3002000 	movw	r2, #0
700305c0:	e3402000 	movt	r2, #0
700305c4:	e1a01003 	mov	r1, r3
700305c8:	ebffffb0 	bl	70030490 <__level2_page_init>
700305cc:	e59f38d8 	ldr	r3, [pc, #2264]	; 70030eac <__mmu_init+0x9bc>
700305d0:	e3a02a01 	mov	r2, #4096	; 0x1000
700305d4:	e3412001 	movt	r2, #4097	; 0x1001
700305d8:	e3a01a01 	mov	r1, #4096	; 0x1000
700305dc:	e3411001 	movt	r1, #4097	; 0x1001
700305e0:	e1a00003 	mov	r0, r3
700305e4:	ebffffa9 	bl	70030490 <__level2_page_init>
700305e8:	e59f38c0 	ldr	r3, [pc, #2240]	; 70030eb0 <__mmu_init+0x9c0>
700305ec:	e3a0241e 	mov	r2, #503316480	; 0x1e000000
700305f0:	e3a0141e 	mov	r1, #503316480	; 0x1e000000
700305f4:	e1a00003 	mov	r0, r3
700305f8:	ebffffa4 	bl	70030490 <__level2_page_init>
700305fc:	e59f38ac 	ldr	r3, [pc, #2220]	; 70030eb0 <__mmu_init+0x9c0>
70030600:	e3a02a01 	mov	r2, #4096	; 0x1000
70030604:	e3412e00 	movt	r2, #7680	; 0x1e00
70030608:	e3a01a01 	mov	r1, #4096	; 0x1000
7003060c:	e3411e00 	movt	r1, #7680	; 0x1e00
70030610:	e1a00003 	mov	r0, r3
70030614:	ebffff9d 	bl	70030490 <__level2_page_init>
70030618:	e59f0894 	ldr	r0, [pc, #2196]	; 70030eb4 <__mmu_init+0x9c4>
7003061c:	e3003000 	movw	r3, #0
70030620:	e3473001 	movt	r3, #28673	; 0x7001
70030624:	e3002000 	movw	r2, #0
70030628:	e3472001 	movt	r2, #28673	; 0x7001
7003062c:	e1a01003 	mov	r1, r3
70030630:	ebffff96 	bl	70030490 <__level2_page_init>
70030634:	e59f0878 	ldr	r0, [pc, #2168]	; 70030eb4 <__mmu_init+0x9c4>
70030638:	e3003000 	movw	r3, #0
7003063c:	e3473003 	movt	r3, #28675	; 0x7003
70030640:	e3002000 	movw	r2, #0
70030644:	e3472003 	movt	r2, #28675	; 0x7003
70030648:	e1a01003 	mov	r1, r3
7003064c:	ebffff8f 	bl	70030490 <__level2_page_init>
70030650:	e59f085c 	ldr	r0, [pc, #2140]	; 70030eb4 <__mmu_init+0x9c4>
70030654:	e3003000 	movw	r3, #0
70030658:	e3473003 	movt	r3, #28675	; 0x7003
7003065c:	e2831a01 	add	r1, r3, #4096	; 0x1000
70030660:	e3003000 	movw	r3, #0
70030664:	e3473003 	movt	r3, #28675	; 0x7003
70030668:	e2833a01 	add	r3, r3, #4096	; 0x1000
7003066c:	e1a02003 	mov	r2, r3
70030670:	ebffff86 	bl	70030490 <__level2_page_init>
70030674:	e59f0838 	ldr	r0, [pc, #2104]	; 70030eb4 <__mmu_init+0x9c4>
70030678:	e3023000 	movw	r3, #8192	; 0x2000
7003067c:	e3473003 	movt	r3, #28675	; 0x7003
70030680:	e3022000 	movw	r2, #8192	; 0x2000
70030684:	e3472003 	movt	r2, #28675	; 0x7003
70030688:	e1a01003 	mov	r1, r3
7003068c:	ebffff7f 	bl	70030490 <__level2_page_init>
70030690:	e59f081c 	ldr	r0, [pc, #2076]	; 70030eb4 <__mmu_init+0x9c4>
70030694:	e3023000 	movw	r3, #8192	; 0x2000
70030698:	e3473002 	movt	r3, #28674	; 0x7002
7003069c:	e3022000 	movw	r2, #8192	; 0x2000
700306a0:	e3472002 	movt	r2, #28674	; 0x7002
700306a4:	e1a01003 	mov	r1, r3
700306a8:	ebffff78 	bl	70030490 <__level2_page_init>
700306ac:	e59f0800 	ldr	r0, [pc, #2048]	; 70030eb4 <__mmu_init+0x9c4>
700306b0:	e3033000 	movw	r3, #12288	; 0x3000
700306b4:	e3473002 	movt	r3, #28674	; 0x7002
700306b8:	e3032000 	movw	r2, #12288	; 0x3000
700306bc:	e3472002 	movt	r2, #28674	; 0x7002
700306c0:	e1a01003 	mov	r1, r3
700306c4:	ebffff71 	bl	70030490 <__level2_page_init>
700306c8:	e59f07e4 	ldr	r0, [pc, #2020]	; 70030eb4 <__mmu_init+0x9c4>
700306cc:	e3003000 	movw	r3, #0
700306d0:	e3473002 	movt	r3, #28674	; 0x7002
700306d4:	e3002000 	movw	r2, #0
700306d8:	e3472002 	movt	r2, #28674	; 0x7002
700306dc:	e1a01003 	mov	r1, r3
700306e0:	ebffff6a 	bl	70030490 <__level2_page_init>
700306e4:	e59f07c8 	ldr	r0, [pc, #1992]	; 70030eb4 <__mmu_init+0x9c4>
700306e8:	e3003000 	movw	r3, #0
700306ec:	e3473002 	movt	r3, #28674	; 0x7002
700306f0:	e3002000 	movw	r2, #0
700306f4:	e3472002 	movt	r2, #28674	; 0x7002
700306f8:	e1a01003 	mov	r1, r3
700306fc:	ebffff63 	bl	70030490 <__level2_page_init>
70030700:	e59f07ac 	ldr	r0, [pc, #1964]	; 70030eb4 <__mmu_init+0x9c4>
70030704:	e3003080 	movw	r3, #128	; 0x80
70030708:	e3473002 	movt	r3, #28674	; 0x7002
7003070c:	e3002080 	movw	r2, #128	; 0x80
70030710:	e3472002 	movt	r2, #28674	; 0x7002
70030714:	e1a01003 	mov	r1, r3
70030718:	ebffff5c 	bl	70030490 <__level2_page_init>
7003071c:	e59f0790 	ldr	r0, [pc, #1936]	; 70030eb4 <__mmu_init+0x9c4>
70030720:	e3003480 	movw	r3, #1152	; 0x480
70030724:	e3473002 	movt	r3, #28674	; 0x7002
70030728:	e3002480 	movw	r2, #1152	; 0x480
7003072c:	e3472002 	movt	r2, #28674	; 0x7002
70030730:	e1a01003 	mov	r1, r3
70030734:	ebffff55 	bl	70030490 <__level2_page_init>
70030738:	e59f0774 	ldr	r0, [pc, #1908]	; 70030eb4 <__mmu_init+0x9c4>
7003073c:	e3003500 	movw	r3, #1280	; 0x500
70030740:	e3473002 	movt	r3, #28674	; 0x7002
70030744:	e3002500 	movw	r2, #1280	; 0x500
70030748:	e3472002 	movt	r2, #28674	; 0x7002
7003074c:	e1a01003 	mov	r1, r3
70030750:	ebffff4e 	bl	70030490 <__level2_page_init>
70030754:	e59f0758 	ldr	r0, [pc, #1880]	; 70030eb4 <__mmu_init+0x9c4>
70030758:	e3003580 	movw	r3, #1408	; 0x580
7003075c:	e3473002 	movt	r3, #28674	; 0x7002
70030760:	e3002580 	movw	r2, #1408	; 0x580
70030764:	e3472002 	movt	r2, #28674	; 0x7002
70030768:	e1a01003 	mov	r1, r3
7003076c:	ebffff47 	bl	70030490 <__level2_page_init>
70030770:	e59f073c 	ldr	r0, [pc, #1852]	; 70030eb4 <__mmu_init+0x9c4>
70030774:	e3043000 	movw	r3, #16384	; 0x4000
70030778:	e3473003 	movt	r3, #28675	; 0x7003
7003077c:	e3042000 	movw	r2, #16384	; 0x4000
70030780:	e3472003 	movt	r2, #28675	; 0x7003
70030784:	e1a01003 	mov	r1, r3
70030788:	ebffff40 	bl	70030490 <__level2_page_init>
7003078c:	e3a03000 	mov	r3, #0
70030790:	e50b3008 	str	r3, [fp, #-8]
70030794:	ea000009 	b	700307c0 <__mmu_init+0x2d0>
70030798:	e51b3008 	ldr	r3, [fp, #-8]
7003079c:	e1a02103 	lsl	r2, r3, #2
700307a0:	e3003000 	movw	r3, #0
700307a4:	e3473048 	movt	r3, #28744	; 0x7048
700307a8:	e0823003 	add	r3, r2, r3
700307ac:	e3a02000 	mov	r2, #0
700307b0:	e5832000 	str	r2, [r3]
700307b4:	e51b3008 	ldr	r3, [fp, #-8]
700307b8:	e2833001 	add	r3, r3, #1
700307bc:	e50b3008 	str	r3, [fp, #-8]
700307c0:	e51b3008 	ldr	r3, [fp, #-8]
700307c4:	e3730c16 	cmn	r3, #5632	; 0x1600
700307c8:	bafffff2 	blt	70030798 <__mmu_init+0x2a8>
700307cc:	e3003000 	movw	r3, #0
700307d0:	e3403000 	movt	r3, #0
700307d4:	e59f26dc 	ldr	r2, [pc, #1756]	; 70030eb8 <__mmu_init+0x9c8>
700307d8:	e1a01003 	mov	r1, r3
700307dc:	e3000000 	movw	r0, #0
700307e0:	e3470048 	movt	r0, #28744	; 0x7048
700307e4:	ebffff12 	bl	70030434 <__level1_page_init>
700307e8:	e59f36cc 	ldr	r3, [pc, #1740]	; 70030ebc <__mmu_init+0x9cc>
700307ec:	e1a02003 	mov	r2, r3
700307f0:	e3a01a01 	mov	r1, #4096	; 0x1000
700307f4:	e3411001 	movt	r1, #4097	; 0x1001
700307f8:	e3000000 	movw	r0, #0
700307fc:	e3470048 	movt	r0, #28744	; 0x7048
70030800:	ebffff0b 	bl	70030434 <__level1_page_init>
70030804:	e59f36b4 	ldr	r3, [pc, #1716]	; 70030ec0 <__mmu_init+0x9d0>
70030808:	e1a02003 	mov	r2, r3
7003080c:	e3a0141e 	mov	r1, #503316480	; 0x1e000000
70030810:	e3000000 	movw	r0, #0
70030814:	e3470048 	movt	r0, #28744	; 0x7048
70030818:	ebffff05 	bl	70030434 <__level1_page_init>
7003081c:	e3003000 	movw	r3, #0
70030820:	e3473003 	movt	r3, #28675	; 0x7003
70030824:	e59f2698 	ldr	r2, [pc, #1688]	; 70030ec4 <__mmu_init+0x9d4>
70030828:	e1a01003 	mov	r1, r3
7003082c:	e3000000 	movw	r0, #0
70030830:	e3470048 	movt	r0, #28744	; 0x7048
70030834:	ebfffefe 	bl	70030434 <__level1_page_init>
70030838:	e3003000 	movw	r3, #0
7003083c:	e34730f5 	movt	r3, #28917	; 0x70f5
70030840:	e59f2680 	ldr	r2, [pc, #1664]	; 70030ec8 <__mmu_init+0x9d8>
70030844:	e1a01003 	mov	r1, r3
70030848:	e3000000 	movw	r0, #0
7003084c:	e3470048 	movt	r0, #28744	; 0x7048
70030850:	ebfffef7 	bl	70030434 <__level1_page_init>
70030854:	e3003000 	movw	r3, #0
70030858:	e34730a0 	movt	r3, #28832	; 0x70a0
7003085c:	e59f2668 	ldr	r2, [pc, #1640]	; 70030ecc <__mmu_init+0x9dc>
70030860:	e1a01003 	mov	r1, r3
70030864:	e3000000 	movw	r0, #0
70030868:	e3470048 	movt	r0, #28744	; 0x7048
7003086c:	ebfffef0 	bl	70030434 <__level1_page_init>
70030870:	e59f0640 	ldr	r0, [pc, #1600]	; 70030eb8 <__mmu_init+0x9c8>
70030874:	e3003000 	movw	r3, #0
70030878:	e3403000 	movt	r3, #0
7003087c:	e3002000 	movw	r2, #0
70030880:	e3402000 	movt	r2, #0
70030884:	e1a01003 	mov	r1, r3
70030888:	ebffff00 	bl	70030490 <__level2_page_init>
7003088c:	e59f3628 	ldr	r3, [pc, #1576]	; 70030ebc <__mmu_init+0x9cc>
70030890:	e3a02a01 	mov	r2, #4096	; 0x1000
70030894:	e3412001 	movt	r2, #4097	; 0x1001
70030898:	e3a01a01 	mov	r1, #4096	; 0x1000
7003089c:	e3411001 	movt	r1, #4097	; 0x1001
700308a0:	e1a00003 	mov	r0, r3
700308a4:	ebfffef9 	bl	70030490 <__level2_page_init>
700308a8:	e59f3610 	ldr	r3, [pc, #1552]	; 70030ec0 <__mmu_init+0x9d0>
700308ac:	e3a0241e 	mov	r2, #503316480	; 0x1e000000
700308b0:	e3a0141e 	mov	r1, #503316480	; 0x1e000000
700308b4:	e1a00003 	mov	r0, r3
700308b8:	ebfffef4 	bl	70030490 <__level2_page_init>
700308bc:	e59f35fc 	ldr	r3, [pc, #1532]	; 70030ec0 <__mmu_init+0x9d0>
700308c0:	e3a02a01 	mov	r2, #4096	; 0x1000
700308c4:	e3412e00 	movt	r2, #7680	; 0x1e00
700308c8:	e3a01a01 	mov	r1, #4096	; 0x1000
700308cc:	e3411e00 	movt	r1, #7680	; 0x1e00
700308d0:	e1a00003 	mov	r0, r3
700308d4:	ebfffeed 	bl	70030490 <__level2_page_init>
700308d8:	e59f05e4 	ldr	r0, [pc, #1508]	; 70030ec4 <__mmu_init+0x9d4>
700308dc:	e3003000 	movw	r3, #0
700308e0:	e3473001 	movt	r3, #28673	; 0x7001
700308e4:	e3002000 	movw	r2, #0
700308e8:	e3472001 	movt	r2, #28673	; 0x7001
700308ec:	e1a01003 	mov	r1, r3
700308f0:	ebfffee6 	bl	70030490 <__level2_page_init>
700308f4:	e59f05c8 	ldr	r0, [pc, #1480]	; 70030ec4 <__mmu_init+0x9d4>
700308f8:	e3003000 	movw	r3, #0
700308fc:	e3473003 	movt	r3, #28675	; 0x7003
70030900:	e3002000 	movw	r2, #0
70030904:	e3472003 	movt	r2, #28675	; 0x7003
70030908:	e1a01003 	mov	r1, r3
7003090c:	ebfffedf 	bl	70030490 <__level2_page_init>
70030910:	e59f05ac 	ldr	r0, [pc, #1452]	; 70030ec4 <__mmu_init+0x9d4>
70030914:	e3003000 	movw	r3, #0
70030918:	e3473003 	movt	r3, #28675	; 0x7003
7003091c:	e2831a01 	add	r1, r3, #4096	; 0x1000
70030920:	e3003000 	movw	r3, #0
70030924:	e3473003 	movt	r3, #28675	; 0x7003
70030928:	e2833a01 	add	r3, r3, #4096	; 0x1000
7003092c:	e1a02003 	mov	r2, r3
70030930:	ebfffed6 	bl	70030490 <__level2_page_init>
70030934:	e59f0588 	ldr	r0, [pc, #1416]	; 70030ec4 <__mmu_init+0x9d4>
70030938:	e3023000 	movw	r3, #8192	; 0x2000
7003093c:	e3473002 	movt	r3, #28674	; 0x7002
70030940:	e3022000 	movw	r2, #8192	; 0x2000
70030944:	e3472002 	movt	r2, #28674	; 0x7002
70030948:	e1a01003 	mov	r1, r3
7003094c:	ebfffecf 	bl	70030490 <__level2_page_init>
70030950:	e59f056c 	ldr	r0, [pc, #1388]	; 70030ec4 <__mmu_init+0x9d4>
70030954:	e3023000 	movw	r3, #8192	; 0x2000
70030958:	e3473003 	movt	r3, #28675	; 0x7003
7003095c:	e3022000 	movw	r2, #8192	; 0x2000
70030960:	e3472003 	movt	r2, #28675	; 0x7003
70030964:	e1a01003 	mov	r1, r3
70030968:	ebfffec8 	bl	70030490 <__level2_page_init>
7003096c:	e59f0550 	ldr	r0, [pc, #1360]	; 70030ec4 <__mmu_init+0x9d4>
70030970:	e3033000 	movw	r3, #12288	; 0x3000
70030974:	e3473002 	movt	r3, #28674	; 0x7002
70030978:	e3032000 	movw	r2, #12288	; 0x3000
7003097c:	e3472002 	movt	r2, #28674	; 0x7002
70030980:	e1a01003 	mov	r1, r3
70030984:	ebfffec1 	bl	70030490 <__level2_page_init>
70030988:	e59f0538 	ldr	r0, [pc, #1336]	; 70030ec8 <__mmu_init+0x9d8>
7003098c:	e3003000 	movw	r3, #0
70030990:	e34730f5 	movt	r3, #28917	; 0x70f5
70030994:	e3002000 	movw	r2, #0
70030998:	e3482075 	movt	r2, #32885	; 0x8075
7003099c:	e1a01003 	mov	r1, r3
700309a0:	ebfffeba 	bl	70030490 <__level2_page_init>
700309a4:	e59f051c 	ldr	r0, [pc, #1308]	; 70030ec8 <__mmu_init+0x9d8>
700309a8:	e3033000 	movw	r3, #12288	; 0x3000
700309ac:	e34730f5 	movt	r3, #28917	; 0x70f5
700309b0:	e3032000 	movw	r2, #12288	; 0x3000
700309b4:	e3482075 	movt	r2, #32885	; 0x8075
700309b8:	e1a01003 	mov	r1, r3
700309bc:	ebfffeb3 	bl	70030490 <__level2_page_init>
700309c0:	e59f0500 	ldr	r0, [pc, #1280]	; 70030ec8 <__mmu_init+0x9d8>
700309c4:	e3013000 	movw	r3, #4096	; 0x1000
700309c8:	e34730f5 	movt	r3, #28917	; 0x70f5
700309cc:	e3012000 	movw	r2, #4096	; 0x1000
700309d0:	e3482075 	movt	r2, #32885	; 0x8075
700309d4:	e1a01003 	mov	r1, r3
700309d8:	ebfffeac 	bl	70030490 <__level2_page_init>
700309dc:	e59f04e4 	ldr	r0, [pc, #1252]	; 70030ec8 <__mmu_init+0x9d8>
700309e0:	e3043000 	movw	r3, #16384	; 0x4000
700309e4:	e34730f5 	movt	r3, #28917	; 0x70f5
700309e8:	e3042000 	movw	r2, #16384	; 0x4000
700309ec:	e3482075 	movt	r2, #32885	; 0x8075
700309f0:	e1a01003 	mov	r1, r3
700309f4:	ebfffea5 	bl	70030490 <__level2_page_init>
700309f8:	e59f04c8 	ldr	r0, [pc, #1224]	; 70030ec8 <__mmu_init+0x9d8>
700309fc:	e3023000 	movw	r3, #8192	; 0x2000
70030a00:	e34730f5 	movt	r3, #28917	; 0x70f5
70030a04:	e3022000 	movw	r2, #8192	; 0x2000
70030a08:	e3482074 	movt	r2, #32884	; 0x8074
70030a0c:	e1a01003 	mov	r1, r3
70030a10:	ebfffe9e 	bl	70030490 <__level2_page_init>
70030a14:	e59f04ac 	ldr	r0, [pc, #1196]	; 70030ec8 <__mmu_init+0x9d8>
70030a18:	e3023000 	movw	r3, #8192	; 0x2000
70030a1c:	e34730f5 	movt	r3, #28917	; 0x70f5
70030a20:	e3022000 	movw	r2, #8192	; 0x2000
70030a24:	e3482074 	movt	r2, #32884	; 0x8074
70030a28:	e1a01003 	mov	r1, r3
70030a2c:	ebfffe97 	bl	70030490 <__level2_page_init>
70030a30:	e59f0490 	ldr	r0, [pc, #1168]	; 70030ec8 <__mmu_init+0x9d8>
70030a34:	e3023080 	movw	r3, #8320	; 0x2080
70030a38:	e34730f5 	movt	r3, #28917	; 0x70f5
70030a3c:	e3022080 	movw	r2, #8320	; 0x2080
70030a40:	e3482074 	movt	r2, #32884	; 0x8074
70030a44:	e1a01003 	mov	r1, r3
70030a48:	ebfffe90 	bl	70030490 <__level2_page_init>
70030a4c:	e59f0474 	ldr	r0, [pc, #1140]	; 70030ec8 <__mmu_init+0x9d8>
70030a50:	e3023480 	movw	r3, #9344	; 0x2480
70030a54:	e34730f5 	movt	r3, #28917	; 0x70f5
70030a58:	e3022480 	movw	r2, #9344	; 0x2480
70030a5c:	e3482074 	movt	r2, #32884	; 0x8074
70030a60:	e1a01003 	mov	r1, r3
70030a64:	ebfffe89 	bl	70030490 <__level2_page_init>
70030a68:	e59f0458 	ldr	r0, [pc, #1112]	; 70030ec8 <__mmu_init+0x9d8>
70030a6c:	e3023500 	movw	r3, #9472	; 0x2500
70030a70:	e34730f5 	movt	r3, #28917	; 0x70f5
70030a74:	e3022500 	movw	r2, #9472	; 0x2500
70030a78:	e3482074 	movt	r2, #32884	; 0x8074
70030a7c:	e1a01003 	mov	r1, r3
70030a80:	ebfffe82 	bl	70030490 <__level2_page_init>
70030a84:	e59f043c 	ldr	r0, [pc, #1084]	; 70030ec8 <__mmu_init+0x9d8>
70030a88:	e3023580 	movw	r3, #9600	; 0x2580
70030a8c:	e34730f5 	movt	r3, #28917	; 0x70f5
70030a90:	e3022580 	movw	r2, #9600	; 0x2580
70030a94:	e3482074 	movt	r2, #32884	; 0x8074
70030a98:	e1a01003 	mov	r1, r3
70030a9c:	ebfffe7b 	bl	70030490 <__level2_page_init>
70030aa0:	e3a03000 	mov	r3, #0
70030aa4:	e50b300c 	str	r3, [fp, #-12]
70030aa8:	ea000011 	b	70030af4 <__mmu_init+0x604>
70030aac:	e59f0418 	ldr	r0, [pc, #1048]	; 70030ecc <__mmu_init+0x9dc>
70030ab0:	e51b300c 	ldr	r3, [fp, #-12]
70030ab4:	e1a03603 	lsl	r3, r3, #12
70030ab8:	e1a02003 	mov	r2, r3
70030abc:	e3003000 	movw	r3, #0
70030ac0:	e34730a0 	movt	r3, #28832	; 0x70a0
70030ac4:	e0821003 	add	r1, r2, r3
70030ac8:	e51b300c 	ldr	r3, [fp, #-12]
70030acc:	e1a03603 	lsl	r3, r3, #12
70030ad0:	e1a02003 	mov	r2, r3
70030ad4:	e3003000 	movw	r3, #0
70030ad8:	e3483001 	movt	r3, #32769	; 0x8001
70030adc:	e0823003 	add	r3, r2, r3
70030ae0:	e1a02003 	mov	r2, r3
70030ae4:	ebfffe69 	bl	70030490 <__level2_page_init>
70030ae8:	e51b300c 	ldr	r3, [fp, #-12]
70030aec:	e2833001 	add	r3, r3, #1
70030af0:	e50b300c 	str	r3, [fp, #-12]
70030af4:	e51b300c 	ldr	r3, [fp, #-12]
70030af8:	e353000f 	cmp	r3, #15
70030afc:	daffffea 	ble	70030aac <__mmu_init+0x5bc>
70030b00:	e3a03000 	mov	r3, #0
70030b04:	e50b3008 	str	r3, [fp, #-8]
70030b08:	ea000009 	b	70030b34 <__mmu_init+0x644>
70030b0c:	e51b3008 	ldr	r3, [fp, #-8]
70030b10:	e1a02103 	lsl	r2, r3, #2
70030b14:	e3003000 	movw	r3, #0
70030b18:	e3473088 	movt	r3, #28808	; 0x7088
70030b1c:	e0823003 	add	r3, r2, r3
70030b20:	e3a02000 	mov	r2, #0
70030b24:	e5832000 	str	r2, [r3]
70030b28:	e51b3008 	ldr	r3, [fp, #-8]
70030b2c:	e2833001 	add	r3, r3, #1
70030b30:	e50b3008 	str	r3, [fp, #-8]
70030b34:	e51b3008 	ldr	r3, [fp, #-8]
70030b38:	e3730c16 	cmn	r3, #5632	; 0x1600
70030b3c:	bafffff2 	blt	70030b0c <__mmu_init+0x61c>
70030b40:	e3003000 	movw	r3, #0
70030b44:	e3403000 	movt	r3, #0
70030b48:	e59f2380 	ldr	r2, [pc, #896]	; 70030ed0 <__mmu_init+0x9e0>
70030b4c:	e1a01003 	mov	r1, r3
70030b50:	e3000000 	movw	r0, #0
70030b54:	e3470088 	movt	r0, #28808	; 0x7088
70030b58:	ebfffe35 	bl	70030434 <__level1_page_init>
70030b5c:	e59f3370 	ldr	r3, [pc, #880]	; 70030ed4 <__mmu_init+0x9e4>
70030b60:	e1a02003 	mov	r2, r3
70030b64:	e3a01a01 	mov	r1, #4096	; 0x1000
70030b68:	e3411001 	movt	r1, #4097	; 0x1001
70030b6c:	e3000000 	movw	r0, #0
70030b70:	e3470088 	movt	r0, #28808	; 0x7088
70030b74:	ebfffe2e 	bl	70030434 <__level1_page_init>
70030b78:	e59f3358 	ldr	r3, [pc, #856]	; 70030ed8 <__mmu_init+0x9e8>
70030b7c:	e1a02003 	mov	r2, r3
70030b80:	e3a0141e 	mov	r1, #503316480	; 0x1e000000
70030b84:	e3000000 	movw	r0, #0
70030b88:	e3470088 	movt	r0, #28808	; 0x7088
70030b8c:	ebfffe28 	bl	70030434 <__level1_page_init>
70030b90:	e3003000 	movw	r3, #0
70030b94:	e3473003 	movt	r3, #28675	; 0x7003
70030b98:	e59f233c 	ldr	r2, [pc, #828]	; 70030edc <__mmu_init+0x9ec>
70030b9c:	e1a01003 	mov	r1, r3
70030ba0:	e3000000 	movw	r0, #0
70030ba4:	e3470088 	movt	r0, #28808	; 0x7088
70030ba8:	ebfffe21 	bl	70030434 <__level1_page_init>
70030bac:	e3003000 	movw	r3, #0
70030bb0:	e34730f4 	movt	r3, #28916	; 0x70f4
70030bb4:	e59f2324 	ldr	r2, [pc, #804]	; 70030ee0 <__mmu_init+0x9f0>
70030bb8:	e1a01003 	mov	r1, r3
70030bbc:	e3000000 	movw	r0, #0
70030bc0:	e3470088 	movt	r0, #28808	; 0x7088
70030bc4:	ebfffe1a 	bl	70030434 <__level1_page_init>
70030bc8:	e3003000 	movw	r3, #0
70030bcc:	e34730a1 	movt	r3, #28833	; 0x70a1
70030bd0:	e59f230c 	ldr	r2, [pc, #780]	; 70030ee4 <__mmu_init+0x9f4>
70030bd4:	e1a01003 	mov	r1, r3
70030bd8:	e3000000 	movw	r0, #0
70030bdc:	e3470088 	movt	r0, #28808	; 0x7088
70030be0:	ebfffe13 	bl	70030434 <__level1_page_init>
70030be4:	e59f02e4 	ldr	r0, [pc, #740]	; 70030ed0 <__mmu_init+0x9e0>
70030be8:	e3003000 	movw	r3, #0
70030bec:	e3403000 	movt	r3, #0
70030bf0:	e3002000 	movw	r2, #0
70030bf4:	e3402000 	movt	r2, #0
70030bf8:	e1a01003 	mov	r1, r3
70030bfc:	ebfffe23 	bl	70030490 <__level2_page_init>
70030c00:	e59f32cc 	ldr	r3, [pc, #716]	; 70030ed4 <__mmu_init+0x9e4>
70030c04:	e3a02a01 	mov	r2, #4096	; 0x1000
70030c08:	e3412001 	movt	r2, #4097	; 0x1001
70030c0c:	e3a01a01 	mov	r1, #4096	; 0x1000
70030c10:	e3411001 	movt	r1, #4097	; 0x1001
70030c14:	e1a00003 	mov	r0, r3
70030c18:	ebfffe1c 	bl	70030490 <__level2_page_init>
70030c1c:	e59f32b4 	ldr	r3, [pc, #692]	; 70030ed8 <__mmu_init+0x9e8>
70030c20:	e3a0241e 	mov	r2, #503316480	; 0x1e000000
70030c24:	e3a0141e 	mov	r1, #503316480	; 0x1e000000
70030c28:	e1a00003 	mov	r0, r3
70030c2c:	ebfffe17 	bl	70030490 <__level2_page_init>
70030c30:	e59f32a0 	ldr	r3, [pc, #672]	; 70030ed8 <__mmu_init+0x9e8>
70030c34:	e3a02a01 	mov	r2, #4096	; 0x1000
70030c38:	e3412e00 	movt	r2, #7680	; 0x1e00
70030c3c:	e3a01a01 	mov	r1, #4096	; 0x1000
70030c40:	e3411e00 	movt	r1, #7680	; 0x1e00
70030c44:	e1a00003 	mov	r0, r3
70030c48:	ebfffe10 	bl	70030490 <__level2_page_init>
70030c4c:	e59f0288 	ldr	r0, [pc, #648]	; 70030edc <__mmu_init+0x9ec>
70030c50:	e3003000 	movw	r3, #0
70030c54:	e3473001 	movt	r3, #28673	; 0x7001
70030c58:	e3002000 	movw	r2, #0
70030c5c:	e3472001 	movt	r2, #28673	; 0x7001
70030c60:	e1a01003 	mov	r1, r3
70030c64:	ebfffe09 	bl	70030490 <__level2_page_init>
70030c68:	e59f026c 	ldr	r0, [pc, #620]	; 70030edc <__mmu_init+0x9ec>
70030c6c:	e3003000 	movw	r3, #0
70030c70:	e3473003 	movt	r3, #28675	; 0x7003
70030c74:	e3002000 	movw	r2, #0
70030c78:	e3472003 	movt	r2, #28675	; 0x7003
70030c7c:	e1a01003 	mov	r1, r3
70030c80:	ebfffe02 	bl	70030490 <__level2_page_init>
70030c84:	e59f0250 	ldr	r0, [pc, #592]	; 70030edc <__mmu_init+0x9ec>
70030c88:	e3003000 	movw	r3, #0
70030c8c:	e3473003 	movt	r3, #28675	; 0x7003
70030c90:	e2831a01 	add	r1, r3, #4096	; 0x1000
70030c94:	e3003000 	movw	r3, #0
70030c98:	e3473003 	movt	r3, #28675	; 0x7003
70030c9c:	e2833a01 	add	r3, r3, #4096	; 0x1000
70030ca0:	e1a02003 	mov	r2, r3
70030ca4:	ebfffdf9 	bl	70030490 <__level2_page_init>
70030ca8:	e59f022c 	ldr	r0, [pc, #556]	; 70030edc <__mmu_init+0x9ec>
70030cac:	e3023000 	movw	r3, #8192	; 0x2000
70030cb0:	e3473002 	movt	r3, #28674	; 0x7002
70030cb4:	e3022000 	movw	r2, #8192	; 0x2000
70030cb8:	e3472002 	movt	r2, #28674	; 0x7002
70030cbc:	e1a01003 	mov	r1, r3
70030cc0:	ebfffdf2 	bl	70030490 <__level2_page_init>
70030cc4:	e59f0210 	ldr	r0, [pc, #528]	; 70030edc <__mmu_init+0x9ec>
70030cc8:	e3023000 	movw	r3, #8192	; 0x2000
70030ccc:	e3473003 	movt	r3, #28675	; 0x7003
70030cd0:	e3022000 	movw	r2, #8192	; 0x2000
70030cd4:	e3472003 	movt	r2, #28675	; 0x7003
70030cd8:	e1a01003 	mov	r1, r3
70030cdc:	ebfffdeb 	bl	70030490 <__level2_page_init>
70030ce0:	e59f01f4 	ldr	r0, [pc, #500]	; 70030edc <__mmu_init+0x9ec>
70030ce4:	e3033000 	movw	r3, #12288	; 0x3000
70030ce8:	e3473002 	movt	r3, #28674	; 0x7002
70030cec:	e3032000 	movw	r2, #12288	; 0x3000
70030cf0:	e3472002 	movt	r2, #28674	; 0x7002
70030cf4:	e1a01003 	mov	r1, r3
70030cf8:	ebfffde4 	bl	70030490 <__level2_page_init>
70030cfc:	e59f01dc 	ldr	r0, [pc, #476]	; 70030ee0 <__mmu_init+0x9f0>
70030d00:	e3003000 	movw	r3, #0
70030d04:	e34730f4 	movt	r3, #28916	; 0x70f4
70030d08:	e3002000 	movw	r2, #0
70030d0c:	e3482074 	movt	r2, #32884	; 0x8074
70030d10:	e1a01003 	mov	r1, r3
70030d14:	ebfffddd 	bl	70030490 <__level2_page_init>
70030d18:	e59f01c0 	ldr	r0, [pc, #448]	; 70030ee0 <__mmu_init+0x9f0>
70030d1c:	e3033000 	movw	r3, #12288	; 0x3000
70030d20:	e34730f4 	movt	r3, #28916	; 0x70f4
70030d24:	e3032000 	movw	r2, #12288	; 0x3000
70030d28:	e3482074 	movt	r2, #32884	; 0x8074
70030d2c:	e1a01003 	mov	r1, r3
70030d30:	ebfffdd6 	bl	70030490 <__level2_page_init>
70030d34:	e59f01a4 	ldr	r0, [pc, #420]	; 70030ee0 <__mmu_init+0x9f0>
70030d38:	e3013000 	movw	r3, #4096	; 0x1000
70030d3c:	e34730f4 	movt	r3, #28916	; 0x70f4
70030d40:	e3012000 	movw	r2, #4096	; 0x1000
70030d44:	e3482074 	movt	r2, #32884	; 0x8074
70030d48:	e1a01003 	mov	r1, r3
70030d4c:	ebfffdcf 	bl	70030490 <__level2_page_init>
70030d50:	e59f0188 	ldr	r0, [pc, #392]	; 70030ee0 <__mmu_init+0x9f0>
70030d54:	e3043000 	movw	r3, #16384	; 0x4000
70030d58:	e34730f4 	movt	r3, #28916	; 0x70f4
70030d5c:	e3042000 	movw	r2, #16384	; 0x4000
70030d60:	e3482074 	movt	r2, #32884	; 0x8074
70030d64:	e1a01003 	mov	r1, r3
70030d68:	ebfffdc8 	bl	70030490 <__level2_page_init>
70030d6c:	e59f016c 	ldr	r0, [pc, #364]	; 70030ee0 <__mmu_init+0x9f0>
70030d70:	e3023000 	movw	r3, #8192	; 0x2000
70030d74:	e34730f4 	movt	r3, #28916	; 0x70f4
70030d78:	e3022000 	movw	r2, #8192	; 0x2000
70030d7c:	e3482075 	movt	r2, #32885	; 0x8075
70030d80:	e1a01003 	mov	r1, r3
70030d84:	ebfffdc1 	bl	70030490 <__level2_page_init>
70030d88:	e59f0150 	ldr	r0, [pc, #336]	; 70030ee0 <__mmu_init+0x9f0>
70030d8c:	e3023000 	movw	r3, #8192	; 0x2000
70030d90:	e34730f4 	movt	r3, #28916	; 0x70f4
70030d94:	e3022000 	movw	r2, #8192	; 0x2000
70030d98:	e3482075 	movt	r2, #32885	; 0x8075
70030d9c:	e1a01003 	mov	r1, r3
70030da0:	ebfffdba 	bl	70030490 <__level2_page_init>
70030da4:	e59f0134 	ldr	r0, [pc, #308]	; 70030ee0 <__mmu_init+0x9f0>
70030da8:	e3023080 	movw	r3, #8320	; 0x2080
70030dac:	e34730f4 	movt	r3, #28916	; 0x70f4
70030db0:	e3022080 	movw	r2, #8320	; 0x2080
70030db4:	e3482075 	movt	r2, #32885	; 0x8075
70030db8:	e1a01003 	mov	r1, r3
70030dbc:	ebfffdb3 	bl	70030490 <__level2_page_init>
70030dc0:	e59f0118 	ldr	r0, [pc, #280]	; 70030ee0 <__mmu_init+0x9f0>
70030dc4:	e3023480 	movw	r3, #9344	; 0x2480
70030dc8:	e34730f4 	movt	r3, #28916	; 0x70f4
70030dcc:	e3022480 	movw	r2, #9344	; 0x2480
70030dd0:	e3482075 	movt	r2, #32885	; 0x8075
70030dd4:	e1a01003 	mov	r1, r3
70030dd8:	ebfffdac 	bl	70030490 <__level2_page_init>
70030ddc:	e59f00fc 	ldr	r0, [pc, #252]	; 70030ee0 <__mmu_init+0x9f0>
70030de0:	e3023500 	movw	r3, #9472	; 0x2500
70030de4:	e34730f4 	movt	r3, #28916	; 0x70f4
70030de8:	e3022500 	movw	r2, #9472	; 0x2500
70030dec:	e3482075 	movt	r2, #32885	; 0x8075
70030df0:	e1a01003 	mov	r1, r3
70030df4:	ebfffda5 	bl	70030490 <__level2_page_init>
70030df8:	e59f00e0 	ldr	r0, [pc, #224]	; 70030ee0 <__mmu_init+0x9f0>
70030dfc:	e3023580 	movw	r3, #9600	; 0x2580
70030e00:	e34730f4 	movt	r3, #28916	; 0x70f4
70030e04:	e3022580 	movw	r2, #9600	; 0x2580
70030e08:	e3482075 	movt	r2, #32885	; 0x8075
70030e0c:	e1a01003 	mov	r1, r3
70030e10:	ebfffd9e 	bl	70030490 <__level2_page_init>
70030e14:	e3a03000 	mov	r3, #0
70030e18:	e50b3010 	str	r3, [fp, #-16]
70030e1c:	ea000011 	b	70030e68 <__mmu_init+0x978>
70030e20:	e59f00bc 	ldr	r0, [pc, #188]	; 70030ee4 <__mmu_init+0x9f4>
70030e24:	e51b3010 	ldr	r3, [fp, #-16]
70030e28:	e1a03603 	lsl	r3, r3, #12
70030e2c:	e1a02003 	mov	r2, r3
70030e30:	e3003000 	movw	r3, #0
70030e34:	e34730a1 	movt	r3, #28833	; 0x70a1
70030e38:	e0821003 	add	r1, r2, r3
70030e3c:	e51b3010 	ldr	r3, [fp, #-16]
70030e40:	e1a03603 	lsl	r3, r3, #12
70030e44:	e1a02003 	mov	r2, r3
70030e48:	e3003000 	movw	r3, #0
70030e4c:	e3483000 	movt	r3, #32768	; 0x8000
70030e50:	e0823003 	add	r3, r2, r3
70030e54:	e1a02003 	mov	r2, r3
70030e58:	ebfffd8c 	bl	70030490 <__level2_page_init>
70030e5c:	e51b3010 	ldr	r3, [fp, #-16]
70030e60:	e2833001 	add	r3, r3, #1
70030e64:	e50b3010 	str	r3, [fp, #-16]
70030e68:	e51b3010 	ldr	r3, [fp, #-16]
70030e6c:	e353000f 	cmp	r3, #15
70030e70:	daffffea 	ble	70030e20 <__mmu_init+0x930>
70030e74:	e3003000 	movw	r3, #0
70030e78:	e3473008 	movt	r3, #28680	; 0x7008
70030e7c:	e1a00003 	mov	r0, r3
70030e80:	ebfffcbc 	bl	70030178 <MMU_Set_TTBR0>
70030e84:	e3053555 	movw	r3, #21845	; 0x5555
70030e88:	e3453555 	movt	r3, #21845	; 0x5555
70030e8c:	e1a00003 	mov	r0, r3
70030e90:	ebfffca2 	bl	70030120 <MMU_Set_DACR>
70030e94:	e3a00001 	mov	r0, #1
70030e98:	ebfffd49 	bl	700303c4 <MMU_Enable>
70030e9c:	e320f000 	nop	{0}
70030ea0:	e24bd004 	sub	sp, fp, #4
70030ea4:	e8bd8800 	pop	{fp, pc}
70030ea8:	70084000 	andvc	r4, r8, r0
70030eac:	70084400 	andvc	r4, r8, r0, lsl #8
70030eb0:	70084800 	andvc	r4, r8, r0, lsl #16
70030eb4:	70084c00 	andvc	r4, r8, r0, lsl #24
70030eb8:	70484000 	subvc	r4, r8, r0
70030ebc:	70484400 	subvc	r4, r8, r0, lsl #8
70030ec0:	70484800 	subvc	r4, r8, r0, lsl #16
70030ec4:	70484c00 	subvc	r4, r8, r0, lsl #24
70030ec8:	70485000 	subvc	r5, r8, r0
70030ecc:	70485400 	subvc	r5, r8, r0, lsl #8
70030ed0:	70884000 	addvc	r4, r8, r0
70030ed4:	70884400 	addvc	r4, r8, r0, lsl #8
70030ed8:	70884800 	addvc	r4, r8, r0, lsl #16
70030edc:	70884c00 	addvc	r4, r8, r0, lsl #24
70030ee0:	70885000 	addvc	r5, r8, r0
70030ee4:	70885400 	addvc	r5, r8, r0, lsl #8

70030ee8 <__gic_init>:
70030ee8:	e52db004 	push	{fp}		; (str fp, [sp, #-4]!)
70030eec:	e28db000 	add	fp, sp, #0
70030ef0:	e24dd00c 	sub	sp, sp, #12
70030ef4:	e3a0341e 	mov	r3, #503316480	; 0x1e000000
70030ef8:	e50b3008 	str	r3, [fp, #-8]
70030efc:	e3a03a01 	mov	r3, #4096	; 0x1000
70030f00:	e3413e00 	movt	r3, #7680	; 0x1e00
70030f04:	e50b300c 	str	r3, [fp, #-12]
70030f08:	e51b3008 	ldr	r3, [fp, #-8]
70030f0c:	e3a020f0 	mov	r2, #240	; 0xf0
70030f10:	e5832004 	str	r2, [r3, #4]
70030f14:	e51b300c 	ldr	r3, [fp, #-12]
70030f18:	e5933104 	ldr	r3, [r3, #260]	; 0x104
70030f1c:	e3832010 	orr	r2, r3, #16
70030f20:	e51b300c 	ldr	r3, [fp, #-12]
70030f24:	e5832104 	str	r2, [r3, #260]	; 0x104
70030f28:	e51b300c 	ldr	r3, [fp, #-12]
70030f2c:	e5933104 	ldr	r3, [r3, #260]	; 0x104
70030f30:	e3832a01 	orr	r2, r3, #4096	; 0x1000
70030f34:	e51b300c 	ldr	r3, [fp, #-12]
70030f38:	e5832104 	str	r2, [r3, #260]	; 0x104
70030f3c:	e51b3008 	ldr	r3, [fp, #-8]
70030f40:	e3a02001 	mov	r2, #1
70030f44:	e5832000 	str	r2, [r3]
70030f48:	e51b300c 	ldr	r3, [fp, #-12]
70030f4c:	e3a02001 	mov	r2, #1
70030f50:	e5832000 	str	r2, [r3]
70030f54:	e320f000 	nop	{0}
70030f58:	e28bd000 	add	sp, fp, #0
70030f5c:	e49db004 	pop	{fp}		; (ldr fp, [sp], #4)
70030f60:	e12fff1e 	bx	lr

70030f64 <__timer_init>:
70030f64:	e52db004 	push	{fp}		; (str fp, [sp, #-4]!)
70030f68:	e28db000 	add	fp, sp, #0
70030f6c:	e24dd00c 	sub	sp, sp, #12
70030f70:	e3a03a01 	mov	r3, #4096	; 0x1000
70030f74:	e3413001 	movt	r3, #4097	; 0x1001
70030f78:	e50b3008 	str	r3, [fp, #-8]
70030f7c:	e51b3008 	ldr	r3, [fp, #-8]
70030f80:	e3a02801 	mov	r2, #65536	; 0x10000
70030f84:	e5832000 	str	r2, [r3]
70030f88:	e51b3008 	ldr	r3, [fp, #-8]
70030f8c:	e3a02002 	mov	r2, #2
70030f90:	e5832008 	str	r2, [r3, #8]
70030f94:	e51b3008 	ldr	r3, [fp, #-8]
70030f98:	e5933008 	ldr	r3, [r3, #8]
70030f9c:	e3832040 	orr	r2, r3, #64	; 0x40
70030fa0:	e51b3008 	ldr	r3, [fp, #-8]
70030fa4:	e5832008 	str	r2, [r3, #8]
70030fa8:	e51b3008 	ldr	r3, [fp, #-8]
70030fac:	e5933008 	ldr	r3, [r3, #8]
70030fb0:	e3832020 	orr	r2, r3, #32
70030fb4:	e51b3008 	ldr	r3, [fp, #-8]
70030fb8:	e5832008 	str	r2, [r3, #8]
70030fbc:	e51b3008 	ldr	r3, [fp, #-8]
70030fc0:	e5933008 	ldr	r3, [r3, #8]
70030fc4:	e3832080 	orr	r2, r3, #128	; 0x80
70030fc8:	e51b3008 	ldr	r3, [fp, #-8]
70030fcc:	e5832008 	str	r2, [r3, #8]
70030fd0:	e320f000 	nop	{0}
70030fd4:	e28bd000 	add	sp, fp, #0
70030fd8:	e49db004 	pop	{fp}		; (ldr fp, [sp], #4)
70030fdc:	e12fff1e 	bx	lr

70030fe0 <board_init>:
70030fe0:	e92d4800 	push	{fp, lr}
70030fe4:	e28db004 	add	fp, sp, #4
70030fe8:	eb00004c 	bl	70031120 <__scheduler_init>
70030fec:	ebffffbd 	bl	70030ee8 <__gic_init>
70030ff0:	ebfffd3e 	bl	700304f0 <__mmu_init>
70030ff4:	ebffffda 	bl	70030f64 <__timer_init>
70030ff8:	f1080080 	cpsie	i
70030ffc:	eb000bff 	bl	70034000 <__IDLE_TXT_PHY>
70031000:	e320f000 	nop	{0}
70031004:	e8bd8800 	pop	{fp, pc}

70031008 <kernel_handler_irq>:
70031008:	e92d4800 	push	{fp, lr}
7003100c:	e28db004 	add	fp, sp, #4
70031010:	e24dd018 	sub	sp, sp, #24
70031014:	e50b0018 	str	r0, [fp, #-24]	; 0xffffffe8
70031018:	e3a0341e 	mov	r3, #503316480	; 0x1e000000
7003101c:	e50b3008 	str	r3, [fp, #-8]
70031020:	e3a03a01 	mov	r3, #4096	; 0x1000
70031024:	e3413001 	movt	r3, #4097	; 0x1001
70031028:	e50b300c 	str	r3, [fp, #-12]
7003102c:	e3a03000 	mov	r3, #0
70031030:	e50b3010 	str	r3, [fp, #-16]
70031034:	e51b3008 	ldr	r3, [fp, #-8]
70031038:	e593300c 	ldr	r3, [r3, #12]
7003103c:	e7e83053 	ubfx	r3, r3, #0, #9
70031040:	e50b3010 	str	r3, [fp, #-16]
70031044:	e51b3010 	ldr	r3, [fp, #-16]
70031048:	e3530024 	cmp	r3, #36	; 0x24
7003104c:	1a000013 	bne	700310a0 <kernel_handler_irq+0x98>
70031050:	e51b300c 	ldr	r3, [fp, #-12]
70031054:	e5933010 	ldr	r3, [r3, #16]
70031058:	e2033001 	and	r3, r3, #1
7003105c:	e3530000 	cmp	r3, #0
70031060:	0a000005 	beq	7003107c <kernel_handler_irq+0x74>
70031064:	e51b0018 	ldr	r0, [fp, #-24]	; 0xffffffe8
70031068:	eb0000d9 	bl	700313d4 <scheduler_c>
7003106c:	e51b300c 	ldr	r3, [fp, #-12]
70031070:	e3a02001 	mov	r2, #1
70031074:	e583200c 	str	r2, [r3, #12]
70031078:	ea00000a 	b	700310a8 <kernel_handler_irq+0xa0>
7003107c:	e51b300c 	ldr	r3, [fp, #-12]
70031080:	e5933030 	ldr	r3, [r3, #48]	; 0x30
70031084:	e2033001 	and	r3, r3, #1
70031088:	e3530000 	cmp	r3, #0
7003108c:	0a000005 	beq	700310a8 <kernel_handler_irq+0xa0>
70031090:	e51b300c 	ldr	r3, [fp, #-12]
70031094:	e3a02001 	mov	r2, #1
70031098:	e583202c 	str	r2, [r3, #44]	; 0x2c
7003109c:	ea000001 	b	700310a8 <kernel_handler_irq+0xa0>
700310a0:	e320f000 	nop	{0}
700310a4:	ea000000 	b	700310ac <kernel_handler_irq+0xa4>
700310a8:	e320f000 	nop	{0}
700310ac:	e3023008 	movw	r3, #8200	; 0x2008
700310b0:	e3473003 	movt	r3, #28675	; 0x7003
700310b4:	e5933000 	ldr	r3, [r3]
700310b8:	e3530001 	cmp	r3, #1
700310bc:	1a000009 	bne	700310e8 <kernel_handler_irq+0xe0>
700310c0:	f1020013 	cps	#19
700310c4:	e3023004 	movw	r3, #8196	; 0x2004
700310c8:	e3473003 	movt	r3, #28675	; 0x7003
700310cc:	e5933000 	ldr	r3, [r3]
700310d0:	e302200c 	movw	r2, #8204	; 0x200c
700310d4:	e3472003 	movt	r2, #28675	; 0x7003
700310d8:	e1a03283 	lsl	r3, r3, #5
700310dc:	e0823003 	add	r3, r2, r3
700310e0:	e593d010 	ldr	sp, [r3, #16]
700310e4:	f1020012 	cps	#18
700310e8:	e51b3008 	ldr	r3, [fp, #-8]
700310ec:	e51b2010 	ldr	r2, [fp, #-16]
700310f0:	e5832010 	str	r2, [r3, #16]
700310f4:	e3023004 	movw	r3, #8196	; 0x2004
700310f8:	e3473003 	movt	r3, #28675	; 0x7003
700310fc:	e5933000 	ldr	r3, [r3]
70031100:	e302200c 	movw	r2, #8204	; 0x200c
70031104:	e3472003 	movt	r2, #28675	; 0x7003
70031108:	e1a03283 	lsl	r3, r3, #5
7003110c:	e0823003 	add	r3, r2, r3
70031110:	e5933018 	ldr	r3, [r3, #24]
70031114:	e1a00003 	mov	r0, r3
70031118:	e24bd004 	sub	sp, fp, #4
7003111c:	e8bd8800 	pop	{fp, pc}

70031120 <__scheduler_init>:
70031120:	e52db004 	push	{fp}		; (str fp, [sp, #-4]!)
70031124:	e28db000 	add	fp, sp, #0
70031128:	e24dd00c 	sub	sp, sp, #12
7003112c:	e3a03000 	mov	r3, #0
70031130:	e50b3008 	str	r3, [fp, #-8]
70031134:	ea00009f 	b	700313b8 <__scheduler_init+0x298>
70031138:	e3a03001 	mov	r3, #1
7003113c:	e50b300c 	str	r3, [fp, #-12]
70031140:	e30230b4 	movw	r3, #8372	; 0x20b4
70031144:	e3473003 	movt	r3, #28675	; 0x7003
70031148:	e51b2008 	ldr	r2, [fp, #-8]
7003114c:	e7931102 	ldr	r1, [r3, r2, lsl #2]
70031150:	e3023078 	movw	r3, #8312	; 0x2078
70031154:	e3473003 	movt	r3, #28675	; 0x7003
70031158:	e51b2008 	ldr	r2, [fp, #-8]
7003115c:	e7932102 	ldr	r2, [r3, r2, lsl #2]
70031160:	e51b300c 	ldr	r3, [fp, #-12]
70031164:	e1a03103 	lsl	r3, r3, #2
70031168:	e2633000 	rsb	r3, r3, #0
7003116c:	e0823003 	add	r3, r2, r3
70031170:	e1a02001 	mov	r2, r1
70031174:	e5832000 	str	r2, [r3]
70031178:	e51b300c 	ldr	r3, [fp, #-12]
7003117c:	e2833001 	add	r3, r3, #1
70031180:	e50b300c 	str	r3, [fp, #-12]
70031184:	ea00000c 	b	700311bc <__scheduler_init+0x9c>
70031188:	e3023078 	movw	r3, #8312	; 0x2078
7003118c:	e3473003 	movt	r3, #28675	; 0x7003
70031190:	e51b2008 	ldr	r2, [fp, #-8]
70031194:	e7932102 	ldr	r2, [r3, r2, lsl #2]
70031198:	e51b300c 	ldr	r3, [fp, #-12]
7003119c:	e1a03103 	lsl	r3, r3, #2
700311a0:	e2633000 	rsb	r3, r3, #0
700311a4:	e0823003 	add	r3, r2, r3
700311a8:	e3a02000 	mov	r2, #0
700311ac:	e5832000 	str	r2, [r3]
700311b0:	e51b300c 	ldr	r3, [fp, #-12]
700311b4:	e2833001 	add	r3, r3, #1
700311b8:	e50b300c 	str	r3, [fp, #-12]
700311bc:	e51b300c 	ldr	r3, [fp, #-12]
700311c0:	e353000e 	cmp	r3, #14
700311c4:	daffffef 	ble	70031188 <__scheduler_init+0x68>
700311c8:	e3023078 	movw	r3, #8312	; 0x2078
700311cc:	e3473003 	movt	r3, #28675	; 0x7003
700311d0:	e51b2008 	ldr	r2, [fp, #-8]
700311d4:	e7932102 	ldr	r2, [r3, r2, lsl #2]
700311d8:	e51b300c 	ldr	r3, [fp, #-12]
700311dc:	e1a03103 	lsl	r3, r3, #2
700311e0:	e2633000 	rsb	r3, r3, #0
700311e4:	e0823003 	add	r3, r2, r3
700311e8:	e3002113 	movw	r2, #275	; 0x113
700311ec:	e5832000 	str	r2, [r3]
700311f0:	e3023090 	movw	r3, #8336	; 0x2090
700311f4:	e3473003 	movt	r3, #28675	; 0x7003
700311f8:	e51b2008 	ldr	r2, [fp, #-8]
700311fc:	e7932102 	ldr	r2, [r3, r2, lsl #2]
70031200:	e51b300c 	ldr	r3, [fp, #-12]
70031204:	e1a03103 	lsl	r3, r3, #2
70031208:	e2633000 	rsb	r3, r3, #0
7003120c:	e2833004 	add	r3, r3, #4
70031210:	e0821003 	add	r1, r2, r3
70031214:	e3023078 	movw	r3, #8312	; 0x2078
70031218:	e3473003 	movt	r3, #28675	; 0x7003
7003121c:	e51b2008 	ldr	r2, [fp, #-8]
70031220:	e7932102 	ldr	r2, [r3, r2, lsl #2]
70031224:	e51b300c 	ldr	r3, [fp, #-12]
70031228:	e2833001 	add	r3, r3, #1
7003122c:	e1a03103 	lsl	r3, r3, #2
70031230:	e2633000 	rsb	r3, r3, #0
70031234:	e0823003 	add	r3, r2, r3
70031238:	e1a02001 	mov	r2, r1
7003123c:	e5832000 	str	r2, [r3]
70031240:	e302306c 	movw	r3, #8300	; 0x206c
70031244:	e3473003 	movt	r3, #28675	; 0x7003
70031248:	e51b2008 	ldr	r2, [fp, #-8]
7003124c:	e7931102 	ldr	r1, [r3, r2, lsl #2]
70031250:	e302300c 	movw	r3, #8204	; 0x200c
70031254:	e3473003 	movt	r3, #28675	; 0x7003
70031258:	e51b2008 	ldr	r2, [fp, #-8]
7003125c:	e7831282 	str	r1, [r3, r2, lsl #5]
70031260:	e302200c 	movw	r2, #8204	; 0x200c
70031264:	e3472003 	movt	r2, #28675	; 0x7003
70031268:	e51b3008 	ldr	r3, [fp, #-8]
7003126c:	e1a03283 	lsl	r3, r3, #5
70031270:	e0823003 	add	r3, r2, r3
70031274:	e51b2008 	ldr	r2, [fp, #-8]
70031278:	e5832004 	str	r2, [r3, #4]
7003127c:	e30230b4 	movw	r3, #8372	; 0x20b4
70031280:	e3473003 	movt	r3, #28675	; 0x7003
70031284:	e51b2008 	ldr	r2, [fp, #-8]
70031288:	e7933102 	ldr	r3, [r3, r2, lsl #2]
7003128c:	e1a01003 	mov	r1, r3
70031290:	e302200c 	movw	r2, #8204	; 0x200c
70031294:	e3472003 	movt	r2, #28675	; 0x7003
70031298:	e51b3008 	ldr	r3, [fp, #-8]
7003129c:	e1a03283 	lsl	r3, r3, #5
700312a0:	e0823003 	add	r3, r2, r3
700312a4:	e5831008 	str	r1, [r3, #8]
700312a8:	e3023084 	movw	r3, #8324	; 0x2084
700312ac:	e3473003 	movt	r3, #28675	; 0x7003
700312b0:	e51b2008 	ldr	r2, [fp, #-8]
700312b4:	e7933102 	ldr	r3, [r3, r2, lsl #2]
700312b8:	e1a01003 	mov	r1, r3
700312bc:	e302200c 	movw	r2, #8204	; 0x200c
700312c0:	e3472003 	movt	r2, #28675	; 0x7003
700312c4:	e51b3008 	ldr	r3, [fp, #-8]
700312c8:	e1a03283 	lsl	r3, r3, #5
700312cc:	e0823003 	add	r3, r2, r3
700312d0:	e583100c 	str	r1, [r3, #12]
700312d4:	e302309c 	movw	r3, #8348	; 0x209c
700312d8:	e3473003 	movt	r3, #28675	; 0x7003
700312dc:	e51b2008 	ldr	r2, [fp, #-8]
700312e0:	e7933102 	ldr	r3, [r3, r2, lsl #2]
700312e4:	e1a01003 	mov	r1, r3
700312e8:	e302200c 	movw	r2, #8204	; 0x200c
700312ec:	e3472003 	movt	r2, #28675	; 0x7003
700312f0:	e51b3008 	ldr	r3, [fp, #-8]
700312f4:	e1a03283 	lsl	r3, r3, #5
700312f8:	e0823003 	add	r3, r2, r3
700312fc:	e5831010 	str	r1, [r3, #16]
70031300:	e3023078 	movw	r3, #8312	; 0x2078
70031304:	e3473003 	movt	r3, #28675	; 0x7003
70031308:	e51b2008 	ldr	r2, [fp, #-8]
7003130c:	e7932102 	ldr	r2, [r3, r2, lsl #2]
70031310:	e51b300c 	ldr	r3, [fp, #-12]
70031314:	e2833001 	add	r3, r3, #1
70031318:	e1a03103 	lsl	r3, r3, #2
7003131c:	e2633000 	rsb	r3, r3, #0
70031320:	e0823003 	add	r3, r2, r3
70031324:	e1a01003 	mov	r1, r3
70031328:	e302200c 	movw	r2, #8204	; 0x200c
7003132c:	e3472003 	movt	r2, #28675	; 0x7003
70031330:	e51b3008 	ldr	r3, [fp, #-8]
70031334:	e1a03283 	lsl	r3, r3, #5
70031338:	e0823003 	add	r3, r2, r3
7003133c:	e5831014 	str	r1, [r3, #20]
70031340:	e3023090 	movw	r3, #8336	; 0x2090
70031344:	e3473003 	movt	r3, #28675	; 0x7003
70031348:	e51b2008 	ldr	r2, [fp, #-8]
7003134c:	e7932102 	ldr	r2, [r3, r2, lsl #2]
70031350:	e51b300c 	ldr	r3, [fp, #-12]
70031354:	e2833001 	add	r3, r3, #1
70031358:	e1a03103 	lsl	r3, r3, #2
7003135c:	e2633000 	rsb	r3, r3, #0
70031360:	e0823003 	add	r3, r2, r3
70031364:	e1a01003 	mov	r1, r3
70031368:	e302200c 	movw	r2, #8204	; 0x200c
7003136c:	e3472003 	movt	r2, #28675	; 0x7003
70031370:	e51b3008 	ldr	r3, [fp, #-8]
70031374:	e1a03283 	lsl	r3, r3, #5
70031378:	e0823003 	add	r3, r2, r3
7003137c:	e5831018 	str	r1, [r3, #24]
70031380:	e30230a8 	movw	r3, #8360	; 0x20a8
70031384:	e3473003 	movt	r3, #28675	; 0x7003
70031388:	e51b2008 	ldr	r2, [fp, #-8]
7003138c:	e7933102 	ldr	r3, [r3, r2, lsl #2]
70031390:	e1a01003 	mov	r1, r3
70031394:	e302200c 	movw	r2, #8204	; 0x200c
70031398:	e3472003 	movt	r2, #28675	; 0x7003
7003139c:	e51b3008 	ldr	r3, [fp, #-8]
700313a0:	e1a03283 	lsl	r3, r3, #5
700313a4:	e0823003 	add	r3, r2, r3
700313a8:	e583101c 	str	r1, [r3, #28]
700313ac:	e51b3008 	ldr	r3, [fp, #-8]
700313b0:	e2833001 	add	r3, r3, #1
700313b4:	e50b3008 	str	r3, [fp, #-8]
700313b8:	e51b3008 	ldr	r3, [fp, #-8]
700313bc:	e3530002 	cmp	r3, #2
700313c0:	daffff5c 	ble	70031138 <__scheduler_init+0x18>
700313c4:	e320f000 	nop	{0}
700313c8:	e28bd000 	add	sp, fp, #0
700313cc:	e49db004 	pop	{fp}		; (ldr fp, [sp], #4)
700313d0:	e12fff1e 	bx	lr

700313d4 <scheduler_c>:
700313d4:	e92d4800 	push	{fp, lr}
700313d8:	e28db004 	add	fp, sp, #4
700313dc:	e24dd008 	sub	sp, sp, #8
700313e0:	e50b0008 	str	r0, [fp, #-8]
700313e4:	e3023000 	movw	r3, #8192	; 0x2000
700313e8:	e3473003 	movt	r3, #28675	; 0x7003
700313ec:	e5933000 	ldr	r3, [r3]
700313f0:	e2832001 	add	r2, r3, #1
700313f4:	e3023000 	movw	r3, #8192	; 0x2000
700313f8:	e3473003 	movt	r3, #28675	; 0x7003
700313fc:	e5832000 	str	r2, [r3]
70031400:	e3023004 	movw	r3, #8196	; 0x2004
70031404:	e3473003 	movt	r3, #28675	; 0x7003
70031408:	e5932000 	ldr	r2, [r3]
7003140c:	e302300c 	movw	r3, #8204	; 0x200c
70031410:	e3473003 	movt	r3, #28675	; 0x7003
70031414:	e7932282 	ldr	r2, [r3, r2, lsl #5]
70031418:	e3023000 	movw	r3, #8192	; 0x2000
7003141c:	e3473003 	movt	r3, #28675	; 0x7003
70031420:	e5933000 	ldr	r3, [r3]
70031424:	e1520003 	cmp	r2, r3
70031428:	aa00003a 	bge	70031518 <scheduler_c+0x144>
7003142c:	e3023004 	movw	r3, #8196	; 0x2004
70031430:	e3473003 	movt	r3, #28675	; 0x7003
70031434:	e5933000 	ldr	r3, [r3]
70031438:	e51b1008 	ldr	r1, [fp, #-8]
7003143c:	e302200c 	movw	r2, #8204	; 0x200c
70031440:	e3472003 	movt	r2, #28675	; 0x7003
70031444:	e1a03283 	lsl	r3, r3, #5
70031448:	e0823003 	add	r3, r2, r3
7003144c:	e5831018 	str	r1, [r3, #24]
70031450:	f1020013 	cps	#19
70031454:	e3023004 	movw	r3, #8196	; 0x2004
70031458:	e3473003 	movt	r3, #28675	; 0x7003
7003145c:	e5933000 	ldr	r3, [r3]
70031460:	e302200c 	movw	r2, #8204	; 0x200c
70031464:	e3472003 	movt	r2, #28675	; 0x7003
70031468:	e1a03283 	lsl	r3, r3, #5
7003146c:	e0823003 	add	r3, r2, r3
70031470:	e583d010 	str	sp, [r3, #16]
70031474:	f1020012 	cps	#18
70031478:	e3023008 	movw	r3, #8200	; 0x2008
7003147c:	e3473003 	movt	r3, #28675	; 0x7003
70031480:	e3a02001 	mov	r2, #1
70031484:	e5832000 	str	r2, [r3]
70031488:	e3023000 	movw	r3, #8192	; 0x2000
7003148c:	e3473003 	movt	r3, #28675	; 0x7003
70031490:	e3a02000 	mov	r2, #0
70031494:	e5832000 	str	r2, [r3]
70031498:	e3023004 	movw	r3, #8196	; 0x2004
7003149c:	e3473003 	movt	r3, #28675	; 0x7003
700314a0:	e5933000 	ldr	r3, [r3]
700314a4:	e2831001 	add	r1, r3, #1
700314a8:	e3053556 	movw	r3, #21846	; 0x5556
700314ac:	e3453555 	movt	r3, #21845	; 0x5555
700314b0:	e0c23193 	smull	r3, r2, r3, r1
700314b4:	e1a03fc1 	asr	r3, r1, #31
700314b8:	e0422003 	sub	r2, r2, r3
700314bc:	e1a03002 	mov	r3, r2
700314c0:	e1a03083 	lsl	r3, r3, #1
700314c4:	e0833002 	add	r3, r3, r2
700314c8:	e0412003 	sub	r2, r1, r3
700314cc:	e302100c 	movw	r1, #8204	; 0x200c
700314d0:	e3471003 	movt	r1, #28675	; 0x7003
700314d4:	e1a03282 	lsl	r3, r2, #5
700314d8:	e0813003 	add	r3, r1, r3
700314dc:	e5932004 	ldr	r2, [r3, #4]
700314e0:	e3023004 	movw	r3, #8196	; 0x2004
700314e4:	e3473003 	movt	r3, #28675	; 0x7003
700314e8:	e5832000 	str	r2, [r3]
700314ec:	e3023004 	movw	r3, #8196	; 0x2004
700314f0:	e3473003 	movt	r3, #28675	; 0x7003
700314f4:	e5933000 	ldr	r3, [r3]
700314f8:	e302200c 	movw	r2, #8204	; 0x200c
700314fc:	e3472003 	movt	r2, #28675	; 0x7003
70031500:	e1a03283 	lsl	r3, r3, #5
70031504:	e0823003 	add	r3, r2, r3
70031508:	e593301c 	ldr	r3, [r3, #28]
7003150c:	e1a00003 	mov	r0, r3
70031510:	ebfffb18 	bl	70030178 <MMU_Set_TTBR0>
70031514:	ea000003 	b	70031528 <scheduler_c+0x154>
70031518:	e3023008 	movw	r3, #8200	; 0x2008
7003151c:	e3473003 	movt	r3, #28675	; 0x7003
70031520:	e3a02000 	mov	r2, #0
70031524:	e5832000 	str	r2, [r3]
70031528:	e320f000 	nop	{0}
7003152c:	e24bd004 	sub	sp, fp, #4
70031530:	e8bd8800 	pop	{fp, pc}

Disassembly of section .kernel_data:

70032000 <ticks>:
70032000:	00000000 	andeq	r0, r0, r0

70032004 <current_task>:
70032004:	00000000 	andeq	r0, r0, r0

70032008 <task_switch>:
70032008:	00000000 	andeq	r0, r0, r0

7003200c <tcb_tareas>:
	...

7003206c <ticks_task>:
7003206c:	00000005 	andeq	r0, r0, r5
70032070:	00000008 	andeq	r0, r0, r8
70032074:	0000000c 	andeq	r0, r0, ip

70032078 <task_mem_irq_phy>:
70032078:	70020080 	andvc	r0, r2, r0, lsl #1
7003207c:	80742080 	rsbshi	r2, r4, r0, lsl #1
70032080:	80752080 	rsbshi	r2, r5, r0, lsl #1

70032084 <task_mem_svc_phy>:
70032084:	70020500 	andvc	r0, r2, r0, lsl #10
70032088:	80742500 	rsbshi	r2, r4, r0, lsl #10
7003208c:	80752500 	rsbshi	r2, r5, r0, lsl #10

70032090 <task_mem_irq_vma>:
70032090:	70020080 	andvc	r0, r2, r0, lsl #1
70032094:	70f52080 	rscsvc	r2, r5, r0, lsl #1
70032098:	70f42080 	rscsvc	r2, r4, r0, lsl #1

7003209c <task_mem_svc_vma>:
7003209c:	70020500 	andvc	r0, r2, r0, lsl #10
700320a0:	70f52500 	rscsvc	r2, r5, r0, lsl #10
700320a4:	70f42500 	rscsvc	r2, r4, r0, lsl #10

700320a8 <task_ttbr0>:
700320a8:	70080000 	andvc	r0, r8, r0
700320ac:	70480000 	subvc	r0, r8, r0
700320b0:	70880000 	addvc	r0, r8, r0

700320b4 <funciones>:
700320b4:	70034000 	andvc	r4, r3, r0
700320b8:	70f50000 	rscsvc	r0, r5, r0
700320bc:	70f40000 	rscsvc	r0, r4, r0

Disassembly of section .txt_tarea_idle:

70034000 <__tarea_idle>:
70034000:	e52db004 	push	{fp}		; (str fp, [sp, #-4]!)
70034004:	e28db000 	add	fp, sp, #0
70034008:	e320f003 	wfi
7003400c:	eafffffd 	b	70034008 <__tarea_idle+0x8>

Disassembly of section .txt_tarea_1:

70f50000 <__tarea_1>:
70f50000:	e52db004 	push	{fp}		; (str fp, [sp, #-4]!)
70f50004:	e28db000 	add	fp, sp, #0
70f50008:	e24dd014 	sub	sp, sp, #20
70f5000c:	e3a03000 	mov	r3, #0
70f50010:	e50b3008 	str	r3, [fp, #-8]
70f50014:	e3a03000 	mov	r3, #0
70f50018:	e50b300c 	str	r3, [fp, #-12]
70f5001c:	e3a03000 	mov	r3, #0
70f50020:	e50b3010 	str	r3, [fp, #-16]
70f50024:	e3a03000 	mov	r3, #0
70f50028:	e50b3008 	str	r3, [fp, #-8]
70f5002c:	ea000024 	b	70f500c4 <__tarea_1+0xc4>
70f50030:	e51b3008 	ldr	r3, [fp, #-8]
70f50034:	e1a02103 	lsl	r2, r3, #2
70f50038:	e3003000 	movw	r3, #0
70f5003c:	e34730a0 	movt	r3, #28832	; 0x70a0
70f50040:	e0823003 	add	r3, r2, r3
70f50044:	e5933000 	ldr	r3, [r3]
70f50048:	e50b300c 	str	r3, [fp, #-12]
70f5004c:	e51b3008 	ldr	r3, [fp, #-8]
70f50050:	e1a02103 	lsl	r2, r3, #2
70f50054:	e3003000 	movw	r3, #0
70f50058:	e34730a0 	movt	r3, #28832	; 0x70a0
70f5005c:	e0822003 	add	r2, r2, r3
70f50060:	e30535aa 	movw	r3, #21930	; 0x55aa
70f50064:	e34535aa 	movt	r3, #21930	; 0x55aa
70f50068:	e5823000 	str	r3, [r2]
70f5006c:	e51b3008 	ldr	r3, [fp, #-8]
70f50070:	e1a02103 	lsl	r2, r3, #2
70f50074:	e3003000 	movw	r3, #0
70f50078:	e34730a0 	movt	r3, #28832	; 0x70a0
70f5007c:	e0823003 	add	r3, r2, r3
70f50080:	e5933000 	ldr	r3, [r3]
70f50084:	e50b3010 	str	r3, [fp, #-16]
70f50088:	e51b2010 	ldr	r2, [fp, #-16]
70f5008c:	e30535aa 	movw	r3, #21930	; 0x55aa
70f50090:	e34535aa 	movt	r3, #21930	; 0x55aa
70f50094:	e1520003 	cmp	r2, r3
70f50098:	1a000006 	bne	70f500b8 <__tarea_1+0xb8>
70f5009c:	e51b3008 	ldr	r3, [fp, #-8]
70f500a0:	e1a02103 	lsl	r2, r3, #2
70f500a4:	e3003000 	movw	r3, #0
70f500a8:	e34730a0 	movt	r3, #28832	; 0x70a0
70f500ac:	e0823003 	add	r3, r2, r3
70f500b0:	e51b200c 	ldr	r2, [fp, #-12]
70f500b4:	e5832000 	str	r2, [r3]
70f500b8:	e51b3008 	ldr	r3, [fp, #-8]
70f500bc:	e2833001 	add	r3, r3, #1
70f500c0:	e50b3008 	str	r3, [fp, #-8]
70f500c4:	e51b3008 	ldr	r3, [fp, #-8]
70f500c8:	e3530901 	cmp	r3, #16384	; 0x4000
70f500cc:	baffffd7 	blt	70f50030 <__tarea_1+0x30>
70f500d0:	e3a03000 	mov	r3, #0
70f500d4:	e50b3008 	str	r3, [fp, #-8]
70f500d8:	eaffffd1 	b	70f50024 <__tarea_1+0x24>

Disassembly of section .txt_tarea_2:

70f40000 <__tarea_2>:
70f40000:	e52db004 	push	{fp}		; (str fp, [sp, #-4]!)
70f40004:	e28db000 	add	fp, sp, #0
70f40008:	e24dd00c 	sub	sp, sp, #12
70f4000c:	e3a03000 	mov	r3, #0
70f40010:	e50b3008 	str	r3, [fp, #-8]
70f40014:	e3a03000 	mov	r3, #0
70f40018:	e50b3008 	str	r3, [fp, #-8]
70f4001c:	ea00000f 	b	70f40060 <__tarea_2+0x60>
70f40020:	e51b3008 	ldr	r3, [fp, #-8]
70f40024:	e1a02103 	lsl	r2, r3, #2
70f40028:	e3003000 	movw	r3, #0
70f4002c:	e34730a1 	movt	r3, #28833	; 0x70a1
70f40030:	e0823003 	add	r3, r2, r3
70f40034:	e5932000 	ldr	r2, [r3]
70f40038:	e51b3008 	ldr	r3, [fp, #-8]
70f4003c:	e1a01103 	lsl	r1, r3, #2
70f40040:	e3003000 	movw	r3, #0
70f40044:	e34730a1 	movt	r3, #28833	; 0x70a1
70f40048:	e0813003 	add	r3, r1, r3
70f4004c:	e1e02002 	mvn	r2, r2
70f40050:	e5832000 	str	r2, [r3]
70f40054:	e51b3008 	ldr	r3, [fp, #-8]
70f40058:	e2833001 	add	r3, r3, #1
70f4005c:	e50b3008 	str	r3, [fp, #-8]
70f40060:	e51b3008 	ldr	r3, [fp, #-8]
70f40064:	e3530901 	cmp	r3, #16384	; 0x4000
70f40068:	baffffec 	blt	70f40020 <__tarea_2+0x20>
70f4006c:	e3a03000 	mov	r3, #0
70f40070:	e50b3008 	str	r3, [fp, #-8]
70f40074:	eaffffe6 	b	70f40014 <__tarea_2+0x14>

Disassembly of section .stack:

70020000 <__stack_start__>:
	...

70020080 <__irq_stack_top__>:
	...

70020100 <__fiq_stack_top__>:
	...

70020180 <__svc_stack_top__>:
	...

70020200 <__abt_stack_top__>:
	...

70020280 <__und_stack_top__>:
	...

Disassembly of section .ARM.attributes:

00000000 <.ARM.attributes>:
   0:	00002d41 	andeq	r2, r0, r1, asr #26
   4:	61656100 	cmnvs	r5, r0, lsl #2
   8:	01006962 	tsteq	r0, r2, ror #18
   c:	00000023 	andeq	r0, r0, r3, lsr #32
  10:	4d524105 	ldfmie	f4, [r2, #-20]	; 0xffffffec
  14:	00377620 	eorseq	r7, r7, r0, lsr #12
  18:	41070a06 	tstmi	r7, r6, lsl #20
  1c:	02090108 	andeq	r0, r9, #8, 2
  20:	01140412 	tsteq	r4, r2, lsl r4
  24:	03170115 	tsteq	r7, #1073741829	; 0x40000005
  28:	011a0118 	tsteq	sl, r8, lsl r1
  2c:	Address 0x000000000000002c is out of bounds.


Disassembly of section .comment:

00000000 <.comment>:
   0:	3a434347 	bcc	10d0d24 <__kernel_size__+0x10cf7f0>
   4:	4e472820 	cdpmi	8, 4, cr2, cr7, cr0, {1}
   8:	38202955 	stmdacc	r0!, {r0, r2, r4, r6, r8, fp, sp}
   c:	302e322e 	eorcc	r3, lr, lr, lsr #4
	...

Disassembly of section .debug_info:

00000000 <.debug_info>:
       0:	00000671 	andeq	r0, r0, r1, ror r6
       4:	00000004 	andeq	r0, r0, r4
       8:	01040000 	mrseq	r0, (UNDEF: 4)
       c:	00000287 	andeq	r0, r0, r7, lsl #5
      10:	00009a0c 	andeq	r9, r0, ip, lsl #20
      14:	00095f00 	andeq	r5, r9, r0, lsl #30
	...
      24:	05040200 	streq	r0, [r4, #-512]	; 0xfffffe00
      28:	00746e69 	rsbseq	r6, r4, r9, ror #28
      2c:	99070403 	stmdbls	r7, {r0, r1, sl}
      30:	03000005 	movweq	r0, #5
      34:	05290601 	streq	r0, [r9, #-1537]!	; 0xfffff9ff
      38:	01030000 	mrseq	r0, (UNDEF: 3)
      3c:	00052708 	andeq	r2, r5, r8, lsl #14
      40:	05020300 	streq	r0, [r2, #-768]	; 0xfffffd00
      44:	000000a7 	andeq	r0, r0, r7, lsr #1
      48:	fe070203 	cdp2	2, 0, cr0, cr7, cr3, {0}
      4c:	03000005 	movweq	r0, #5
      50:	039a0504 	orrseq	r0, sl, #4, 10	; 0x1000000
      54:	64040000 	strvs	r0, [r4], #-0
      58:	02000001 	andeq	r0, r0, #1
      5c:	0062194f 	rsbeq	r1, r2, pc, asr #18
      60:	04030000 	streq	r0, [r3], #-0
      64:	00059407 	andeq	r9, r5, r7, lsl #8
      68:	05080300 	streq	r0, [r8, #-768]	; 0xfffffd00
      6c:	00000395 	muleq	r0, r5, r3
      70:	8f070803 	svchi	0x00070803
      74:	04000005 	streq	r0, [r0], #-5
      78:	00000166 	andeq	r0, r0, r6, ror #2
      7c:	56143003 	ldrpl	r3, [r4], -r3
      80:	05000000 	streq	r0, [r0, #-0]
      84:	000006ea 	andeq	r0, r0, sl, ror #13
      88:	77110804 	ldrvc	r0, [r1, -r4, lsl #16]
      8c:	05000000 	streq	r0, [r0, #-0]
      90:	00000109 	andeq	r0, r0, r9, lsl #2
      94:	77110904 	ldrvc	r0, [r1, -r4, lsl #18]
      98:	05000000 	streq	r0, [r0, #-0]
      9c:	0000012f 	andeq	r0, r0, pc, lsr #2
      a0:	77110a04 	ldrvc	r0, [r1, -r4, lsl #20]
      a4:	05000000 	streq	r0, [r0, #-0]
      a8:	0000079d 	muleq	r0, sp, r7
      ac:	77110b04 	ldrvc	r0, [r1, -r4, lsl #22]
      b0:	05000000 	streq	r0, [r0, #-0]
      b4:	00000155 	andeq	r0, r0, r5, asr r1
      b8:	77110d04 	ldrvc	r0, [r1, -r4, lsl #26]
      bc:	05000000 	streq	r0, [r0, #-0]
      c0:	000006c8 	andeq	r0, r0, r8, asr #13
      c4:	77110e04 	ldrvc	r0, [r1, -r4, lsl #28]
      c8:	05000000 	streq	r0, [r0, #-0]
      cc:	000002d9 	ldrdeq	r0, [r0], -r9
      d0:	77110f04 	ldrvc	r0, [r1, -r4, lsl #30]
      d4:	05000000 	streq	r0, [r0, #-0]
      d8:	00000676 	andeq	r0, r0, r6, ror r6
      dc:	77111004 	ldrvc	r1, [r1, -r4]
      e0:	05000000 	streq	r0, [r0, #-0]
      e4:	000008f7 	strdeq	r0, [r0], -r7
      e8:	77111104 	ldrvc	r1, [r1, -r4, lsl #2]
      ec:	05000000 	streq	r0, [r0, #-0]
      f0:	00000627 	andeq	r0, r0, r7, lsr #12
      f4:	77111204 	ldrvc	r1, [r1, -r4, lsl #4]
      f8:	05000000 	streq	r0, [r0, #-0]
      fc:	00000236 	andeq	r0, r0, r6, lsr r2
     100:	77111404 	ldrvc	r1, [r1, -r4, lsl #8]
     104:	05000000 	streq	r0, [r0, #-0]
     108:	00000515 	andeq	r0, r0, r5, lsl r5
     10c:	77111504 	ldrvc	r1, [r1, -r4, lsl #10]
     110:	05000000 	streq	r0, [r0, #-0]
     114:	0000057d 	andeq	r0, r0, sp, ror r5
     118:	77111604 	ldrvc	r1, [r1, -r4, lsl #12]
     11c:	05000000 	streq	r0, [r0, #-0]
     120:	000002db 	ldrdeq	r0, [r0], -fp
     124:	77111b04 	ldrvc	r1, [r1, -r4, lsl #22]
     128:	05000000 	streq	r0, [r0, #-0]
     12c:	0000004b 	andeq	r0, r0, fp, asr #32
     130:	77112004 	ldrvc	r2, [r1, -r4]
     134:	05000000 	streq	r0, [r0, #-0]
     138:	000004ac 	andeq	r0, r0, ip, lsr #9
     13c:	77112204 	ldrvc	r2, [r1, -r4, lsl #4]
     140:	05000000 	streq	r0, [r0, #-0]
     144:	0000036e 	andeq	r0, r0, lr, ror #6
     148:	77112404 	ldrvc	r2, [r1, -r4, lsl #8]
     14c:	05000000 	streq	r0, [r0, #-0]
     150:	0000069c 	muleq	r0, ip, r6
     154:	77112704 	ldrvc	r2, [r1, -r4, lsl #14]
     158:	05000000 	streq	r0, [r0, #-0]
     15c:	00000324 	andeq	r0, r0, r4, lsr #6
     160:	77112804 	ldrvc	r2, [r1, -r4, lsl #16]
     164:	05000000 	streq	r0, [r0, #-0]
     168:	00000931 	andeq	r0, r0, r1, lsr r9
     16c:	77112904 	ldrvc	r2, [r1, -r4, lsl #18]
     170:	05000000 	streq	r0, [r0, #-0]
     174:	00000355 	andeq	r0, r0, r5, asr r3
     178:	77112a04 	ldrvc	r2, [r1, -r4, lsl #20]
     17c:	05000000 	streq	r0, [r0, #-0]
     180:	00000077 	andeq	r0, r0, r7, ror r0
     184:	77112c04 	ldrvc	r2, [r1, -r4, lsl #24]
     188:	05000000 	streq	r0, [r0, #-0]
     18c:	000008b4 			; <UNDEFINED> instruction: 0x000008b4
     190:	77112e04 	ldrvc	r2, [r1, -r4, lsl #28]
     194:	05000000 	streq	r0, [r0, #-0]
     198:	000009a6 	andeq	r0, r0, r6, lsr #19
     19c:	77112f04 	ldrvc	r2, [r1, -r4, lsl #30]
     1a0:	05000000 	streq	r0, [r0, #-0]
     1a4:	000003d0 	ldrdeq	r0, [r0], -r0	; <UNPREDICTABLE>
     1a8:	77113004 	ldrvc	r3, [r1, -r4]
     1ac:	05000000 	streq	r0, [r0, #-0]
     1b0:	000003a3 	andeq	r0, r0, r3, lsr #7
     1b4:	77113104 	ldrvc	r3, [r1, -r4, lsl #2]
     1b8:	05000000 	streq	r0, [r0, #-0]
     1bc:	000006b2 			; <UNDEFINED> instruction: 0x000006b2
     1c0:	77113204 	ldrvc	r3, [r1, -r4, lsl #4]
     1c4:	05000000 	streq	r0, [r0, #-0]
     1c8:	00000008 	andeq	r0, r0, r8
     1cc:	77113604 	ldrvc	r3, [r1, -r4, lsl #12]
     1d0:	05000000 	streq	r0, [r0, #-0]
     1d4:	00000494 	muleq	r0, r4, r4
     1d8:	77113704 	ldrvc	r3, [r1, -r4, lsl #14]
     1dc:	05000000 	streq	r0, [r0, #-0]
     1e0:	000007ac 	andeq	r0, r0, ip, lsr #15
     1e4:	77113804 	ldrvc	r3, [r1, -r4, lsl #16]
     1e8:	05000000 	streq	r0, [r0, #-0]
     1ec:	0000005c 	andeq	r0, r0, ip, asr r0
     1f0:	77113c04 	ldrvc	r3, [r1, -r4, lsl #24]
     1f4:	05000000 	streq	r0, [r0, #-0]
     1f8:	0000072a 	andeq	r0, r0, sl, lsr #14
     1fc:	77113e04 	ldrvc	r3, [r1, -r4, lsl #28]
     200:	05000000 	streq	r0, [r0, #-0]
     204:	00000636 	andeq	r0, r0, r6, lsr r6
     208:	77113f04 	ldrvc	r3, [r1, -r4, lsl #30]
     20c:	05000000 	streq	r0, [r0, #-0]
     210:	00000274 	andeq	r0, r0, r4, ror r2
     214:	77114004 	ldrvc	r4, [r1, -r4]
     218:	05000000 	streq	r0, [r0, #-0]
     21c:	0000011a 	andeq	r0, r0, sl, lsl r1
     220:	77114104 	ldrvc	r4, [r1, -r4, lsl #2]
     224:	05000000 	streq	r0, [r0, #-0]
     228:	00000751 	andeq	r0, r0, r1, asr r7
     22c:	77114304 	ldrvc	r4, [r1, -r4, lsl #6]
     230:	05000000 	streq	r0, [r0, #-0]
     234:	000001bc 			; <UNDEFINED> instruction: 0x000001bc
     238:	77114404 	ldrvc	r4, [r1, -r4, lsl #8]
     23c:	05000000 	streq	r0, [r0, #-0]
     240:	0000091e 	andeq	r0, r0, lr, lsl r9
     244:	77114504 	ldrvc	r4, [r1, -r4, lsl #10]
     248:	05000000 	streq	r0, [r0, #-0]
     24c:	00000788 	andeq	r0, r0, r8, lsl #15
     250:	77114604 	ldrvc	r4, [r1, -r4, lsl #12]
     254:	05000000 	streq	r0, [r0, #-0]
     258:	000002e8 	andeq	r0, r0, r8, ror #5
     25c:	77114804 	ldrvc	r4, [r1, -r4, lsl #16]
     260:	05000000 	streq	r0, [r0, #-0]
     264:	000006d7 	ldrdeq	r0, [r0], -r7
     268:	77114904 	ldrvc	r4, [r1, -r4, lsl #18]
     26c:	05000000 	streq	r0, [r0, #-0]
     270:	0000084b 	andeq	r0, r0, fp, asr #16
     274:	77114b04 	ldrvc	r4, [r1, -r4, lsl #22]
     278:	05000000 	streq	r0, [r0, #-0]
     27c:	00000948 	andeq	r0, r0, r8, asr #18
     280:	77114c04 	ldrvc	r4, [r1, -r4, lsl #24]
     284:	05000000 	streq	r0, [r0, #-0]
     288:	000003b9 			; <UNDEFINED> instruction: 0x000003b9
     28c:	77114d04 	ldrvc	r4, [r1, -r4, lsl #26]
     290:	05000000 	streq	r0, [r0, #-0]
     294:	0000030d 	andeq	r0, r0, sp, lsl #6
     298:	77114e04 	ldrvc	r4, [r1, -r4, lsl #28]
     29c:	05000000 	streq	r0, [r0, #-0]
     2a0:	0000065f 	andeq	r0, r0, pc, asr r6
     2a4:	77114f04 	ldrvc	r4, [r1, -r4, lsl #30]
     2a8:	05000000 	streq	r0, [r0, #-0]
     2ac:	00000648 	andeq	r0, r0, r8, asr #12
     2b0:	77115104 	ldrvc	r5, [r1, -r4, lsl #2]
     2b4:	05000000 	streq	r0, [r0, #-0]
     2b8:	0000024b 	andeq	r0, r0, fp, asr #4
     2bc:	77115204 	ldrvc	r5, [r1, -r4, lsl #4]
     2c0:	05000000 	streq	r0, [r0, #-0]
     2c4:	00000685 	andeq	r0, r0, r5, lsl #13
     2c8:	77115304 	ldrvc	r5, [r1, -r4, lsl #6]
     2cc:	05000000 	streq	r0, [r0, #-0]
     2d0:	0000016f 	andeq	r0, r0, pc, ror #2
     2d4:	77115404 	ldrvc	r5, [r1, -r4, lsl #8]
     2d8:	05000000 	streq	r0, [r0, #-0]
     2dc:	0000054b 	andeq	r0, r0, fp, asr #10
     2e0:	77115504 	ldrvc	r5, [r1, -r4, lsl #10]
     2e4:	05000000 	streq	r0, [r0, #-0]
     2e8:	00000562 	andeq	r0, r0, r2, ror #10
     2ec:	77115704 	ldrvc	r5, [r1, -r4, lsl #14]
     2f0:	05000000 	streq	r0, [r0, #-0]
     2f4:	000009fa 	strdeq	r0, [r0], -sl
     2f8:	77115804 	ldrvc	r5, [r1, -r4, lsl #16]
     2fc:	05000000 	streq	r0, [r0, #-0]
     300:	000007ff 	strdeq	r0, [r0], -pc	; <UNPREDICTABLE>
     304:	77115c04 	ldrvc	r5, [r1, -r4, lsl #24]
     308:	05000000 	streq	r0, [r0, #-0]
     30c:	0000083b 	andeq	r0, r0, fp, lsr r8
     310:	77115d04 	ldrvc	r5, [r1, -r4, lsl #26]
     314:	05000000 	streq	r0, [r0, #-0]
     318:	0000020d 	andeq	r0, r0, sp, lsl #4
     31c:	77115f04 	ldrvc	r5, [r1, -r4, lsl #30]
     320:	05000000 	streq	r0, [r0, #-0]
     324:	000000e1 	andeq	r0, r0, r1, ror #1
     328:	77116004 	ldrvc	r6, [r1, -r4]
     32c:	05000000 	streq	r0, [r0, #-0]
     330:	000001aa 	andeq	r0, r0, sl, lsr #3
     334:	77116204 	ldrvc	r6, [r1, -r4, lsl #4]
     338:	05000000 	streq	r0, [r0, #-0]
     33c:	000004d4 	ldrdeq	r0, [r0], -r4
     340:	77116304 	ldrvc	r6, [r1, -r4, lsl #6]
     344:	05000000 	streq	r0, [r0, #-0]
     348:	000000f5 	strdeq	r0, [r0], -r5
     34c:	77116504 	ldrvc	r6, [r1, -r4, lsl #10]
     350:	05000000 	streq	r0, [r0, #-0]
     354:	000004e9 	andeq	r0, r0, r9, ror #9
     358:	77116604 	ldrvc	r6, [r1, -r4, lsl #12]
     35c:	05000000 	streq	r0, [r0, #-0]
     360:	00000779 	andeq	r0, r0, r9, ror r7
     364:	77116804 	ldrvc	r6, [r1, -r4, lsl #16]
     368:	05000000 	streq	r0, [r0, #-0]
     36c:	000005db 	ldrdeq	r0, [r0], -fp
     370:	77116904 	ldrvc	r6, [r1, -r4, lsl #18]
     374:	05000000 	streq	r0, [r0, #-0]
     378:	00000482 	andeq	r0, r0, r2, lsl #9
     37c:	77116b04 	ldrvc	r6, [r1, -r4, lsl #22]
     380:	05000000 	streq	r0, [r0, #-0]
     384:	00000862 	andeq	r0, r0, r2, ror #16
     388:	77116c04 	ldrvc	r6, [r1, -r4, lsl #24]
     38c:	05000000 	streq	r0, [r0, #-0]
     390:	00000186 	andeq	r0, r0, r6, lsl #3
     394:	77116e04 	ldrvc	r6, [r1, -r4, lsl #28]
     398:	05000000 	streq	r0, [r0, #-0]
     39c:	00000500 	andeq	r0, r0, r0, lsl #10
     3a0:	77116f04 	ldrvc	r6, [r1, -r4, lsl #30]
     3a4:	05000000 	streq	r0, [r0, #-0]
     3a8:	00000a15 	andeq	r0, r0, r5, lsl sl
     3ac:	77117104 	ldrvc	r7, [r1, -r4, lsl #2]
     3b0:	05000000 	streq	r0, [r0, #-0]
     3b4:	00000611 	andeq	r0, r0, r1, lsl r6
     3b8:	77117204 	ldrvc	r7, [r1, -r4, lsl #4]
     3bc:	05000000 	streq	r0, [r0, #-0]
     3c0:	000009bc 			; <UNDEFINED> instruction: 0x000009bc
     3c4:	77117404 	ldrvc	r7, [r1, -r4, lsl #8]
     3c8:	05000000 	streq	r0, [r0, #-0]
     3cc:	00000906 	andeq	r0, r0, r6, lsl #18
     3d0:	77117504 	ldrvc	r7, [r1, -r4, lsl #10]
     3d4:	05000000 	streq	r0, [r0, #-0]
     3d8:	000001e5 	andeq	r0, r0, r5, ror #3
     3dc:	77117704 	ldrvc	r7, [r1, -r4, lsl #14]
     3e0:	05000000 	streq	r0, [r0, #-0]
     3e4:	00000715 	andeq	r0, r0, r5, lsl r7
     3e8:	77117804 	ldrvc	r7, [r1, -r4, lsl #16]
     3ec:	05000000 	streq	r0, [r0, #-0]
     3f0:	000003fe 	strdeq	r0, [r0], -lr
     3f4:	77117a04 	ldrvc	r7, [r1, -r4, lsl #20]
     3f8:	05000000 	streq	r0, [r0, #-0]
     3fc:	000005e9 	andeq	r0, r0, r9, ror #11
     400:	77117b04 	ldrvc	r7, [r1, -r4, lsl #22]
     404:	05000000 	streq	r0, [r0, #-0]
     408:	00000427 	andeq	r0, r0, r7, lsr #8
     40c:	77117d04 	ldrvc	r7, [r1, -r4, lsl #26]
     410:	05000000 	streq	r0, [r0, #-0]
     414:	000000cb 	andeq	r0, r0, fp, asr #1
     418:	77117e04 	ldrvc	r7, [r1, -r4, lsl #28]
     41c:	05000000 	streq	r0, [r0, #-0]
     420:	00000a3f 	andeq	r0, r0, pc, lsr sl
     424:	77118004 	ldrvc	r8, [r1, -r4]
     428:	05000000 	streq	r0, [r0, #-0]
     42c:	0000021e 	andeq	r0, r0, lr, lsl r2
     430:	77118104 	ldrvc	r8, [r1, -r4, lsl #2]
     434:	05000000 	streq	r0, [r0, #-0]
     438:	0000006b 	andeq	r0, r0, fp, rrx
     43c:	77118704 	ldrvc	r8, [r1, -r4, lsl #14]
     440:	05000000 	streq	r0, [r0, #-0]
     444:	00000442 	andeq	r0, r0, r2, asr #8
     448:	77118a04 	ldrvc	r8, [r1, -r4, lsl #20]
     44c:	05000000 	streq	r0, [r0, #-0]
     450:	000005a6 	andeq	r0, r0, r6, lsr #11
     454:	77118d04 	ldrvc	r8, [r1, -r4, lsl #26]
     458:	05000000 	streq	r0, [r0, #-0]
     45c:	000005b6 			; <UNDEFINED> instruction: 0x000005b6
     460:	77119104 	ldrvc	r9, [r1, -r4, lsl #2]
     464:	05000000 	streq	r0, [r0, #-0]
     468:	00000089 	andeq	r0, r0, r9, lsl #1
     46c:	77119204 	ldrvc	r9, [r1, -r4, lsl #4]
     470:	05000000 	streq	r0, [r0, #-0]
     474:	00000383 	andeq	r0, r0, r3, lsl #7
     478:	77119304 	ldrvc	r9, [r1, -r4, lsl #6]
     47c:	05000000 	streq	r0, [r0, #-0]
     480:	000005c7 	andeq	r0, r0, r7, asr #11
     484:	77119404 	ldrvc	r9, [r1, -r4, lsl #8]
     488:	05000000 	streq	r0, [r0, #-0]
     48c:	000009e8 	andeq	r0, r0, r8, ror #19
     490:	77119604 	ldrvc	r9, [r1, -r4, lsl #12]
     494:	05000000 	streq	r0, [r0, #-0]
     498:	00000455 	andeq	r0, r0, r5, asr r4
     49c:	77119804 	ldrvc	r9, [r1, -r4, lsl #16]
     4a0:	05000000 	streq	r0, [r0, #-0]
     4a4:	00000535 	andeq	r0, r0, r5, lsr r5
     4a8:	77119904 	ldrvc	r9, [r1, -r4, lsl #18]
     4ac:	05000000 	streq	r0, [r0, #-0]
     4b0:	00000763 	andeq	r0, r0, r3, ror #14
     4b4:	77119a04 	ldrvc	r9, [r1, -r4, lsl #20]
     4b8:	05000000 	streq	r0, [r0, #-0]
     4bc:	000008e1 	andeq	r0, r0, r1, ror #17
     4c0:	77119b04 	ldrvc	r9, [r1, -r4, lsl #22]
     4c4:	05000000 	streq	r0, [r0, #-0]
     4c8:	000001f7 	strdeq	r0, [r0], -r7
     4cc:	77119c04 	ldrvc	r9, [r1, -r4, lsl #24]
     4d0:	05000000 	streq	r0, [r0, #-0]
     4d4:	000008a5 	andeq	r0, r0, r5, lsr #17
     4d8:	7711a104 	ldrvc	sl, [r1, -r4, lsl #2]
     4dc:	05000000 	streq	r0, [r0, #-0]
     4e0:	00000262 	andeq	r0, r0, r2, ror #4
     4e4:	7711a304 	ldrvc	sl, [r1, -r4, lsl #6]
     4e8:	05000000 	streq	r0, [r0, #-0]
     4ec:	00000198 	muleq	r0, r8, r1
     4f0:	7711a404 	ldrvc	sl, [r1, -r4, lsl #8]
     4f4:	05000000 	streq	r0, [r0, #-0]
     4f8:	00000828 	andeq	r0, r0, r8, lsr #16
     4fc:	7711a504 	ldrvc	sl, [r1, -r4, lsl #10]
     500:	05000000 	streq	r0, [r0, #-0]
     504:	000007c4 	andeq	r0, r0, r4, asr #15
     508:	7711a604 	ldrvc	sl, [r1, -r4, lsl #12]
     50c:	05000000 	streq	r0, [r0, #-0]
     510:	000002fb 	strdeq	r0, [r0], -fp
     514:	7711a804 	ldrvc	sl, [r1, -r4, lsl #16]
     518:	05000000 	streq	r0, [r0, #-0]
     51c:	000000b9 	strheq	r0, [r0], -r9
     520:	7711a904 	ldrvc	sl, [r1, -r4, lsl #18]
     524:	05000000 	streq	r0, [r0, #-0]
     528:	000007ec 	andeq	r0, r0, ip, ror #15
     52c:	7711aa04 	ldrvc	sl, [r1, -r4, lsl #20]
     530:	05000000 	streq	r0, [r0, #-0]
     534:	0000073c 	andeq	r0, r0, ip, lsr r7
     538:	7711ab04 	ldrvc	sl, [r1, -r4, lsl #22]
     53c:	05000000 	streq	r0, [r0, #-0]
     540:	00000142 	andeq	r0, r0, r2, asr #2
     544:	7711ad04 	ldrvc	sl, [r1, -r4, lsl #26]
     548:	05000000 	streq	r0, [r0, #-0]
     54c:	000007d9 	ldrdeq	r0, [r0], -r9
     550:	7711ae04 	ldrvc	sl, [r1, -r4, lsl #28]
     554:	05000000 	streq	r0, [r0, #-0]
     558:	00000410 	andeq	r0, r0, r0, lsl r4
     55c:	7711b004 	ldrvc	fp, [r1, -r4]
     560:	05000000 	streq	r0, [r0, #-0]
     564:	000009d1 	ldrdeq	r0, [r0], -r1
     568:	7711b104 	ldrvc	fp, [r1, -r4, lsl #2]
     56c:	05000000 	streq	r0, [r0, #-0]
     570:	000008ca 	andeq	r0, r0, sl, asr #17
     574:	7711b204 	ldrvc	fp, [r1, -r4, lsl #4]
     578:	05000000 	streq	r0, [r0, #-0]
     57c:	0000088e 	andeq	r0, r0, lr, lsl #17
     580:	7711b304 	ldrvc	fp, [r1, -r4, lsl #6]
     584:	05000000 	streq	r0, [r0, #-0]
     588:	00000877 	andeq	r0, r0, r7, ror r8
     58c:	7711b404 	ldrvc	fp, [r1, -r4, lsl #8]
     590:	05000000 	streq	r0, [r0, #-0]
     594:	00000a28 	andeq	r0, r0, r8, lsr #20
     598:	7711b604 	ldrvc	fp, [r1, -r4, lsl #12]
     59c:	05000000 	streq	r0, [r0, #-0]
     5a0:	0000046b 	andeq	r0, r0, fp, ror #8
     5a4:	7711b704 	ldrvc	fp, [r1, -r4, lsl #14]
     5a8:	05000000 	streq	r0, [r0, #-0]
     5ac:	000001ce 	andeq	r0, r0, lr, asr #3
     5b0:	7711b804 	ldrvc	fp, [r1, -r4, lsl #16]
     5b4:	05000000 	streq	r0, [r0, #-0]
     5b8:	0000001d 	andeq	r0, r0, sp, lsl r0
     5bc:	7711b904 	ldrvc	fp, [r1, -r4, lsl #18]
     5c0:	05000000 	streq	r0, [r0, #-0]
     5c4:	00000034 	andeq	r0, r0, r4, lsr r0
     5c8:	7711ba04 	ldrvc	fp, [r1, -r4, lsl #20]
     5cc:	05000000 	streq	r0, [r0, #-0]
     5d0:	0000033a 	andeq	r0, r0, sl, lsr r3
     5d4:	7711bc04 	ldrvc	fp, [r1, -r4, lsl #24]
     5d8:	05000000 	streq	r0, [r0, #-0]
     5dc:	000006fa 	strdeq	r0, [r0], -sl
     5e0:	7711bd04 	ldrvc	fp, [r1, -r4, lsl #26]
     5e4:	05000000 	streq	r0, [r0, #-0]
     5e8:	000004c4 	andeq	r0, r0, r4, asr #9
     5ec:	7711c204 	ldrvc	ip, [r1, -r4, lsl #4]
     5f0:	05000000 	streq	r0, [r0, #-0]
     5f4:	00000810 	andeq	r0, r0, r0, lsl r8
     5f8:	7711c304 	ldrvc	ip, [r1, -r4, lsl #6]
     5fc:	05000000 	streq	r0, [r0, #-0]
     600:	000003e6 	andeq	r0, r0, r6, ror #7
     604:	7711c404 	ldrvc	ip, [r1, -r4, lsl #8]
     608:	06000000 	streq	r0, [r0], -r0
     60c:	0000099c 	muleq	r0, ip, r9
     610:	84280f01 	strthi	r0, [r8], #-3841	; 0xfffff0ff
     614:	b0700102 	rsbslt	r0, r0, r2, lsl #2
     618:	01000001 	tsteq	r0, r1
     61c:	043a079c 	ldrteq	r0, [sl], #-1948	; 0xfffff864
     620:	05010000 	streq	r0, [r1, #-0]
     624:	01020428 	tsteq	r2, r8, lsr #8
     628:	00008070 	andeq	r8, r0, r0, ror r0
     62c:	6e9c0100 	fmlvse	f0, f4, f0
     630:	08000006 	stmdaeq	r0, {r1, r2}
     634:	00000000 	andeq	r0, r0, r0
     638:	6e3b0501 	cdpvs	5, 3, cr0, cr11, cr1, {0}
     63c:	02000006 	andeq	r0, r0, #6
     640:	b1086c91 			; <UNDEFINED> instruction: 0xb1086c91
     644:	01000000 	mrseq	r0, (UNDEF: 0)
     648:	066e4f05 	strbteq	r4, [lr], -r5, lsl #30
     64c:	91020000 	mrsls	r0, (UNDEF: 2)
     650:	0ba90868 	bleq	fea427f8 <__TAREA_1_RODATA_PHY+0x7e2ee7f8>
     654:	05010000 	streq	r0, [r1, #-0]
     658:	00007761 	andeq	r7, r0, r1, ror #14
     65c:	64910200 	ldrvs	r0, [r1], #512	; 0x200
     660:	01006909 	tsteq	r0, r9, lsl #18
     664:	00250907 	eoreq	r0, r5, r7, lsl #18
     668:	91020000 	mrsls	r0, (UNDEF: 2)
     66c:	040a0074 	streq	r0, [sl], #-116	; 0xffffff8c
     670:	00000077 	andeq	r0, r0, r7, ror r0
     674:	000d7700 	andeq	r7, sp, r0, lsl #14
     678:	ad000400 	cfstrsge	mvf0, [r0, #-0]
     67c:	04000000 	streq	r0, [r0], #-0
     680:	00028701 	andeq	r8, r2, r1, lsl #14
     684:	0e5f0c00 	cdpeq	12, 5, cr0, cr15, cr0, {0}
     688:	095f0000 	ldmdbeq	pc, {}^	; <UNPREDICTABLE>
     68c:	00180000 	andseq	r0, r8, r0
     690:	00000000 	andeq	r0, r0, r0
     694:	01880000 	orreq	r0, r8, r0
     698:	01020000 	mrseq	r0, (UNDEF: 2)
     69c:	00052906 	andeq	r2, r5, r6, lsl #18
     6a0:	0aae0300 	beq	feb812a8 <__TAREA_1_RODATA_PHY+0x7e42d2a8>
     6a4:	2b020000 	blcs	806ac <__kernel_size__+0x7f178>
     6a8:	00003818 	andeq	r3, r0, r8, lsl r8
     6ac:	08010200 	stmdaeq	r1, {r9}
     6b0:	00000527 	andeq	r0, r0, r7, lsr #10
     6b4:	a7050202 	strge	r0, [r5, -r2, lsl #4]
     6b8:	02000000 	andeq	r0, r0, #0
     6bc:	05fe0702 	ldrbeq	r0, [lr, #1794]!	; 0x702
     6c0:	04020000 	streq	r0, [r2], #-0
     6c4:	00039a05 	andeq	r9, r3, r5, lsl #20
     6c8:	01640300 	cmneq	r4, r0, lsl #6
     6cc:	4f020000 	svcmi	0x00020000
     6d0:	00006019 	andeq	r6, r0, r9, lsl r0
     6d4:	07040200 	streq	r0, [r4, -r0, lsl #4]
     6d8:	00000594 	muleq	r0, r4, r5
     6dc:	95050802 	strls	r0, [r5, #-2050]	; 0xfffff7fe
     6e0:	02000003 	andeq	r0, r0, #3
     6e4:	058f0708 	streq	r0, [pc, #1800]	; df4 <SYS_STACK_SIZE+0x9f4>
     6e8:	04040000 	streq	r0, [r4], #-0
     6ec:	746e6905 	strbtvc	r6, [lr], #-2309	; 0xfffff6fb
     6f0:	07040200 	streq	r0, [r4, -r0, lsl #4]
     6f4:	00000599 	muleq	r0, r9, r5
     6f8:	000ab003 	andeq	fp, sl, r3
     6fc:	13180300 	tstne	r8, #0, 6
     700:	0000002c 	andeq	r0, r0, ip, lsr #32
     704:	00016603 	andeq	r6, r1, r3, lsl #12
     708:	14300300 	ldrtne	r0, [r0], #-768	; 0xfffffd00
     70c:	00000054 	andeq	r0, r0, r4, asr r0
     710:	38010705 	stmdacc	r1, {r0, r2, r8, r9, sl}
     714:	04000000 	streq	r0, [r0], #-0
     718:	00b60e3b 	adcseq	r0, r6, fp, lsr lr
     71c:	e8060000 	stmda	r6, {}	; <UNPREDICTABLE>
     720:	0100000d 	tsteq	r0, sp
     724:	000d9206 	andeq	r9, sp, r6, lsl #4
     728:	03000000 	movweq	r0, #0
     72c:	00000cc4 	andeq	r0, r0, r4, asr #25
     730:	9b033e04 	blls	cff48 <__kernel_size__+0xcea14>
     734:	05000000 	streq	r0, [r0, #-0]
     738:	00380107 	eorseq	r0, r8, r7, lsl #2
     73c:	56040000 	strpl	r0, [r4], -r0
     740:	0000dd0e 	andeq	sp, r0, lr, lsl #26
     744:	0b920600 	bleq	fe481f4c <__TAREA_1_RODATA_PHY+0x7dd2df4c>
     748:	06010000 	streq	r0, [r1], -r0
     74c:	00000acf 	andeq	r0, r0, pc, asr #21
     750:	a1030000 	mrsge	r0, (UNDEF: 3)
     754:	0400000c 	streq	r0, [r0], #-12
     758:	00c20359 	sbceq	r0, r2, r9, asr r3
     75c:	04070000 	streq	r0, [r7], #-0
     760:	7305ad04 	movwvc	sl, #23812	; 0x5d04
     764:	08000001 	stmdaeq	r0, {r0}
     768:	00000aef 	andeq	r0, r0, pc, ror #21
     76c:	8f12ae04 	svchi	0x0012ae04
     770:	04000000 	streq	r0, [r0], #-0
     774:	08001c04 	stmdaeq	r0, {r2, sl, fp, ip}
     778:	00000e03 	andeq	r0, r0, r3, lsl #28
     77c:	8f12af04 	svchi	0x0012af04
     780:	04000000 	streq	r0, [r0], #-0
     784:	08001804 	stmdaeq	r0, {r2, fp, ip}
     788:	00000d0c 	andeq	r0, r0, ip, lsl #26
     78c:	8f12b004 	svchi	0x0012b004
     790:	04000000 	streq	r0, [r0], #-0
     794:	08001404 	stmdaeq	r0, {r2, sl, ip}
     798:	00000def 	andeq	r0, r0, pc, ror #27
     79c:	8f12b104 	svchi	0x0012b104
     7a0:	04000000 	streq	r0, [r0], #-0
     7a4:	08001004 	stmdaeq	r0, {r2, ip}
     7a8:	00000b54 	andeq	r0, r0, r4, asr fp
     7ac:	8f12b204 	svchi	0x0012b204
     7b0:	04000000 	streq	r0, [r0], #-0
     7b4:	08000c04 	stmdaeq	r0, {r2, sl, fp}
     7b8:	00000dac 	andeq	r0, r0, ip, lsr #27
     7bc:	8f12b304 	svchi	0x0012b304
     7c0:	04000000 	streq	r0, [r0], #-0
     7c4:	08000804 	stmdaeq	r0, {r2, fp}
     7c8:	00000d65 	andeq	r0, r0, r5, ror #26
     7cc:	8f12b404 	svchi	0x0012b404
     7d0:	04000000 	streq	r0, [r0], #-0
     7d4:	08000404 	stmdaeq	r0, {r2, sl}
     7d8:	00000b24 	andeq	r0, r0, r4, lsr #22
     7dc:	8f12b504 	svchi	0x0012b504
     7e0:	04000000 	streq	r0, [r0], #-0
     7e4:	00000004 	andeq	r0, r0, r4
     7e8:	ab040409 	blge	101814 <__kernel_size__+0x1002e0>
     7ec:	00018e09 	andeq	r8, r1, r9, lsl #28
     7f0:	0d3d0a00 	vldmdbeq	sp!, {s0-s-1}
     7f4:	ac040000 	stcge	0, cr0, [r4], {-0}
     7f8:	00008f0e 	andeq	r8, r0, lr, lsl #30
     7fc:	00e90b00 	rsceq	r0, r9, r0, lsl #22
     800:	03000000 	movweq	r0, #0
     804:	00000ea6 	andeq	r0, r0, r6, lsr #29
     808:	7303b704 	movwvc	fp, #14084	; 0x3704
     80c:	07000001 	streq	r0, [r0, -r1]
     810:	05c10404 	strbeq	r0, [r1, #1028]	; 0x404
     814:	00000224 	andeq	r0, r0, r4, lsr #4
     818:	000b4008 	andeq	r4, fp, r8
     81c:	12c20400 	sbcne	r0, r2, #0, 8
     820:	0000008f 	andeq	r0, r0, pc, lsl #1
     824:	001c0404 	andseq	r0, ip, r4, lsl #8
     828:	000ecd08 	andeq	ip, lr, r8, lsl #26
     82c:	12c30400 	sbcne	r0, r3, #0, 8
     830:	0000008f 	andeq	r0, r0, pc, lsl #1
     834:	00180404 	andseq	r0, r8, r4, lsl #8
     838:	000c4908 	andeq	r4, ip, r8, lsl #18
     83c:	12c40400 	sbcne	r0, r4, #0, 8
     840:	0000008f 	andeq	r0, r0, pc, lsl #1
     844:	00140404 	andseq	r0, r4, r4, lsl #8
     848:	000af408 	andeq	pc, sl, r8, lsl #8
     84c:	12c50400 	sbcne	r0, r5, #0, 8
     850:	0000008f 	andeq	r0, r0, pc, lsl #1
     854:	00100404 	andseq	r0, r0, r4, lsl #8
     858:	000c9008 	andeq	r9, ip, r8
     85c:	12c60400 	sbcne	r0, r6, #0, 8
     860:	0000008f 	andeq	r0, r0, pc, lsl #1
     864:	000c0404 	andeq	r0, ip, r4, lsl #8
     868:	000b6008 	andeq	r6, fp, r8
     86c:	12c70400 	sbcne	r0, r7, #0, 8
     870:	0000008f 	andeq	r0, r0, pc, lsl #1
     874:	00080404 	andeq	r0, r8, r4, lsl #8
     878:	000e8608 	andeq	r8, lr, r8, lsl #12
     87c:	12c80400 	sbcne	r0, r8, #0, 8
     880:	0000008f 	andeq	r0, r0, pc, lsl #1
     884:	00040404 	andeq	r0, r4, r4, lsl #8
     888:	000d7708 	andeq	r7, sp, r8, lsl #14
     88c:	12c90400 	sbcne	r0, r9, #0, 8
     890:	0000008f 	andeq	r0, r0, pc, lsl #1
     894:	00000404 	andeq	r0, r0, r4, lsl #8
     898:	04040900 	streq	r0, [r4], #-2304	; 0xfffff700
     89c:	023f09bf 	eorseq	r0, pc, #3129344	; 0x2fc000
     8a0:	430a0000 	movwmi	r0, #40960	; 0xa000
     8a4:	0400000d 	streq	r0, [r0], #-13
     8a8:	008f0ec0 	addeq	r0, pc, r0, asr #29
     8ac:	9a0b0000 	bls	2c08b4 <__kernel_size__+0x2bf380>
     8b0:	00000001 	andeq	r0, r0, r1
     8b4:	000e1e03 	andeq	r1, lr, r3, lsl #28
     8b8:	03cb0400 	biceq	r0, fp, #0, 8
     8bc:	00000224 	andeq	r0, r0, r4, lsr #4
     8c0:	d5040407 	strle	r0, [r4, #-1031]	; 0xfffffbf9
     8c4:	0002d505 	andeq	sp, r2, r5, lsl #10
     8c8:	0dd40800 	ldcleq	8, cr0, [r4]
     8cc:	d6040000 	strle	r0, [r4], -r0
     8d0:	00008f12 	andeq	r8, r0, r2, lsl pc
     8d4:	1c040400 	cfstrsne	mvf0, [r4], {-0}
     8d8:	0f150800 	svceq	0x00150800
     8dc:	d7040000 	strle	r0, [r4, -r0]
     8e0:	00008f12 	andeq	r8, r0, r2, lsl pc
     8e4:	18040400 	stmdane	r4, {sl}
     8e8:	0e380800 	cdpeq	8, 3, cr0, cr8, cr0, {0}
     8ec:	d8040000 	stmdale	r4, {}	; <UNPREDICTABLE>
     8f0:	00008f12 	andeq	r8, r0, r2, lsl pc
     8f4:	14040400 	strne	r0, [r4], #-1024	; 0xfffffc00
     8f8:	0cab0800 	stceq	8, cr0, [fp]
     8fc:	d9040000 	stmdble	r4, {}	; <UNPREDICTABLE>
     900:	00008f12 	andeq	r8, r0, r2, lsl pc
     904:	10040400 	andne	r0, r4, r0, lsl #8
     908:	0ee10800 	cdpeq	8, 14, cr0, cr1, cr0, {0}
     90c:	da040000 	ble	100914 <__kernel_size__+0xff3e0>
     910:	00008f12 	andeq	r8, r0, r2, lsl pc
     914:	0c040400 	cfstrseq	mvf0, [r4], {-0}
     918:	0cb80800 	ldceq	8, cr0, [r8]
     91c:	db040000 	blle	100924 <__kernel_size__+0xff3f0>
     920:	00008f12 	andeq	r8, r0, r2, lsl pc
     924:	08040400 	stmdaeq	r4, {sl}
     928:	0b1a0800 	bleq	682930 <__kernel_size__+0x6813fc>
     92c:	dc040000 	stcle	0, cr0, [r4], {-0}
     930:	00008f12 	andeq	r8, r0, r2, lsl pc
     934:	04040400 	streq	r0, [r4], #-1024	; 0xfffffc00
     938:	0ac00800 	beq	ff002940 <__TAREA_1_RODATA_PHY+0x7e8ae940>
     93c:	dd040000 	stcle	0, cr0, [r4, #-0]
     940:	00008f12 	andeq	r8, r0, r2, lsl pc
     944:	00040400 	andeq	r0, r4, r0, lsl #8
     948:	04090000 	streq	r0, [r9], #-0
     94c:	f009d304 			; <UNDEFINED> instruction: 0xf009d304
     950:	0a000002 	beq	960 <SYS_STACK_SIZE+0x560>
     954:	00000d49 	andeq	r0, r0, r9, asr #26
     958:	8f0ed404 	svchi	0x000ed404
     95c:	0b000000 	bleq	964 <SYS_STACK_SIZE+0x564>
     960:	0000024b 	andeq	r0, r0, fp, asr #4
     964:	0ec40300 	cdpeq	3, 12, cr0, cr4, cr0, {0}
     968:	df040000 	svcle	0x00040000
     96c:	0002d503 	andeq	sp, r2, r3, lsl #10
     970:	04040700 	streq	r0, [r4], #-1792	; 0xfffff900
     974:	038605e9 	orreq	r0, r6, #977272832	; 0x3a400000
     978:	29080000 	stmdbcs	r8, {}	; <UNPREDICTABLE>
     97c:	0400000f 	streq	r0, [r0], #-15
     980:	008f12ea 	addeq	r1, pc, sl, ror #5
     984:	04040000 	streq	r0, [r4], #-0
     988:	5408001c 	strpl	r0, [r8], #-28	; 0xffffffe4
     98c:	0400000a 	streq	r0, [r0], #-10
     990:	008f12eb 	addeq	r1, pc, fp, ror #5
     994:	04040000 	streq	r0, [r4], #-0
     998:	ae080018 	mcrge	0, 0, r0, cr8, cr8, {0}
     99c:	0400000b 	streq	r0, [r0], #-11
     9a0:	008f12ec 	addeq	r1, pc, ip, ror #5
     9a4:	04040000 	streq	r0, [r4], #-0
     9a8:	2e080014 	mcrcs	0, 0, r0, cr8, cr4, {0}
     9ac:	0400000c 	streq	r0, [r0], #-12
     9b0:	008f12ed 	addeq	r1, pc, sp, ror #5
     9b4:	04040000 	streq	r0, [r4], #-0
     9b8:	33080010 	movwcc	r0, #32784	; 0x8010
     9bc:	0400000d 	streq	r0, [r0], #-13
     9c0:	008f12ee 	addeq	r1, pc, lr, ror #5
     9c4:	04040000 	streq	r0, [r4], #-0
     9c8:	6e08000c 	cdpvs	0, 0, cr0, cr8, cr12, {0}
     9cc:	0400000c 	streq	r0, [r0], #-12
     9d0:	008f12ef 	addeq	r1, pc, pc, ror #5
     9d4:	04040000 	streq	r0, [r4], #-0
     9d8:	ba080008 	blt	200a00 <__kernel_size__+0x1ff4cc>
     9dc:	0400000b 	streq	r0, [r0], #-11
     9e0:	008f12f0 	strdeq	r1, [pc], r0
     9e4:	04040000 	streq	r0, [r4], #-0
     9e8:	00080004 	andeq	r0, r8, r4
     9ec:	0400000f 	streq	r0, [r0], #-15
     9f0:	008f12f1 	strdeq	r1, [pc], r1	; <UNPREDICTABLE>
     9f4:	04040000 	streq	r0, [r4], #-0
     9f8:	09000000 	stmdbeq	r0, {}	; <UNPREDICTABLE>
     9fc:	09e70404 	stmibeq	r7!, {r2, sl}^
     a00:	000003a1 	andeq	r0, r0, r1, lsr #7
     a04:	000d4f0a 	andeq	r4, sp, sl, lsl #30
     a08:	0ee80400 	cdpeq	4, 14, cr0, cr8, cr0, {0}
     a0c:	0000008f 	andeq	r0, r0, pc, lsl #1
     a10:	0002fc0b 	andeq	pc, r2, fp, lsl #24
     a14:	2f030000 	svccs	0x00030000
     a18:	0400000e 	streq	r0, [r0], #-14
     a1c:	038603f3 	orreq	r0, r6, #-872415229	; 0xcc000003
     a20:	04070000 	streq	r0, [r7], #-0
     a24:	f705fd04 			; <UNDEFINED> instruction: 0xf705fd04
     a28:	08000004 	stmdaeq	r0, {r2}
     a2c:	00000d72 	andeq	r0, r0, r2, ror sp
     a30:	8f12fe04 	svchi	0x0012fe04
     a34:	04000000 	streq	r0, [r0], #-0
     a38:	08001d03 	stmdaeq	r0, {r0, r1, r8, sl, fp, ip}
     a3c:	00000d33 	andeq	r0, r0, r3, lsr sp
     a40:	8f12ff04 	svchi	0x0012ff04
     a44:	04000000 	streq	r0, [r0], #-0
     a48:	0c001c01 	stceq	12, cr1, [r0], {1}
     a4c:	00304450 	eorseq	r4, r0, r0, asr r4
     a50:	12010004 	andne	r0, r1, #4
     a54:	0000008f 	andeq	r0, r0, pc, lsl #1
     a58:	001b0104 	andseq	r0, fp, r4, lsl #2
     a5c:	3144500c 	cmpcc	r4, ip
     a60:	01010400 	tsteq	r1, r0, lsl #8
     a64:	00008f12 	andeq	r8, r0, r2, lsl pc
     a68:	1a010400 	bne	41a70 <__kernel_size__+0x4053c>
     a6c:	0d880d00 	stceq	13, cr0, [r8]
     a70:	02040000 	andeq	r0, r4, #0
     a74:	008f1201 	addeq	r1, pc, r1, lsl #4
     a78:	01040000 	mrseq	r0, (UNDEF: 4)
     a7c:	190d0019 	stmdbne	sp, {r0, r3, r4}
     a80:	0400000c 	streq	r0, [r0], #-12
     a84:	8f120103 	svchi	0x00120103
     a88:	04000000 	streq	r0, [r0], #-0
     a8c:	0d001801 	stceq	8, cr1, [r0, #-4]
     a90:	00000e49 	andeq	r0, r0, r9, asr #28
     a94:	12010404 	andne	r0, r1, #4, 8	; 0x4000000
     a98:	0000008f 	andeq	r0, r0, pc, lsl #1
     a9c:	00160204 	andseq	r0, r6, r4, lsl #4
     aa0:	000ccd0d 	andeq	ip, ip, sp, lsl #26
     aa4:	01050400 	tsteq	r5, r0, lsl #8
     aa8:	00008f12 	andeq	r8, r0, r2, lsl pc
     aac:	14020400 	strne	r0, [r2], #-1024	; 0xfffffc00
     ab0:	48530c00 	ldmdami	r3, {sl, fp}^
     ab4:	06040030 			; <UNDEFINED> instruction: 0x06040030
     ab8:	008f1201 	addeq	r1, pc, r1, lsl #4
     abc:	02040000 	andeq	r0, r4, #0
     ac0:	550d0012 	strpl	r0, [sp, #-18]	; 0xffffffee
     ac4:	0400000e 	streq	r0, [r0], #-14
     ac8:	8f120107 	svchi	0x00120107
     acc:	04000000 	streq	r0, [r0], #-0
     ad0:	0d001002 	stceq	0, cr1, [r0, #-8]
     ad4:	00000c44 	andeq	r0, r0, r4, asr #24
     ad8:	12010804 	andne	r0, r1, #4, 16	; 0x40000
     adc:	0000008f 	andeq	r0, r0, pc, lsl #1
     ae0:	000d0304 	andeq	r0, sp, r4, lsl #6
     ae4:	000d980d 	andeq	r9, sp, sp, lsl #16
     ae8:	01090400 	tsteq	r9, r0, lsl #8
     aec:	00008f12 	andeq	r8, r0, r2, lsl pc
     af0:	0a030400 	beq	c1af8 <__kernel_size__+0xc05c4>
     af4:	31410c00 	cmpcc	r1, r0, lsl #24
     af8:	010a0400 	tsteq	sl, r0, lsl #8
     afc:	00008f12 	andeq	r8, r0, r2, lsl pc
     b00:	09010400 	stmdbeq	r1, {sl}
     b04:	0c1e0d00 	ldceq	13, cr0, [lr], {-0}
     b08:	0b040000 	bleq	100b10 <__kernel_size__+0xff5dc>
     b0c:	008f1201 	addeq	r1, pc, r1, lsl #4
     b10:	01040000 	mrseq	r0, (UNDEF: 4)
     b14:	4f0d0008 	svcmi	0x000d0008
     b18:	0400000e 	streq	r0, [r0], #-14
     b1c:	8f12010c 	svchi	0x0012010c
     b20:	04000000 	streq	r0, [r0], #-0
     b24:	0d000602 	stceq	6, cr0, [r0, #-8]
     b28:	00000cd3 	ldrdeq	r0, [r0], -r3
     b2c:	12010d04 	andne	r0, r1, #4, 26	; 0x100
     b30:	0000008f 	andeq	r0, r0, pc, lsl #1
     b34:	00040204 	andeq	r0, r4, r4, lsl #4
     b38:	3148530c 	cmpcc	r8, ip, lsl #6
     b3c:	010e0400 	tsteq	lr, r0, lsl #8
     b40:	00008f12 	andeq	r8, r0, r2, lsl pc
     b44:	02020400 	andeq	r0, r2, #0, 8
     b48:	44490c00 	strbmi	r0, [r9], #-3072	; 0xfffff400
     b4c:	0f040046 	svceq	0x00040046
     b50:	008f1201 	addeq	r1, pc, r1, lsl #4
     b54:	01040000 	mrseq	r0, (UNDEF: 4)
     b58:	450c0001 	strmi	r0, [ip, #-1]
     b5c:	04004541 	streq	r4, [r0], #-1345	; 0xfffffabf
     b60:	8f120110 	svchi	0x00120110
     b64:	04000000 	streq	r0, [r0], #-0
     b68:	00000001 	andeq	r0, r0, r1
     b6c:	fb040409 	blx	101b9a <__kernel_size__+0x100666>
     b70:	00051209 	andeq	r1, r5, r9, lsl #4
     b74:	0bf80a00 	bleq	ffe0337c <__TAREA_1_RODATA_PHY+0x7f6af37c>
     b78:	fc040000 	stc2	0, cr0, [r4], {-0}
     b7c:	00008f0e 	andeq	r8, r0, lr, lsl #30
     b80:	03ad0b00 			; <UNDEFINED> instruction: 0x03ad0b00
     b84:	0e000000 	cdpeq	0, 0, cr0, cr0, cr0, {0}
     b88:	00000bda 	ldrdeq	r0, [r0], -sl
     b8c:	03011204 	movweq	r1, #4612	; 0x1204
     b90:	000004f7 	strdeq	r0, [r0], -r7
     b94:	1c04040f 	cfstrsne	mvf0, [r4], {15}
     b98:	059f0501 	ldreq	r0, [pc, #1281]	; 10a1 <C_STACK_SIZE+0xa1>
     b9c:	0c0d0000 	stceq	0, cr0, [sp], {-0}
     ba0:	0400000b 	streq	r0, [r0], #-11
     ba4:	8f12011d 	svchi	0x0012011d
     ba8:	04000000 	streq	r0, [r0], #-0
     bac:	0c001f01 	stceq	15, cr1, [r0], {1}
     bb0:	1e040053 	mcrne	0, 0, r0, cr4, cr3, {2}
     bb4:	008f1201 	addeq	r1, pc, r1, lsl #4
     bb8:	01040000 	mrseq	r0, (UNDEF: 4)
     bbc:	490c001e 	stmdbmi	ip, {r1, r2, r3, r4}
     bc0:	0400504d 	streq	r5, [r0], #-77	; 0xffffffb3
     bc4:	8f12011f 	svchi	0x0012011f
     bc8:	04000000 	streq	r0, [r0], #-0
     bcc:	0c001d01 	stceq	13, cr1, [r0], {1}
     bd0:	004e4752 	subeq	r4, lr, r2, asr r7
     bd4:	12012004 	andne	r2, r1, #4
     bd8:	0000008f 	andeq	r0, r0, pc, lsl #1
     bdc:	001b0204 	andseq	r0, fp, r4, lsl #4
     be0:	534f4e0c 	movtpl	r4, #65036	; 0xfe0c
     be4:	01210400 			; <UNDEFINED> instruction: 0x01210400
     be8:	00008f12 	andeq	r8, r0, r2, lsl pc
     bec:	1a010400 	bne	41bf4 <__kernel_size__+0x406c0>
     bf0:	0b130d00 	bleq	4c3ff8 <__kernel_size__+0x4c2ac4>
     bf4:	22040000 	andcs	r0, r4, #0
     bf8:	008f1201 	addeq	r1, pc, r1, lsl #4
     bfc:	01040000 	mrseq	r0, (UNDEF: 4)
     c00:	8a0d0019 	bhi	340c6c <__kernel_size__+0x33f738>
     c04:	0400000c 	streq	r0, [r0], #-12
     c08:	8f120123 	svchi	0x00120123
     c0c:	04000000 	streq	r0, [r0], #-0
     c10:	00000019 	andeq	r0, r0, r9, lsl r0
     c14:	1a040410 	bne	101c5c <__kernel_size__+0x100728>
     c18:	05bc0901 	ldreq	r0, [ip, #2305]!	; 0x901
     c1c:	d7110000 	ldrle	r0, [r1, -r0]
     c20:	04000013 	streq	r0, [r0], #-19	; 0xffffffed
     c24:	8f0e011b 	svchi	0x000e011b
     c28:	0b000000 	bleq	c30 <SYS_STACK_SIZE+0x830>
     c2c:	0000051f 	andeq	r0, r0, pc, lsl r5
     c30:	0b790e00 	bleq	1e44438 <__kernel_size__+0x1e42f04>
     c34:	25040000 	strcs	r0, [r4, #-0]
     c38:	059f0301 	ldreq	r0, [pc, #769]	; f41 <SYS_STACK_SIZE+0xb41>
     c3c:	040f0000 	streq	r0, [pc], #-0	; c44 <SYS_STACK_SIZE+0x844>
     c40:	05012f04 	streq	r2, [r1, #-3844]	; 0xfffff0fc
     c44:	0000065a 	andeq	r0, r0, sl, asr r6
     c48:	000b0c0d 	andeq	r0, fp, sp, lsl #24
     c4c:	01300400 	teqeq	r0, r0, lsl #8
     c50:	00008f12 	andeq	r8, r0, r2, lsl pc
     c54:	1f010400 	svcne	0x00010400
     c58:	00530c00 	subseq	r0, r3, r0, lsl #24
     c5c:	12013104 	andne	r3, r1, #4, 2
     c60:	0000008f 	andeq	r0, r0, pc, lsl #1
     c64:	001e0104 	andseq	r0, lr, r4, lsl #2
     c68:	504d490c 	subpl	r4, sp, ip, lsl #18
     c6c:	01320400 	teqeq	r2, r0, lsl #8
     c70:	00008f12 	andeq	r8, r0, r2, lsl pc
     c74:	1d010400 	cfstrsne	mvf0, [r1, #-0]
     c78:	47520c00 	ldrbmi	r0, [r2, -r0, lsl #24]
     c7c:	3304004e 	movwcc	r0, #16462	; 0x404e
     c80:	008f1201 	addeq	r1, pc, r1, lsl #4
     c84:	02040000 	andeq	r0, r4, #0
     c88:	4e0c001b 	mcrmi	0, 0, r0, cr12, cr11, {0}
     c8c:	0400534f 	streq	r5, [r0], #-847	; 0xfffffcb1
     c90:	8f120134 	svchi	0x00120134
     c94:	04000000 	streq	r0, [r0], #-0
     c98:	0d001a01 	vstreq	s2, [r0, #-4]
     c9c:	00000b13 	andeq	r0, r0, r3, lsl fp
     ca0:	12013504 	andne	r3, r1, #4, 10	; 0x1000000
     ca4:	0000008f 	andeq	r0, r0, pc, lsl #1
     ca8:	00190104 	andseq	r0, r9, r4, lsl #2
     cac:	000d330d 	andeq	r3, sp, sp, lsl #6
     cb0:	01360400 	teqeq	r6, r0, lsl #8
     cb4:	00008f12 	andeq	r8, r0, r2, lsl pc
     cb8:	12070400 	andne	r0, r7, #0, 8
     cbc:	0d5f0d00 	ldcleq	13, cr0, [pc, #-0]	; cc4 <SYS_STACK_SIZE+0x8c4>
     cc0:	37040000 	strcc	r0, [r4, -r0]
     cc4:	008f1201 	addeq	r1, pc, r1, lsl #4
     cc8:	12040000 	andne	r0, r4, #0
     ccc:	10000000 	andne	r0, r0, r0
     cd0:	012d0404 			; <UNDEFINED> instruction: 0x012d0404
     cd4:	00067709 	andeq	r7, r6, r9, lsl #14
     cd8:	0ba01100 	bleq	fe8050e0 <__TAREA_1_RODATA_PHY+0x7e0b10e0>
     cdc:	2e040000 	cdpcs	0, 0, cr0, cr4, cr0, {0}
     ce0:	008f0e01 	addeq	r0, pc, r1, lsl #28
     ce4:	c90b0000 	stmdbgt	fp, {}	; <UNPREDICTABLE>
     ce8:	00000005 	andeq	r0, r0, r5
     cec:	000b870e 	andeq	r8, fp, lr, lsl #14
     cf0:	01390400 	teqeq	r9, r0, lsl #8
     cf4:	00065a03 	andeq	r5, r6, r3, lsl #20
     cf8:	04040f00 	streq	r0, [r4], #-3840	; 0xfffff100
     cfc:	6505019e 	strvs	r0, [r5, #-414]	; 0xfffffe62
     d00:	0c000008 	stceq	0, cr0, [r0], {8}
     d04:	9f04004d 	svcls	0x0004004d
     d08:	008f1201 	addeq	r1, pc, r1, lsl #4
     d0c:	01040000 	mrseq	r0, (UNDEF: 4)
     d10:	410c001f 	tstmi	ip, pc, lsl r0
     d14:	01a00400 	lsleq	r0, r0, #8
     d18:	00008f12 	andeq	r8, r0, r2, lsl pc
     d1c:	1e010400 	cfcpysne	mvf0, mvf1
     d20:	00430c00 	subeq	r0, r3, r0, lsl #24
     d24:	1201a104 	andne	sl, r1, #4, 2
     d28:	0000008f 	andeq	r0, r0, pc, lsl #1
     d2c:	001d0104 	andseq	r0, sp, r4, lsl #2
     d30:	000d330d 	andeq	r3, sp, sp, lsl #6
     d34:	01a20400 			; <UNDEFINED> instruction: 0x01a20400
     d38:	00008f12 	andeq	r8, r0, r2, lsl pc
     d3c:	1b020400 	blne	81d44 <__kernel_size__+0x80810>
     d40:	0ab80d00 	beq	fee04148 <__TAREA_1_RODATA_PHY+0x7e6b0148>
     d44:	a3040000 	movwge	r0, #16384	; 0x4000
     d48:	008f1201 	addeq	r1, pc, r1, lsl #4
     d4c:	01040000 	mrseq	r0, (UNDEF: 4)
     d50:	880d001a 	stmdahi	sp, {r1, r3, r4}
     d54:	0400000d 	streq	r0, [r0], #-13
     d58:	8f1201a4 	svchi	0x001201a4
     d5c:	04000000 	streq	r0, [r0], #-0
     d60:	0c001901 			; <UNDEFINED> instruction: 0x0c001901
     d64:	a5040042 	strge	r0, [r4, #-66]	; 0xffffffbe
     d68:	008f1201 	addeq	r1, pc, r1, lsl #4
     d6c:	01040000 	mrseq	r0, (UNDEF: 4)
     d70:	550d0018 	strpl	r0, [sp, #-24]	; 0xffffffe8
     d74:	0400000e 	streq	r0, [r0], #-14
     d78:	8f1201a6 	svchi	0x001201a6
     d7c:	04000000 	streq	r0, [r0], #-0
     d80:	0c001602 	stceq	6, cr1, [r0], {2}
     d84:	04005753 	streq	r5, [r0], #-1875	; 0xfffff8ad
     d88:	8f1201a7 	svchi	0x001201a7
     d8c:	04000000 	streq	r0, [r0], #-0
     d90:	0c001501 	cfstr32eq	mvfx1, [r0], {1}
     d94:	a804005a 	stmdage	r4, {r1, r3, r4, r6}
     d98:	008f1201 	addeq	r1, pc, r1, lsl #4
     d9c:	01040000 	mrseq	r0, (UNDEF: 4)
     da0:	490c0014 	stmdbmi	ip, {r2, r4}
     da4:	01a90400 			; <UNDEFINED> instruction: 0x01a90400
     da8:	00008f12 	andeq	r8, r0, r2, lsl pc
     dac:	13010400 	movwne	r0, #5120	; 0x1400
     db0:	00560c00 	subseq	r0, r6, r0, lsl #24
     db4:	1201aa04 	andne	sl, r1, #4, 20	; 0x4000
     db8:	0000008f 	andeq	r0, r0, pc, lsl #1
     dbc:	00120104 	andseq	r0, r2, r4, lsl #2
     dc0:	0052520c 	subseq	r5, r2, ip, lsl #4
     dc4:	1201ab04 	andne	sl, r1, #4, 22	; 0x1000
     dc8:	0000008f 	andeq	r0, r0, pc, lsl #1
     dcc:	00110104 	andseq	r0, r1, r4, lsl #2
     dd0:	000d980d 	andeq	r9, sp, sp, lsl #16
     dd4:	01ac0400 			; <UNDEFINED> instruction: 0x01ac0400
     dd8:	00008f12 	andeq	r8, r0, r2, lsl pc
     ddc:	0f020400 	svceq	0x00020400
     de0:	41480c00 	cmpmi	r8, r0, lsl #24
     de4:	01ad0400 			; <UNDEFINED> instruction: 0x01ad0400
     de8:	00008f12 	andeq	r8, r0, r2, lsl pc
     dec:	0e010400 	cfcpyseq	mvf0, mvf1
     df0:	0da20d00 	stceq	13, cr0, [r2]
     df4:	ae040000 	cdpge	0, 0, cr0, cr4, cr0, {0}
     df8:	008f1201 	addeq	r1, pc, r1, lsl #4
     dfc:	01040000 	mrseq	r0, (UNDEF: 4)
     e00:	570c000d 	strpl	r0, [ip, -sp]
     e04:	04004e58 	streq	r4, [r0], #-3672	; 0xfffff1a8
     e08:	8f1201af 	svchi	0x001201af
     e0c:	04000000 	streq	r0, [r0], #-0
     e10:	0d000c01 	stceq	12, cr0, [r0, #-4]
     e14:	00000aea 	andeq	r0, r0, sl, ror #21
     e18:	1201b004 	andne	fp, r1, #4
     e1c:	0000008f 	andeq	r0, r0, pc, lsl #1
     e20:	000b0104 	andeq	r0, fp, r4, lsl #2
     e24:	0049460c 	subeq	r4, r9, ip, lsl #12
     e28:	1201b104 	andne	fp, r1, #4, 2
     e2c:	0000008f 	andeq	r0, r0, pc, lsl #1
     e30:	000a0104 	andeq	r0, sl, r4, lsl #2
     e34:	0400550c 	streq	r5, [r0], #-1292	; 0xfffffaf4
     e38:	8f1201b2 	svchi	0x001201b2
     e3c:	04000000 	streq	r0, [r0], #-0
     e40:	0d000901 	vstreq.16	s0, [r0, #-2]	; <UNPREDICTABLE>
     e44:	00000dc0 	andeq	r0, r0, r0, asr #27
     e48:	1201b304 	andne	fp, r1, #4, 6	; 0x10000000
     e4c:	0000008f 	andeq	r0, r0, pc, lsl #1
     e50:	00080104 	andeq	r0, r8, r4, lsl #2
     e54:	0045560c 	subeq	r5, r5, ip, lsl #12
     e58:	1201b404 	andne	fp, r1, #4, 8	; 0x4000000
     e5c:	0000008f 	andeq	r0, r0, pc, lsl #1
     e60:	00070104 	andeq	r0, r7, r4, lsl #2
     e64:	0045450c 	subeq	r4, r5, ip, lsl #10
     e68:	1201b504 	andne	fp, r1, #4, 10	; 0x1000000
     e6c:	0000008f 	andeq	r0, r0, pc, lsl #1
     e70:	00060104 	andeq	r0, r6, r4, lsl #2
     e74:	000dca0d 	andeq	ip, sp, sp, lsl #20
     e78:	01b60400 			; <UNDEFINED> instruction: 0x01b60400
     e7c:	00008f12 	andeq	r8, r0, r2, lsl pc
     e80:	05010400 	streq	r0, [r1, #-1024]	; 0xfffffc00
     e84:	0bcd0d00 	bleq	ff34428c <__TAREA_1_RODATA_PHY+0x7ebf028c>
     e88:	b7040000 	strlt	r0, [r4, -r0]
     e8c:	008f1201 	addeq	r1, pc, r1, lsl #4
     e90:	01040000 	mrseq	r0, (UNDEF: 4)
     e94:	540c0004 	strpl	r0, [ip], #-4
     e98:	04004552 	streq	r4, [r0], #-1362	; 0xfffffaae
     e9c:	8f1201b8 	svchi	0x001201b8
     ea0:	04000000 	streq	r0, [r0], #-0
     ea4:	0c000301 	stceq	3, cr0, [r0], {1}
     ea8:	00454641 	subeq	r4, r5, r1, asr #12
     eac:	1201b904 	andne	fp, r1, #4, 18	; 0x10000
     eb0:	0000008f 	andeq	r0, r0, pc, lsl #1
     eb4:	00020104 	andeq	r0, r2, r4, lsl #2
     eb8:	0045540c 	subeq	r5, r5, ip, lsl #8
     ebc:	1201ba04 	andne	fp, r1, #4, 20	; 0x4000
     ec0:	0000008f 	andeq	r0, r0, pc, lsl #1
     ec4:	00010104 	andeq	r0, r1, r4, lsl #2
     ec8:	000d550d 	andeq	r5, sp, sp, lsl #10
     ecc:	01bb0400 			; <UNDEFINED> instruction: 0x01bb0400
     ed0:	00008f12 	andeq	r8, r0, r2, lsl pc
     ed4:	00010400 	andeq	r0, r1, r0, lsl #8
     ed8:	04100000 	ldreq	r0, [r0], #-0
     edc:	09019c04 	stmdbeq	r1, {r2, sl, fp, ip, pc}
     ee0:	00000882 	andeq	r0, r0, r2, lsl #17
     ee4:	000d2311 	andeq	r2, sp, r1, lsl r3
     ee8:	019d0400 	orrseq	r0, sp, r0, lsl #8
     eec:	00008f0e 	andeq	r8, r0, lr, lsl #30
     ef0:	06840b00 	streq	r0, [r4], r0, lsl #22
     ef4:	0e000000 	cdpeq	0, 0, cr0, cr0, cr0, {0}
     ef8:	00000c84 	andeq	r0, r0, r4, lsl #25
     efc:	0301bd04 	movweq	fp, #7428	; 0x1d04
     f00:	00000865 	andeq	r0, r0, r5, ror #16
     f04:	c704040f 	strgt	r0, [r4, -pc, lsl #8]
     f08:	09a00501 	stmibeq	r0!, {r0, r8, sl}
     f0c:	640c0000 	strvs	r0, [ip], #-0
     f10:	c8040030 	stmdagt	r4, {r4, r5}
     f14:	008f1201 	addeq	r1, pc, r1, lsl #4
     f18:	02040000 	andeq	r0, r4, #0
     f1c:	640c001e 	strvs	r0, [ip], #-30	; 0xffffffe2
     f20:	c9040031 	stmdbgt	r4, {r0, r4, r5}
     f24:	008f1201 	addeq	r1, pc, r1, lsl #4
     f28:	02040000 	andeq	r0, r4, #0
     f2c:	640c001c 	strvs	r0, [ip], #-28	; 0xffffffe4
     f30:	ca040032 	bgt	101000 <__kernel_size__+0xffacc>
     f34:	008f1201 	addeq	r1, pc, r1, lsl #4
     f38:	02040000 	andeq	r0, r4, #0
     f3c:	640c001a 	strvs	r0, [ip], #-26	; 0xffffffe6
     f40:	cb040033 	blgt	101014 <__kernel_size__+0xffae0>
     f44:	008f1201 	addeq	r1, pc, r1, lsl #4
     f48:	02040000 	andeq	r0, r4, #0
     f4c:	640c0018 	strvs	r0, [ip], #-24	; 0xffffffe8
     f50:	cc040034 	stcgt	0, cr0, [r4], {52}	; 0x34
     f54:	008f1201 	addeq	r1, pc, r1, lsl #4
     f58:	02040000 	andeq	r0, r4, #0
     f5c:	640c0016 	strvs	r0, [ip], #-22	; 0xffffffea
     f60:	cd040035 	stcgt	0, cr0, [r4, #-212]	; 0xffffff2c
     f64:	008f1201 	addeq	r1, pc, r1, lsl #4
     f68:	02040000 	andeq	r0, r4, #0
     f6c:	640c0014 	strvs	r0, [ip], #-20	; 0xffffffec
     f70:	ce040036 	mcrgt	0, 0, r0, cr4, cr6, {1}
     f74:	008f1201 	addeq	r1, pc, r1, lsl #4
     f78:	02040000 	andeq	r0, r4, #0
     f7c:	640c0012 	strvs	r0, [ip], #-18	; 0xffffffee
     f80:	cf040037 	svcgt	0x00040037
     f84:	008f1201 	addeq	r1, pc, r1, lsl #4
     f88:	02040000 	andeq	r0, r4, #0
     f8c:	640c0010 	strvs	r0, [ip], #-16
     f90:	d0040038 	andle	r0, r4, r8, lsr r0
     f94:	008f1201 	addeq	r1, pc, r1, lsl #4
     f98:	02040000 	andeq	r0, r4, #0
     f9c:	640c000e 	strvs	r0, [ip], #-14
     fa0:	d1040039 	tstle	r4, r9, lsr r0
     fa4:	008f1201 	addeq	r1, pc, r1, lsl #4
     fa8:	02040000 	andeq	r0, r4, #0
     fac:	640c000c 	strvs	r0, [ip], #-12
     fb0:	04003031 	streq	r3, [r0], #-49	; 0xffffffcf
     fb4:	8f1201d2 	svchi	0x001201d2
     fb8:	04000000 	streq	r0, [r0], #-0
     fbc:	0c000a02 			; <UNDEFINED> instruction: 0x0c000a02
     fc0:	00313164 	eorseq	r3, r1, r4, ror #2
     fc4:	1201d304 	andne	sp, r1, #4, 6	; 0x10000000
     fc8:	0000008f 	andeq	r0, r0, pc, lsl #1
     fcc:	00080204 	andeq	r0, r8, r4, lsl #4
     fd0:	3231640c 	eorscc	r6, r1, #12, 8	; 0xc000000
     fd4:	01d40400 	bicseq	r0, r4, r0, lsl #8
     fd8:	00008f12 	andeq	r8, r0, r2, lsl pc
     fdc:	06020400 	streq	r0, [r2], -r0, lsl #8
     fe0:	31640c00 	cmncc	r4, r0, lsl #24
     fe4:	d5040033 	strle	r0, [r4, #-51]	; 0xffffffcd
     fe8:	008f1201 	addeq	r1, pc, r1, lsl #4
     fec:	02040000 	andeq	r0, r4, #0
     ff0:	640c0004 	strvs	r0, [ip], #-4
     ff4:	04003431 	streq	r3, [r0], #-1073	; 0xfffffbcf
     ff8:	8f1201d6 	svchi	0x001201d6
     ffc:	04000000 	streq	r0, [r0], #-0
    1000:	0c000202 	sfmeq	f0, 4, [r0], {2}
    1004:	00353164 	eorseq	r3, r5, r4, ror #2
    1008:	1201d704 	andne	sp, r1, #4, 14	; 0x100000
    100c:	0000008f 	andeq	r0, r0, pc, lsl #1
    1010:	00000204 	andeq	r0, r0, r4, lsl #4
    1014:	04041000 	streq	r1, [r4], #-0
    1018:	bd0901c5 	stflts	f0, [r9, #-788]	; 0xfffffcec
    101c:	11000009 	tstne	r0, r9
    1020:	00000b3b 	andeq	r0, r0, fp, lsr fp
    1024:	0e01c604 	cfmadd32eq	mvax0, mvfx12, mvfx1, mvfx4
    1028:	0000008f 	andeq	r0, r0, pc, lsl #1
    102c:	00088f0b 	andeq	r8, r8, fp, lsl #30
    1030:	b70e0000 	strlt	r0, [lr, -r0]
    1034:	0400000e 	streq	r0, [r0], #-14
    1038:	a00301d9 	ldrdge	r0, [r3], -r9
    103c:	12000009 	andne	r0, r0, #9
    1040:	00000eed 	andeq	r0, r0, sp, ror #29
    1044:	2f012101 	svccs	0x00012101
    1048:	70030410 	andvc	r0, r3, r0, lsl r4
    104c:	00000024 	andeq	r0, r0, r4, lsr #32
    1050:	e0139c01 	ands	r9, r3, r1, lsl #24
    1054:	0100000b 	tsteq	r0, fp
    1058:	c42f0112 	strtgt	r0, [pc], #-274	; 1060 <C_STACK_SIZE+0x60>
    105c:	4c700303 	ldclmi	3, cr0, [r0], #-12
    1060:	01000000 	mrseq	r0, (UNDEF: 0)
    1064:	000a159c 	muleq	sl, ip, r5
    1068:	0d291400 	cfstrseq	mvf1, [r9, #-0]
    106c:	12010000 	andne	r0, r1, #0
    1070:	00dd4401 	sbcseq	r4, sp, r1, lsl #8
    1074:	91020000 	mrsls	r0, (UNDEF: 2)
    1078:	0d23156f 	cfstr32eq	mvfx1, [r3, #-444]!	; 0xfffffe44
    107c:	14010000 	strne	r0, [r1], #-0
    1080:	08820b01 	stmeq	r2, {r0, r8, r9, fp}
    1084:	91020000 	mrsls	r0, (UNDEF: 2)
    1088:	70130074 	andsvc	r0, r3, r4, ror r0
    108c:	0100000e 	tsteq	r0, lr
    1090:	782f0105 	stmdavc	pc!, {r0, r2, r8}	; <UNPREDICTABLE>
    1094:	4c700303 	ldclmi	3, cr0, [r0], #-12
    1098:	01000000 	mrseq	r0, (UNDEF: 0)
    109c:	000a4c9c 	muleq	sl, ip, ip
    10a0:	66611600 	strbtvs	r1, [r1], -r0, lsl #12
    10a4:	01050100 	mrseq	r0, (UNDEF: 21)
    10a8:	0000b64e 	andeq	fp, r0, lr, asr #12
    10ac:	6f910200 	svcvs	0x00910200
    10b0:	000d2315 	andeq	r2, sp, r5, lsl r3
    10b4:	01070100 	mrseq	r0, (UNDEF: 23)
    10b8:	0008820b 	andeq	r8, r8, fp, lsl #4
    10bc:	74910200 	ldrvc	r0, [r1], #512	; 0x200
    10c0:	0cd91700 	ldcleq	7, cr1, [r9], {0}
    10c4:	f2010000 	vhadd.s8	d0, d1, d0
    10c8:	0303102f 	movweq	r1, #12335	; 0x302f
    10cc:	00006870 	andeq	r6, r0, r0, ror r8
    10d0:	9f9c0100 	svcls	0x009c0100
    10d4:	1800000a 	stmdane	r0, {r1, r3}
    10d8:	00000c26 	andeq	r0, r0, r6, lsr #24
    10dc:	8f6bf201 	svchi	0x006bf201
    10e0:	02000000 	andeq	r0, r0, #0
    10e4:	f8196491 			; <UNDEFINED> instruction: 0xf8196491
    10e8:	0100000b 	tsteq	r0, fp
    10ec:	05120bf4 	ldreq	r0, [r2, #-3060]	; 0xfffff40c
    10f0:	91020000 	mrsls	r0, (UNDEF: 2)
    10f4:	13d71970 	bicsne	r1, r7, #112, 18	; 0x1c0000
    10f8:	f5010000 			; <UNDEFINED> instruction: 0xf5010000
    10fc:	0005bc0b 	andeq	fp, r5, fp, lsl #24
    1100:	6c910200 	lfmvs	f0, 4, [r1], {0}
    1104:	000ba619 	andeq	sl, fp, r9, lsl r6
    1108:	0df70100 	ldfeqe	f0, [r7]
    110c:	00000083 	andeq	r0, r0, r3, lsl #1
    1110:	00779102 	rsbseq	r9, r7, r2, lsl #2
    1114:	000a6d1a 	andeq	r6, sl, sl, lsl sp
    1118:	33dd0100 	bicscc	r0, sp, #0, 2
    111c:	0000008f 	andeq	r0, r0, pc, lsl #1
    1120:	700302a8 	andvc	r0, r3, r8, lsr #5
    1124:	00000068 	andeq	r0, r0, r8, rrx
    1128:	0af69c01 	beq	ffda8134 <__TAREA_1_RODATA_PHY+0x7f654134>
    112c:	f8190000 			; <UNDEFINED> instruction: 0xf8190000
    1130:	0100000b 	tsteq	r0, fp
    1134:	05120bdf 	ldreq	r0, [r2, #-3039]	; 0xfffff421
    1138:	91020000 	mrsls	r0, (UNDEF: 2)
    113c:	13d7196c 	bicsne	r1, r7, #108, 18	; 0x1b0000
    1140:	e0010000 	and	r0, r1, r0
    1144:	0005bc0b 	andeq	fp, r5, fp, lsl #24
    1148:	68910200 	ldmvs	r1, {r9}
    114c:	000ba619 	andeq	sl, fp, r9, lsl r6
    1150:	0de20100 	stfeqe	f0, [r2]
    1154:	00000083 	andeq	r0, r0, r3, lsl #1
    1158:	19739102 	ldmdbne	r3!, {r1, r8, ip, pc}^
    115c:	00000c23 	andeq	r0, r0, r3, lsr #24
    1160:	8f0ee301 	svchi	0x000ee301
    1164:	02000000 	andeq	r0, r0, #0
    1168:	1b007491 	blne	1e3b4 <__kernel_size__+0x1ce80>
    116c:	00000bfe 	strdeq	r0, [r0], -lr
    1170:	802fd301 	eorhi	sp, pc, r1, lsl #6
    1174:	28700302 	ldmdacs	r0!, {r1, r8, r9}^
    1178:	01000000 	mrseq	r0, (UNDEF: 0)
    117c:	000b1c9c 	muleq	fp, ip, ip
    1180:	0b8d1800 	bleq	fe347188 <__TAREA_1_RODATA_PHY+0x7dbf3188>
    1184:	d3010000 	movwle	r0, #4096	; 0x1000
    1188:	00008f45 	andeq	r8, r0, r5, asr #30
    118c:	74910200 	ldrvc	r0, [r1], #512	; 0x200
    1190:	0c611c00 	stcleq	12, cr1, [r1], #-0
    1194:	c5010000 	strgt	r0, [r1, #-0]
    1198:	00008f33 	andeq	r8, r0, r3, lsr pc
    119c:	03025800 	movweq	r5, #10240	; 0x2800
    11a0:	00002870 	andeq	r2, r0, r0, ror r8
    11a4:	469c0100 	ldrmi	r0, [ip], r0, lsl #2
    11a8:	1900000b 	stmdbne	r0, {r0, r1, r3}
    11ac:	00000b8d 	andeq	r0, r0, sp, lsl #23
    11b0:	8f0ec701 	svchi	0x000ec701
    11b4:	02000000 	andeq	r0, r0, #0
    11b8:	1b007491 	blne	1e404 <__kernel_size__+0x1ced0>
    11bc:	00000e08 	andeq	r0, r0, r8, lsl #28
    11c0:	282fb901 	stmdacs	pc!, {r0, r8, fp, ip, sp, pc}	; <UNPREDICTABLE>
    11c4:	30700302 	rsbscc	r0, r0, r2, lsl #6
    11c8:	01000000 	mrseq	r0, (UNDEF: 0)
    11cc:	000b6c9c 	muleq	fp, ip, ip
    11d0:	0d231800 	stceq	8, cr1, [r3, #-0]
    11d4:	b9010000 	stmdblt	r1, {}	; <UNPREDICTABLE>
    11d8:	00088243 	andeq	r8, r8, r3, asr #4
    11dc:	74910200 	ldrvc	r0, [r1], #512	; 0x200
    11e0:	0c7c1d00 	ldcleq	13, cr1, [ip], #-0
    11e4:	ab010000 	blge	411ec <__kernel_size__+0x3fcb8>
    11e8:	00088230 	andeq	r8, r8, r0, lsr r2
    11ec:	03020000 	movweq	r0, #8192	; 0x2000
    11f0:	00002870 	andeq	r2, r0, r0, ror r8
    11f4:	969c0100 	ldrls	r0, [ip], r0, lsl #2
    11f8:	1900000b 	stmdbne	r0, {r0, r1, r3}
    11fc:	00000d23 	andeq	r0, r0, r3, lsr #26
    1200:	820bad01 	andhi	sl, fp, #1, 26	; 0x40
    1204:	02000008 	andeq	r0, r0, #8
    1208:	1b007491 	blne	1e454 <__kernel_size__+0x1cf20>
    120c:	00000aa0 	andeq	r0, r0, r0, lsr #21
    1210:	d02f9f01 	eorle	r9, pc, r1, lsl #30
    1214:	30700301 	rsbscc	r0, r0, r1, lsl #6
    1218:	01000000 	mrseq	r0, (UNDEF: 0)
    121c:	000bbc9c 	muleq	fp, ip, ip
    1220:	0ba01800 	bleq	fe807228 <__TAREA_1_RODATA_PHY+0x7e0b3228>
    1224:	9f010000 	svcls	0x00010000
    1228:	00067743 	andeq	r7, r6, r3, asr #14
    122c:	74910200 	ldrvc	r0, [r1], #512	; 0x200
    1230:	0b7f1d00 	bleq	1fc8638 <__kernel_size__+0x1fc7104>
    1234:	91010000 	mrsls	r0, (UNDEF: 1)
    1238:	00067730 	andeq	r7, r6, r0, lsr r7
    123c:	0301a800 	movweq	sl, #6144	; 0x1800
    1240:	00002870 	andeq	r2, r0, r0, ror r8
    1244:	e69c0100 	ldr	r0, [ip], r0, lsl #2
    1248:	1900000b 	stmdbne	r0, {r0, r1, r3}
    124c:	00000ba0 	andeq	r0, r0, r0, lsr #23
    1250:	770b9301 	strvc	r9, [fp, -r1, lsl #6]
    1254:	02000006 	andeq	r0, r0, #6
    1258:	1b007491 	blne	1e4a4 <__kernel_size__+0x1cf70>
    125c:	00000c0b 	andeq	r0, r0, fp, lsl #24
    1260:	782f8301 	stmdavc	pc!, {r0, r8, r9, pc}	; <UNPREDICTABLE>
    1264:	30700301 	rsbscc	r0, r0, r1, lsl #6
    1268:	01000000 	mrseq	r0, (UNDEF: 0)
    126c:	000c0c9c 	muleq	ip, ip, ip
    1270:	13d71800 	bicsne	r1, r7, #0, 16
    1274:	83010000 	movwhi	r0, #4096	; 0x1000
    1278:	0005bc43 	andeq	fp, r5, r3, asr #24
    127c:	74910200 	ldrvc	r0, [r1], #512	; 0x200
    1280:	0b711d00 	bleq	1c48688 <__kernel_size__+0x1c47154>
    1284:	75010000 	strvc	r0, [r1, #-0]
    1288:	0005bc30 	andeq	fp, r5, r0, lsr ip
    128c:	03015000 	movweq	r5, #4096	; 0x1000
    1290:	00002870 	andeq	r2, r0, r0, ror r8
    1294:	369c0100 	ldrcc	r0, [ip], r0, lsl #2
    1298:	1900000c 	stmdbne	r0, {r2, r3}
    129c:	000013d7 	ldrdeq	r1, [r0], -r7
    12a0:	bc0b7701 	stclt	7, cr7, [fp], {1}
    12a4:	02000005 	andeq	r0, r0, #5
    12a8:	1b007491 	blne	1e4f4 <__kernel_size__+0x1cfc0>
    12ac:	00000beb 	andeq	r0, r0, fp, ror #23
    12b0:	202f6801 	eorcs	r6, pc, r1, lsl #16
    12b4:	30700301 	rsbscc	r0, r0, r1, lsl #6
    12b8:	01000000 	mrseq	r0, (UNDEF: 0)
    12bc:	000c5c9c 	muleq	ip, ip, ip
    12c0:	0b3b1800 	bleq	ec72c8 <__kernel_size__+0xec5d94>
    12c4:	68010000 	stmdavs	r1, {}	; <UNPREDICTABLE>
    12c8:	0009bd41 	andeq	fp, r9, r1, asr #26
    12cc:	74910200 	ldrvc	r0, [r1], #512	; 0x200
    12d0:	0eaf1d00 	cdpeq	13, 10, cr1, cr15, cr0, {0}
    12d4:	5a010000 	bpl	412dc <__kernel_size__+0x3fda8>
    12d8:	0009bd2f 	andeq	fp, r9, pc, lsr #26
    12dc:	0300f800 	movweq	pc, #2048	; 0x800	; <UNPREDICTABLE>
    12e0:	00002870 	andeq	r2, r0, r0, ror r8
    12e4:	869c0100 	ldrhi	r0, [ip], r0, lsl #2
    12e8:	1900000c 	stmdbne	r0, {r2, r3}
    12ec:	00000b3b 	andeq	r0, r0, fp, lsr fp
    12f0:	bd0a5c01 	stclt	12, cr5, [sl, #-4]
    12f4:	02000009 	andeq	r0, r0, #9
    12f8:	1b007491 	blne	1e544 <__kernel_size__+0x1d010>
    12fc:	00000adc 	ldrdeq	r0, [r0], -ip
    1300:	c82f4e01 	stmdagt	pc!, {r0, r9, sl, fp, lr}	; <UNPREDICTABLE>
    1304:	30700300 	rsbscc	r0, r0, r0, lsl #6
    1308:	01000000 	mrseq	r0, (UNDEF: 0)
    130c:	000cac9c 	muleq	ip, ip, ip
    1310:	0bf81800 	bleq	ffe07318 <__TAREA_1_RODATA_PHY+0x7f6b3318>
    1314:	4e010000 	cdpmi	0, 0, cr0, cr1, cr0, {0}
    1318:	00051243 	andeq	r1, r5, r3, asr #4
    131c:	74910200 	ldrvc	r0, [r1], #512	; 0x200
    1320:	0bd21d00 	bleq	ff488728 <__TAREA_1_RODATA_PHY+0x7ed34728>
    1324:	40010000 	andmi	r0, r1, r0
    1328:	00051230 	andeq	r1, r5, r0, lsr r2
    132c:	0300a000 	movweq	sl, #0
    1330:	00002870 	andeq	r2, r0, r0, ror r8
    1334:	d69c0100 	ldrle	r0, [ip], r0, lsl #2
    1338:	1900000c 	stmdbne	r0, {r2, r3}
    133c:	00000bf8 	strdeq	r0, [r0], -r8
    1340:	120b4201 	andne	r4, fp, #268435456	; 0x10000000
    1344:	02000005 	andeq	r0, r0, #5
    1348:	1d007491 	cfstrsne	mvf7, [r0, #-580]	; 0xfffffdbc
    134c:	00000e27 	andeq	r0, r0, r7, lsr #28
    1350:	a1333201 	teqge	r3, r1, lsl #4
    1354:	78000003 	stmdavc	r0, {r0, r1}
    1358:	28700300 	ldmdacs	r0!, {r8, r9}^
    135c:	01000000 	mrseq	r0, (UNDEF: 0)
    1360:	000d009c 	muleq	sp, ip, r0
    1364:	0d4f1900 	vstreq.16	s3, [pc, #-0]	; 136c <C_STACK_SIZE+0x36c>	; <UNPREDICTABLE>
    1368:	34010000 	strcc	r0, [r1], #-0
    136c:	0003a10e 	andeq	sl, r3, lr, lsl #2
    1370:	74910200 	ldrvc	r0, [r1], #512	; 0x200
    1374:	0ebc1d00 	cdpeq	13, 11, cr1, cr12, cr0, {0}
    1378:	24010000 	strcs	r0, [r1], #-0
    137c:	0002f033 	andeq	pc, r2, r3, lsr r0	; <UNPREDICTABLE>
    1380:	03005000 	movweq	r5, #0
    1384:	00002870 	andeq	r2, r0, r0, ror r8
    1388:	2a9c0100 	bcs	fe701790 <__TAREA_1_RODATA_PHY+0x7dfad790>
    138c:	1900000d 	stmdbne	r0, {r0, r2, r3}
    1390:	00000d49 	andeq	r0, r0, r9, asr #26
    1394:	f00e2601 			; <UNDEFINED> instruction: 0xf00e2601
    1398:	02000002 	andeq	r0, r0, #2
    139c:	1d007491 	cfstrsne	mvf7, [r0, #-580]	; 0xfffffdbc
    13a0:	00000e16 	andeq	r0, r0, r6, lsl lr
    13a4:	3f331601 	svccc	0x00331601
    13a8:	28000002 	stmdacs	r0, {r1}
    13ac:	28700300 	ldmdacs	r0!, {r8, r9}^
    13b0:	01000000 	mrseq	r0, (UNDEF: 0)
    13b4:	000d549c 	muleq	sp, ip, r4
    13b8:	0d431900 	vstreq.16	s3, [r3, #-0]	; <UNPREDICTABLE>
    13bc:	18010000 	stmdane	r1, {}	; <UNPREDICTABLE>
    13c0:	00023f0e 	andeq	r3, r2, lr, lsl #30
    13c4:	74910200 	ldrvc	r0, [r1], #512	; 0x200
    13c8:	0e9e1e00 	cdpeq	14, 9, cr1, cr14, cr0, {0}
    13cc:	08010000 	stmdaeq	r1, {}	; <UNPREDICTABLE>
    13d0:	00018e33 	andeq	r8, r1, r3, lsr lr
    13d4:	03000000 	movweq	r0, #0
    13d8:	00002870 	andeq	r2, r0, r0, ror r8
    13dc:	199c0100 	ldmibne	ip, {r8}
    13e0:	00000d3d 	andeq	r0, r0, sp, lsr sp
    13e4:	8e0e0a01 	vmlahi.f32	s0, s28, s2
    13e8:	02000001 	andeq	r0, r0, #1
    13ec:	00007491 	muleq	r0, r1, r4
    13f0:	00000912 	andeq	r0, r0, r2, lsl r9
    13f4:	02ee0004 	rsceq	r0, lr, #4
    13f8:	01040000 	mrseq	r0, (UNDEF: 4)
    13fc:	00000287 	andeq	r0, r0, r7, lsl #5
    1400:	000f6b0c 	andeq	r6, pc, ip, lsl #22
    1404:	00095f00 	andeq	r5, r9, r0, lsl #30
    1408:	0000c800 	andeq	ip, r0, r0, lsl #16
    140c:	00000000 	andeq	r0, r0, r0
    1410:	0003c100 	andeq	ip, r3, r0, lsl #2
    1414:	05040200 	streq	r0, [r4, #-512]	; 0xfffffe00
    1418:	00746e69 	rsbseq	r6, r4, r9, ror #28
    141c:	99070403 	stmdbls	r7, {r0, r1, sl}
    1420:	03000005 	movweq	r0, #5
    1424:	05290601 	streq	r0, [r9, #-1537]!	; 0xfffff9ff
    1428:	01030000 	mrseq	r0, (UNDEF: 3)
    142c:	00052708 	andeq	r2, r5, r8, lsl #14
    1430:	05020300 	streq	r0, [r2, #-768]	; 0xfffffd00
    1434:	000000a7 	andeq	r0, r0, r7, lsr #1
    1438:	fe070203 	cdp2	2, 0, cr0, cr7, cr3, {0}
    143c:	03000005 	movweq	r0, #5
    1440:	039a0504 	orrseq	r0, sl, #4, 10	; 0x1000000
    1444:	64040000 	strvs	r0, [r4], #-0
    1448:	02000001 	andeq	r0, r0, #1
    144c:	0062194f 	rsbeq	r1, r2, pc, asr #18
    1450:	04030000 	streq	r0, [r3], #-0
    1454:	00059407 	andeq	r9, r5, r7, lsl #8
    1458:	05080300 	streq	r0, [r8, #-768]	; 0xfffffd00
    145c:	00000395 	muleq	r0, r5, r3
    1460:	8f070803 	svchi	0x00070803
    1464:	04000005 	streq	r0, [r0], #-5
    1468:	00000166 	andeq	r0, r0, r6, ror #2
    146c:	56143003 	ldrpl	r3, [r4], -r3
    1470:	05000000 	streq	r0, [r0, #-0]
    1474:	003a0107 	eorseq	r0, sl, r7, lsl #2
    1478:	56040000 	strpl	r0, [r4], -r0
    147c:	00009e0e 	andeq	r9, r0, lr, lsl #28
    1480:	0b920600 	bleq	fe482c88 <__TAREA_1_RODATA_PHY+0x7dd2ec88>
    1484:	06010000 	streq	r0, [r1], -r0
    1488:	00000acf 	andeq	r0, r0, pc, asr #21
    148c:	a1040000 	mrsge	r0, (UNDEF: 4)
    1490:	0400000c 	streq	r0, [r0], #-12
    1494:	00830359 	addeq	r0, r3, r9, asr r3
    1498:	04070000 	streq	r0, [r7], #-0
    149c:	05011c04 	streq	r1, [r1, #-3076]	; 0xfffff3fc
    14a0:	0000012a 	andeq	r0, r0, sl, lsr #2
    14a4:	000b0c08 	andeq	r0, fp, r8, lsl #24
    14a8:	011d0400 	tsteq	sp, r0, lsl #8
    14ac:	00007712 	andeq	r7, r0, r2, lsl r7
    14b0:	1f010400 	svcne	0x00010400
    14b4:	00530900 	subseq	r0, r3, r0, lsl #18
    14b8:	12011e04 	andne	r1, r1, #4, 28	; 0x40
    14bc:	00000077 	andeq	r0, r0, r7, ror r0
    14c0:	001e0104 	andseq	r0, lr, r4, lsl #2
    14c4:	504d4909 	subpl	r4, sp, r9, lsl #18
    14c8:	011f0400 	tsteq	pc, r0, lsl #8
    14cc:	00007712 	andeq	r7, r0, r2, lsl r7
    14d0:	1d010400 	cfstrsne	mvf0, [r1, #-0]
    14d4:	47520900 	ldrbmi	r0, [r2, -r0, lsl #18]
    14d8:	2004004e 	andcs	r0, r4, lr, asr #32
    14dc:	00771201 	rsbseq	r1, r7, r1, lsl #4
    14e0:	02040000 	andeq	r0, r4, #0
    14e4:	4e09001b 	mcrmi	0, 0, r0, cr9, cr11, {0}
    14e8:	0400534f 	streq	r5, [r0], #-847	; 0xfffffcb1
    14ec:	77120121 	ldrvc	r0, [r2, -r1, lsr #2]
    14f0:	04000000 	streq	r0, [r0], #-0
    14f4:	08001a01 	stmdaeq	r0, {r0, r9, fp, ip}
    14f8:	00000b13 	andeq	r0, r0, r3, lsl fp
    14fc:	12012204 	andne	r2, r1, #4, 4	; 0x40000000
    1500:	00000077 	andeq	r0, r0, r7, ror r0
    1504:	00190104 	andseq	r0, r9, r4, lsl #2
    1508:	000c8a08 	andeq	r8, ip, r8, lsl #20
    150c:	01230400 			; <UNDEFINED> instruction: 0x01230400
    1510:	00007712 	andeq	r7, r0, r2, lsl r7
    1514:	00190400 	andseq	r0, r9, r0, lsl #8
    1518:	040a0000 	streq	r0, [sl], #-0
    151c:	09011a04 	stmdbeq	r1, {r2, r9, fp, ip}
    1520:	00000147 	andeq	r0, r0, r7, asr #2
    1524:	0013d70b 	andseq	sp, r3, fp, lsl #14
    1528:	011b0400 	tsteq	fp, r0, lsl #8
    152c:	0000770e 	andeq	r7, r0, lr, lsl #14
    1530:	00aa0c00 	adceq	r0, sl, r0, lsl #24
    1534:	0d000000 	stceq	0, cr0, [r0, #-0]
    1538:	00000b79 	andeq	r0, r0, r9, ror fp
    153c:	03012504 	movweq	r2, #5380	; 0x1504
    1540:	0000012a 	andeq	r0, r0, sl, lsr #2
    1544:	c7040407 	strgt	r0, [r4, -r7, lsl #8]
    1548:	02650501 	rsbeq	r0, r5, #4194304	; 0x400000
    154c:	64090000 	strvs	r0, [r9], #-0
    1550:	c8040030 	stmdagt	r4, {r4, r5}
    1554:	00771201 	rsbseq	r1, r7, r1, lsl #4
    1558:	02040000 	andeq	r0, r4, #0
    155c:	6409001e 	strvs	r0, [r9], #-30	; 0xffffffe2
    1560:	c9040031 	stmdbgt	r4, {r0, r4, r5}
    1564:	00771201 	rsbseq	r1, r7, r1, lsl #4
    1568:	02040000 	andeq	r0, r4, #0
    156c:	6409001c 	strvs	r0, [r9], #-28	; 0xffffffe4
    1570:	ca040032 	bgt	101640 <__kernel_size__+0x10010c>
    1574:	00771201 	rsbseq	r1, r7, r1, lsl #4
    1578:	02040000 	andeq	r0, r4, #0
    157c:	6409001a 	strvs	r0, [r9], #-26	; 0xffffffe6
    1580:	cb040033 	blgt	101654 <__kernel_size__+0x100120>
    1584:	00771201 	rsbseq	r1, r7, r1, lsl #4
    1588:	02040000 	andeq	r0, r4, #0
    158c:	64090018 	strvs	r0, [r9], #-24	; 0xffffffe8
    1590:	cc040034 	stcgt	0, cr0, [r4], {52}	; 0x34
    1594:	00771201 	rsbseq	r1, r7, r1, lsl #4
    1598:	02040000 	andeq	r0, r4, #0
    159c:	64090016 	strvs	r0, [r9], #-22	; 0xffffffea
    15a0:	cd040035 	stcgt	0, cr0, [r4, #-212]	; 0xffffff2c
    15a4:	00771201 	rsbseq	r1, r7, r1, lsl #4
    15a8:	02040000 	andeq	r0, r4, #0
    15ac:	64090014 	strvs	r0, [r9], #-20	; 0xffffffec
    15b0:	ce040036 	mcrgt	0, 0, r0, cr4, cr6, {1}
    15b4:	00771201 	rsbseq	r1, r7, r1, lsl #4
    15b8:	02040000 	andeq	r0, r4, #0
    15bc:	64090012 	strvs	r0, [r9], #-18	; 0xffffffee
    15c0:	cf040037 	svcgt	0x00040037
    15c4:	00771201 	rsbseq	r1, r7, r1, lsl #4
    15c8:	02040000 	andeq	r0, r4, #0
    15cc:	64090010 	strvs	r0, [r9], #-16
    15d0:	d0040038 	andle	r0, r4, r8, lsr r0
    15d4:	00771201 	rsbseq	r1, r7, r1, lsl #4
    15d8:	02040000 	andeq	r0, r4, #0
    15dc:	6409000e 	strvs	r0, [r9], #-14
    15e0:	d1040039 	tstle	r4, r9, lsr r0
    15e4:	00771201 	rsbseq	r1, r7, r1, lsl #4
    15e8:	02040000 	andeq	r0, r4, #0
    15ec:	6409000c 	strvs	r0, [r9], #-12
    15f0:	04003031 	streq	r3, [r0], #-49	; 0xffffffcf
    15f4:	771201d2 			; <UNDEFINED> instruction: 0x771201d2
    15f8:	04000000 	streq	r0, [r0], #-0
    15fc:	09000a02 	stmdbeq	r0, {r1, r9, fp}
    1600:	00313164 	eorseq	r3, r1, r4, ror #2
    1604:	1201d304 	andne	sp, r1, #4, 6	; 0x10000000
    1608:	00000077 	andeq	r0, r0, r7, ror r0
    160c:	00080204 	andeq	r0, r8, r4, lsl #4
    1610:	32316409 	eorscc	r6, r1, #150994944	; 0x9000000
    1614:	01d40400 	bicseq	r0, r4, r0, lsl #8
    1618:	00007712 	andeq	r7, r0, r2, lsl r7
    161c:	06020400 	streq	r0, [r2], -r0, lsl #8
    1620:	31640900 	cmncc	r4, r0, lsl #18
    1624:	d5040033 	strle	r0, [r4, #-51]	; 0xffffffcd
    1628:	00771201 	rsbseq	r1, r7, r1, lsl #4
    162c:	02040000 	andeq	r0, r4, #0
    1630:	64090004 	strvs	r0, [r9], #-4
    1634:	04003431 	streq	r3, [r0], #-1073	; 0xfffffbcf
    1638:	771201d6 			; <UNDEFINED> instruction: 0x771201d6
    163c:	04000000 	streq	r0, [r0], #-0
    1640:	09000202 	stmdbeq	r0, {r1, r9}
    1644:	00353164 	eorseq	r3, r5, r4, ror #2
    1648:	1201d704 	andne	sp, r1, #4, 14	; 0x100000
    164c:	00000077 	andeq	r0, r0, r7, ror r0
    1650:	00000204 	andeq	r0, r0, r4, lsl #4
    1654:	04040a00 	streq	r0, [r4], #-2560	; 0xfffff600
    1658:	820901c5 	andhi	r0, r9, #1073741873	; 0x40000031
    165c:	0b000002 	bleq	166c <__kernel_size__+0x138>
    1660:	00000b3b 	andeq	r0, r0, fp, lsr fp
    1664:	0e01c604 	cfmadd32eq	mvax0, mvfx12, mvfx1, mvfx4
    1668:	00000077 	andeq	r0, r0, r7, ror r0
    166c:	0001540c 	andeq	r5, r1, ip, lsl #8
    1670:	b70d0000 	strlt	r0, [sp, -r0]
    1674:	0400000e 	streq	r0, [r0], #-14
    1678:	650301d9 	strvs	r0, [r3, #-473]	; 0xfffffe27
    167c:	0e000002 	cdpeq	0, 0, cr0, cr0, cr2, {0}
    1680:	000006ea 	andeq	r0, r0, sl, ror #13
    1684:	77110805 	ldrvc	r0, [r1, -r5, lsl #16]
    1688:	0e000000 	cdpeq	0, 0, cr0, cr0, cr0, {0}
    168c:	00000109 	andeq	r0, r0, r9, lsl #2
    1690:	77110905 	ldrvc	r0, [r1, -r5, lsl #18]
    1694:	0e000000 	cdpeq	0, 0, cr0, cr0, cr0, {0}
    1698:	0000012f 	andeq	r0, r0, pc, lsr #2
    169c:	77110a05 	ldrvc	r0, [r1, -r5, lsl #20]
    16a0:	0e000000 	cdpeq	0, 0, cr0, cr0, cr0, {0}
    16a4:	0000079d 	muleq	r0, sp, r7
    16a8:	77110b05 	ldrvc	r0, [r1, -r5, lsl #22]
    16ac:	0e000000 	cdpeq	0, 0, cr0, cr0, cr0, {0}
    16b0:	00000155 	andeq	r0, r0, r5, asr r1
    16b4:	77110d05 	ldrvc	r0, [r1, -r5, lsl #26]
    16b8:	0e000000 	cdpeq	0, 0, cr0, cr0, cr0, {0}
    16bc:	000006c8 	andeq	r0, r0, r8, asr #13
    16c0:	77110e05 	ldrvc	r0, [r1, -r5, lsl #28]
    16c4:	0e000000 	cdpeq	0, 0, cr0, cr0, cr0, {0}
    16c8:	000002d9 	ldrdeq	r0, [r0], -r9
    16cc:	77110f05 	ldrvc	r0, [r1, -r5, lsl #30]
    16d0:	0e000000 	cdpeq	0, 0, cr0, cr0, cr0, {0}
    16d4:	00000676 	andeq	r0, r0, r6, ror r6
    16d8:	77111005 	ldrvc	r1, [r1, -r5]
    16dc:	0e000000 	cdpeq	0, 0, cr0, cr0, cr0, {0}
    16e0:	000008f7 	strdeq	r0, [r0], -r7
    16e4:	77111105 	ldrvc	r1, [r1, -r5, lsl #2]
    16e8:	0e000000 	cdpeq	0, 0, cr0, cr0, cr0, {0}
    16ec:	00000627 	andeq	r0, r0, r7, lsr #12
    16f0:	77111205 	ldrvc	r1, [r1, -r5, lsl #4]
    16f4:	0e000000 	cdpeq	0, 0, cr0, cr0, cr0, {0}
    16f8:	00000236 	andeq	r0, r0, r6, lsr r2
    16fc:	77111405 	ldrvc	r1, [r1, -r5, lsl #8]
    1700:	0e000000 	cdpeq	0, 0, cr0, cr0, cr0, {0}
    1704:	00000515 	andeq	r0, r0, r5, lsl r5
    1708:	77111505 	ldrvc	r1, [r1, -r5, lsl #10]
    170c:	0e000000 	cdpeq	0, 0, cr0, cr0, cr0, {0}
    1710:	0000057d 	andeq	r0, r0, sp, ror r5
    1714:	77111605 	ldrvc	r1, [r1, -r5, lsl #12]
    1718:	0e000000 	cdpeq	0, 0, cr0, cr0, cr0, {0}
    171c:	000002db 	ldrdeq	r0, [r0], -fp
    1720:	77111b05 	ldrvc	r1, [r1, -r5, lsl #22]
    1724:	0e000000 	cdpeq	0, 0, cr0, cr0, cr0, {0}
    1728:	0000004b 	andeq	r0, r0, fp, asr #32
    172c:	77112005 	ldrvc	r2, [r1, -r5]
    1730:	0e000000 	cdpeq	0, 0, cr0, cr0, cr0, {0}
    1734:	000004ac 	andeq	r0, r0, ip, lsr #9
    1738:	77112205 	ldrvc	r2, [r1, -r5, lsl #4]
    173c:	0e000000 	cdpeq	0, 0, cr0, cr0, cr0, {0}
    1740:	0000036e 	andeq	r0, r0, lr, ror #6
    1744:	77112405 	ldrvc	r2, [r1, -r5, lsl #8]
    1748:	0e000000 	cdpeq	0, 0, cr0, cr0, cr0, {0}
    174c:	0000069c 	muleq	r0, ip, r6
    1750:	77112705 	ldrvc	r2, [r1, -r5, lsl #14]
    1754:	0e000000 	cdpeq	0, 0, cr0, cr0, cr0, {0}
    1758:	00000324 	andeq	r0, r0, r4, lsr #6
    175c:	77112805 	ldrvc	r2, [r1, -r5, lsl #16]
    1760:	0e000000 	cdpeq	0, 0, cr0, cr0, cr0, {0}
    1764:	00000931 	andeq	r0, r0, r1, lsr r9
    1768:	77112905 	ldrvc	r2, [r1, -r5, lsl #18]
    176c:	0e000000 	cdpeq	0, 0, cr0, cr0, cr0, {0}
    1770:	00000355 	andeq	r0, r0, r5, asr r3
    1774:	77112a05 	ldrvc	r2, [r1, -r5, lsl #20]
    1778:	0e000000 	cdpeq	0, 0, cr0, cr0, cr0, {0}
    177c:	00000077 	andeq	r0, r0, r7, ror r0
    1780:	77112c05 	ldrvc	r2, [r1, -r5, lsl #24]
    1784:	0e000000 	cdpeq	0, 0, cr0, cr0, cr0, {0}
    1788:	000008b4 			; <UNDEFINED> instruction: 0x000008b4
    178c:	77112e05 	ldrvc	r2, [r1, -r5, lsl #28]
    1790:	0e000000 	cdpeq	0, 0, cr0, cr0, cr0, {0}
    1794:	000009a6 	andeq	r0, r0, r6, lsr #19
    1798:	77112f05 	ldrvc	r2, [r1, -r5, lsl #30]
    179c:	0e000000 	cdpeq	0, 0, cr0, cr0, cr0, {0}
    17a0:	000003d0 	ldrdeq	r0, [r0], -r0	; <UNPREDICTABLE>
    17a4:	77113005 	ldrvc	r3, [r1, -r5]
    17a8:	0e000000 	cdpeq	0, 0, cr0, cr0, cr0, {0}
    17ac:	000003a3 	andeq	r0, r0, r3, lsr #7
    17b0:	77113105 	ldrvc	r3, [r1, -r5, lsl #2]
    17b4:	0e000000 	cdpeq	0, 0, cr0, cr0, cr0, {0}
    17b8:	000006b2 			; <UNDEFINED> instruction: 0x000006b2
    17bc:	77113205 	ldrvc	r3, [r1, -r5, lsl #4]
    17c0:	0e000000 	cdpeq	0, 0, cr0, cr0, cr0, {0}
    17c4:	00000008 	andeq	r0, r0, r8
    17c8:	77113605 	ldrvc	r3, [r1, -r5, lsl #12]
    17cc:	0e000000 	cdpeq	0, 0, cr0, cr0, cr0, {0}
    17d0:	00000494 	muleq	r0, r4, r4
    17d4:	77113705 	ldrvc	r3, [r1, -r5, lsl #14]
    17d8:	0e000000 	cdpeq	0, 0, cr0, cr0, cr0, {0}
    17dc:	000007ac 	andeq	r0, r0, ip, lsr #15
    17e0:	77113805 	ldrvc	r3, [r1, -r5, lsl #16]
    17e4:	0e000000 	cdpeq	0, 0, cr0, cr0, cr0, {0}
    17e8:	0000005c 	andeq	r0, r0, ip, asr r0
    17ec:	77113c05 	ldrvc	r3, [r1, -r5, lsl #24]
    17f0:	0e000000 	cdpeq	0, 0, cr0, cr0, cr0, {0}
    17f4:	0000072a 	andeq	r0, r0, sl, lsr #14
    17f8:	77113e05 	ldrvc	r3, [r1, -r5, lsl #28]
    17fc:	0e000000 	cdpeq	0, 0, cr0, cr0, cr0, {0}
    1800:	00000636 	andeq	r0, r0, r6, lsr r6
    1804:	77113f05 	ldrvc	r3, [r1, -r5, lsl #30]
    1808:	0e000000 	cdpeq	0, 0, cr0, cr0, cr0, {0}
    180c:	00000274 	andeq	r0, r0, r4, ror r2
    1810:	77114005 	ldrvc	r4, [r1, -r5]
    1814:	0e000000 	cdpeq	0, 0, cr0, cr0, cr0, {0}
    1818:	0000011a 	andeq	r0, r0, sl, lsl r1
    181c:	77114105 	ldrvc	r4, [r1, -r5, lsl #2]
    1820:	0e000000 	cdpeq	0, 0, cr0, cr0, cr0, {0}
    1824:	00000751 	andeq	r0, r0, r1, asr r7
    1828:	77114305 	ldrvc	r4, [r1, -r5, lsl #6]
    182c:	0e000000 	cdpeq	0, 0, cr0, cr0, cr0, {0}
    1830:	000001bc 			; <UNDEFINED> instruction: 0x000001bc
    1834:	77114405 	ldrvc	r4, [r1, -r5, lsl #8]
    1838:	0e000000 	cdpeq	0, 0, cr0, cr0, cr0, {0}
    183c:	0000091e 	andeq	r0, r0, lr, lsl r9
    1840:	77114505 	ldrvc	r4, [r1, -r5, lsl #10]
    1844:	0e000000 	cdpeq	0, 0, cr0, cr0, cr0, {0}
    1848:	00000788 	andeq	r0, r0, r8, lsl #15
    184c:	77114605 	ldrvc	r4, [r1, -r5, lsl #12]
    1850:	0e000000 	cdpeq	0, 0, cr0, cr0, cr0, {0}
    1854:	000002e8 	andeq	r0, r0, r8, ror #5
    1858:	77114805 	ldrvc	r4, [r1, -r5, lsl #16]
    185c:	0e000000 	cdpeq	0, 0, cr0, cr0, cr0, {0}
    1860:	000006d7 	ldrdeq	r0, [r0], -r7
    1864:	77114905 	ldrvc	r4, [r1, -r5, lsl #18]
    1868:	0e000000 	cdpeq	0, 0, cr0, cr0, cr0, {0}
    186c:	0000084b 	andeq	r0, r0, fp, asr #16
    1870:	77114b05 	ldrvc	r4, [r1, -r5, lsl #22]
    1874:	0e000000 	cdpeq	0, 0, cr0, cr0, cr0, {0}
    1878:	00000948 	andeq	r0, r0, r8, asr #18
    187c:	77114c05 	ldrvc	r4, [r1, -r5, lsl #24]
    1880:	0e000000 	cdpeq	0, 0, cr0, cr0, cr0, {0}
    1884:	000003b9 			; <UNDEFINED> instruction: 0x000003b9
    1888:	77114d05 	ldrvc	r4, [r1, -r5, lsl #26]
    188c:	0e000000 	cdpeq	0, 0, cr0, cr0, cr0, {0}
    1890:	0000030d 	andeq	r0, r0, sp, lsl #6
    1894:	77114e05 	ldrvc	r4, [r1, -r5, lsl #28]
    1898:	0e000000 	cdpeq	0, 0, cr0, cr0, cr0, {0}
    189c:	0000065f 	andeq	r0, r0, pc, asr r6
    18a0:	77114f05 	ldrvc	r4, [r1, -r5, lsl #30]
    18a4:	0e000000 	cdpeq	0, 0, cr0, cr0, cr0, {0}
    18a8:	00000648 	andeq	r0, r0, r8, asr #12
    18ac:	77115105 	ldrvc	r5, [r1, -r5, lsl #2]
    18b0:	0e000000 	cdpeq	0, 0, cr0, cr0, cr0, {0}
    18b4:	0000024b 	andeq	r0, r0, fp, asr #4
    18b8:	77115205 	ldrvc	r5, [r1, -r5, lsl #4]
    18bc:	0e000000 	cdpeq	0, 0, cr0, cr0, cr0, {0}
    18c0:	00000685 	andeq	r0, r0, r5, lsl #13
    18c4:	77115305 	ldrvc	r5, [r1, -r5, lsl #6]
    18c8:	0e000000 	cdpeq	0, 0, cr0, cr0, cr0, {0}
    18cc:	0000016f 	andeq	r0, r0, pc, ror #2
    18d0:	77115405 	ldrvc	r5, [r1, -r5, lsl #8]
    18d4:	0e000000 	cdpeq	0, 0, cr0, cr0, cr0, {0}
    18d8:	0000054b 	andeq	r0, r0, fp, asr #10
    18dc:	77115505 	ldrvc	r5, [r1, -r5, lsl #10]
    18e0:	0e000000 	cdpeq	0, 0, cr0, cr0, cr0, {0}
    18e4:	00000562 	andeq	r0, r0, r2, ror #10
    18e8:	77115705 	ldrvc	r5, [r1, -r5, lsl #14]
    18ec:	0e000000 	cdpeq	0, 0, cr0, cr0, cr0, {0}
    18f0:	000009fa 	strdeq	r0, [r0], -sl
    18f4:	77115805 	ldrvc	r5, [r1, -r5, lsl #16]
    18f8:	0e000000 	cdpeq	0, 0, cr0, cr0, cr0, {0}
    18fc:	000007ff 	strdeq	r0, [r0], -pc	; <UNPREDICTABLE>
    1900:	77115c05 	ldrvc	r5, [r1, -r5, lsl #24]
    1904:	0e000000 	cdpeq	0, 0, cr0, cr0, cr0, {0}
    1908:	0000083b 	andeq	r0, r0, fp, lsr r8
    190c:	77115d05 	ldrvc	r5, [r1, -r5, lsl #26]
    1910:	0e000000 	cdpeq	0, 0, cr0, cr0, cr0, {0}
    1914:	0000020d 	andeq	r0, r0, sp, lsl #4
    1918:	77115f05 	ldrvc	r5, [r1, -r5, lsl #30]
    191c:	0e000000 	cdpeq	0, 0, cr0, cr0, cr0, {0}
    1920:	000000e1 	andeq	r0, r0, r1, ror #1
    1924:	77116005 	ldrvc	r6, [r1, -r5]
    1928:	0e000000 	cdpeq	0, 0, cr0, cr0, cr0, {0}
    192c:	000001aa 	andeq	r0, r0, sl, lsr #3
    1930:	77116205 	ldrvc	r6, [r1, -r5, lsl #4]
    1934:	0e000000 	cdpeq	0, 0, cr0, cr0, cr0, {0}
    1938:	000004d4 	ldrdeq	r0, [r0], -r4
    193c:	77116305 	ldrvc	r6, [r1, -r5, lsl #6]
    1940:	0e000000 	cdpeq	0, 0, cr0, cr0, cr0, {0}
    1944:	000000f5 	strdeq	r0, [r0], -r5
    1948:	77116505 	ldrvc	r6, [r1, -r5, lsl #10]
    194c:	0e000000 	cdpeq	0, 0, cr0, cr0, cr0, {0}
    1950:	000004e9 	andeq	r0, r0, r9, ror #9
    1954:	77116605 	ldrvc	r6, [r1, -r5, lsl #12]
    1958:	0e000000 	cdpeq	0, 0, cr0, cr0, cr0, {0}
    195c:	00000779 	andeq	r0, r0, r9, ror r7
    1960:	77116805 	ldrvc	r6, [r1, -r5, lsl #16]
    1964:	0e000000 	cdpeq	0, 0, cr0, cr0, cr0, {0}
    1968:	000005db 	ldrdeq	r0, [r0], -fp
    196c:	77116905 	ldrvc	r6, [r1, -r5, lsl #18]
    1970:	0e000000 	cdpeq	0, 0, cr0, cr0, cr0, {0}
    1974:	00000482 	andeq	r0, r0, r2, lsl #9
    1978:	77116b05 	ldrvc	r6, [r1, -r5, lsl #22]
    197c:	0e000000 	cdpeq	0, 0, cr0, cr0, cr0, {0}
    1980:	00000862 	andeq	r0, r0, r2, ror #16
    1984:	77116c05 	ldrvc	r6, [r1, -r5, lsl #24]
    1988:	0e000000 	cdpeq	0, 0, cr0, cr0, cr0, {0}
    198c:	00000186 	andeq	r0, r0, r6, lsl #3
    1990:	77116e05 	ldrvc	r6, [r1, -r5, lsl #28]
    1994:	0e000000 	cdpeq	0, 0, cr0, cr0, cr0, {0}
    1998:	00000500 	andeq	r0, r0, r0, lsl #10
    199c:	77116f05 	ldrvc	r6, [r1, -r5, lsl #30]
    19a0:	0e000000 	cdpeq	0, 0, cr0, cr0, cr0, {0}
    19a4:	00000a15 	andeq	r0, r0, r5, lsl sl
    19a8:	77117105 	ldrvc	r7, [r1, -r5, lsl #2]
    19ac:	0e000000 	cdpeq	0, 0, cr0, cr0, cr0, {0}
    19b0:	00000611 	andeq	r0, r0, r1, lsl r6
    19b4:	77117205 	ldrvc	r7, [r1, -r5, lsl #4]
    19b8:	0e000000 	cdpeq	0, 0, cr0, cr0, cr0, {0}
    19bc:	000009bc 			; <UNDEFINED> instruction: 0x000009bc
    19c0:	77117405 	ldrvc	r7, [r1, -r5, lsl #8]
    19c4:	0e000000 	cdpeq	0, 0, cr0, cr0, cr0, {0}
    19c8:	00000906 	andeq	r0, r0, r6, lsl #18
    19cc:	77117505 	ldrvc	r7, [r1, -r5, lsl #10]
    19d0:	0e000000 	cdpeq	0, 0, cr0, cr0, cr0, {0}
    19d4:	000001e5 	andeq	r0, r0, r5, ror #3
    19d8:	77117705 	ldrvc	r7, [r1, -r5, lsl #14]
    19dc:	0e000000 	cdpeq	0, 0, cr0, cr0, cr0, {0}
    19e0:	00000715 	andeq	r0, r0, r5, lsl r7
    19e4:	77117805 	ldrvc	r7, [r1, -r5, lsl #16]
    19e8:	0e000000 	cdpeq	0, 0, cr0, cr0, cr0, {0}
    19ec:	000003fe 	strdeq	r0, [r0], -lr
    19f0:	77117a05 	ldrvc	r7, [r1, -r5, lsl #20]
    19f4:	0e000000 	cdpeq	0, 0, cr0, cr0, cr0, {0}
    19f8:	000005e9 	andeq	r0, r0, r9, ror #11
    19fc:	77117b05 	ldrvc	r7, [r1, -r5, lsl #22]
    1a00:	0e000000 	cdpeq	0, 0, cr0, cr0, cr0, {0}
    1a04:	00000427 	andeq	r0, r0, r7, lsr #8
    1a08:	77117d05 	ldrvc	r7, [r1, -r5, lsl #26]
    1a0c:	0e000000 	cdpeq	0, 0, cr0, cr0, cr0, {0}
    1a10:	000000cb 	andeq	r0, r0, fp, asr #1
    1a14:	77117e05 	ldrvc	r7, [r1, -r5, lsl #28]
    1a18:	0e000000 	cdpeq	0, 0, cr0, cr0, cr0, {0}
    1a1c:	00000a3f 	andeq	r0, r0, pc, lsr sl
    1a20:	77118005 	ldrvc	r8, [r1, -r5]
    1a24:	0e000000 	cdpeq	0, 0, cr0, cr0, cr0, {0}
    1a28:	0000021e 	andeq	r0, r0, lr, lsl r2
    1a2c:	77118105 	ldrvc	r8, [r1, -r5, lsl #2]
    1a30:	0e000000 	cdpeq	0, 0, cr0, cr0, cr0, {0}
    1a34:	0000006b 	andeq	r0, r0, fp, rrx
    1a38:	77118705 	ldrvc	r8, [r1, -r5, lsl #14]
    1a3c:	0e000000 	cdpeq	0, 0, cr0, cr0, cr0, {0}
    1a40:	00000442 	andeq	r0, r0, r2, asr #8
    1a44:	77118a05 	ldrvc	r8, [r1, -r5, lsl #20]
    1a48:	0e000000 	cdpeq	0, 0, cr0, cr0, cr0, {0}
    1a4c:	000005a6 	andeq	r0, r0, r6, lsr #11
    1a50:	77118d05 	ldrvc	r8, [r1, -r5, lsl #26]
    1a54:	0e000000 	cdpeq	0, 0, cr0, cr0, cr0, {0}
    1a58:	000005b6 			; <UNDEFINED> instruction: 0x000005b6
    1a5c:	77119105 	ldrvc	r9, [r1, -r5, lsl #2]
    1a60:	0e000000 	cdpeq	0, 0, cr0, cr0, cr0, {0}
    1a64:	00000089 	andeq	r0, r0, r9, lsl #1
    1a68:	77119205 	ldrvc	r9, [r1, -r5, lsl #4]
    1a6c:	0e000000 	cdpeq	0, 0, cr0, cr0, cr0, {0}
    1a70:	00000383 	andeq	r0, r0, r3, lsl #7
    1a74:	77119305 	ldrvc	r9, [r1, -r5, lsl #6]
    1a78:	0e000000 	cdpeq	0, 0, cr0, cr0, cr0, {0}
    1a7c:	000005c7 	andeq	r0, r0, r7, asr #11
    1a80:	77119405 	ldrvc	r9, [r1, -r5, lsl #8]
    1a84:	0e000000 	cdpeq	0, 0, cr0, cr0, cr0, {0}
    1a88:	000009e8 	andeq	r0, r0, r8, ror #19
    1a8c:	77119605 	ldrvc	r9, [r1, -r5, lsl #12]
    1a90:	0e000000 	cdpeq	0, 0, cr0, cr0, cr0, {0}
    1a94:	00000455 	andeq	r0, r0, r5, asr r4
    1a98:	77119805 	ldrvc	r9, [r1, -r5, lsl #16]
    1a9c:	0e000000 	cdpeq	0, 0, cr0, cr0, cr0, {0}
    1aa0:	00000535 	andeq	r0, r0, r5, lsr r5
    1aa4:	77119905 	ldrvc	r9, [r1, -r5, lsl #18]
    1aa8:	0e000000 	cdpeq	0, 0, cr0, cr0, cr0, {0}
    1aac:	00000763 	andeq	r0, r0, r3, ror #14
    1ab0:	77119a05 	ldrvc	r9, [r1, -r5, lsl #20]
    1ab4:	0e000000 	cdpeq	0, 0, cr0, cr0, cr0, {0}
    1ab8:	000008e1 	andeq	r0, r0, r1, ror #17
    1abc:	77119b05 	ldrvc	r9, [r1, -r5, lsl #22]
    1ac0:	0e000000 	cdpeq	0, 0, cr0, cr0, cr0, {0}
    1ac4:	000001f7 	strdeq	r0, [r0], -r7
    1ac8:	77119c05 	ldrvc	r9, [r1, -r5, lsl #24]
    1acc:	0e000000 	cdpeq	0, 0, cr0, cr0, cr0, {0}
    1ad0:	000008a5 	andeq	r0, r0, r5, lsr #17
    1ad4:	7711a105 	ldrvc	sl, [r1, -r5, lsl #2]
    1ad8:	0e000000 	cdpeq	0, 0, cr0, cr0, cr0, {0}
    1adc:	00000262 	andeq	r0, r0, r2, ror #4
    1ae0:	7711a305 	ldrvc	sl, [r1, -r5, lsl #6]
    1ae4:	0e000000 	cdpeq	0, 0, cr0, cr0, cr0, {0}
    1ae8:	00000198 	muleq	r0, r8, r1
    1aec:	7711a405 	ldrvc	sl, [r1, -r5, lsl #8]
    1af0:	0e000000 	cdpeq	0, 0, cr0, cr0, cr0, {0}
    1af4:	00000828 	andeq	r0, r0, r8, lsr #16
    1af8:	7711a505 	ldrvc	sl, [r1, -r5, lsl #10]
    1afc:	0e000000 	cdpeq	0, 0, cr0, cr0, cr0, {0}
    1b00:	000007c4 	andeq	r0, r0, r4, asr #15
    1b04:	7711a605 	ldrvc	sl, [r1, -r5, lsl #12]
    1b08:	0e000000 	cdpeq	0, 0, cr0, cr0, cr0, {0}
    1b0c:	000002fb 	strdeq	r0, [r0], -fp
    1b10:	7711a805 	ldrvc	sl, [r1, -r5, lsl #16]
    1b14:	0e000000 	cdpeq	0, 0, cr0, cr0, cr0, {0}
    1b18:	000000b9 	strheq	r0, [r0], -r9
    1b1c:	7711a905 	ldrvc	sl, [r1, -r5, lsl #18]
    1b20:	0e000000 	cdpeq	0, 0, cr0, cr0, cr0, {0}
    1b24:	000007ec 	andeq	r0, r0, ip, ror #15
    1b28:	7711aa05 	ldrvc	sl, [r1, -r5, lsl #20]
    1b2c:	0e000000 	cdpeq	0, 0, cr0, cr0, cr0, {0}
    1b30:	0000073c 	andeq	r0, r0, ip, lsr r7
    1b34:	7711ab05 	ldrvc	sl, [r1, -r5, lsl #22]
    1b38:	0e000000 	cdpeq	0, 0, cr0, cr0, cr0, {0}
    1b3c:	00000142 	andeq	r0, r0, r2, asr #2
    1b40:	7711ad05 	ldrvc	sl, [r1, -r5, lsl #26]
    1b44:	0e000000 	cdpeq	0, 0, cr0, cr0, cr0, {0}
    1b48:	000007d9 	ldrdeq	r0, [r0], -r9
    1b4c:	7711ae05 	ldrvc	sl, [r1, -r5, lsl #28]
    1b50:	0e000000 	cdpeq	0, 0, cr0, cr0, cr0, {0}
    1b54:	00000410 	andeq	r0, r0, r0, lsl r4
    1b58:	7711b005 	ldrvc	fp, [r1, -r5]
    1b5c:	0e000000 	cdpeq	0, 0, cr0, cr0, cr0, {0}
    1b60:	000009d1 	ldrdeq	r0, [r0], -r1
    1b64:	7711b105 	ldrvc	fp, [r1, -r5, lsl #2]
    1b68:	0e000000 	cdpeq	0, 0, cr0, cr0, cr0, {0}
    1b6c:	000008ca 	andeq	r0, r0, sl, asr #17
    1b70:	7711b205 	ldrvc	fp, [r1, -r5, lsl #4]
    1b74:	0e000000 	cdpeq	0, 0, cr0, cr0, cr0, {0}
    1b78:	0000088e 	andeq	r0, r0, lr, lsl #17
    1b7c:	7711b305 	ldrvc	fp, [r1, -r5, lsl #6]
    1b80:	0e000000 	cdpeq	0, 0, cr0, cr0, cr0, {0}
    1b84:	00000877 	andeq	r0, r0, r7, ror r8
    1b88:	7711b405 	ldrvc	fp, [r1, -r5, lsl #8]
    1b8c:	0e000000 	cdpeq	0, 0, cr0, cr0, cr0, {0}
    1b90:	00000a28 	andeq	r0, r0, r8, lsr #20
    1b94:	7711b605 	ldrvc	fp, [r1, -r5, lsl #12]
    1b98:	0e000000 	cdpeq	0, 0, cr0, cr0, cr0, {0}
    1b9c:	0000046b 	andeq	r0, r0, fp, ror #8
    1ba0:	7711b705 	ldrvc	fp, [r1, -r5, lsl #14]
    1ba4:	0e000000 	cdpeq	0, 0, cr0, cr0, cr0, {0}
    1ba8:	000001ce 	andeq	r0, r0, lr, asr #3
    1bac:	7711b805 	ldrvc	fp, [r1, -r5, lsl #16]
    1bb0:	0e000000 	cdpeq	0, 0, cr0, cr0, cr0, {0}
    1bb4:	0000001d 	andeq	r0, r0, sp, lsl r0
    1bb8:	7711b905 	ldrvc	fp, [r1, -r5, lsl #18]
    1bbc:	0e000000 	cdpeq	0, 0, cr0, cr0, cr0, {0}
    1bc0:	00000034 	andeq	r0, r0, r4, lsr r0
    1bc4:	7711ba05 	ldrvc	fp, [r1, -r5, lsl #20]
    1bc8:	0e000000 	cdpeq	0, 0, cr0, cr0, cr0, {0}
    1bcc:	0000033a 	andeq	r0, r0, sl, lsr r3
    1bd0:	7711bc05 	ldrvc	fp, [r1, -r5, lsl #24]
    1bd4:	0e000000 	cdpeq	0, 0, cr0, cr0, cr0, {0}
    1bd8:	000006fa 	strdeq	r0, [r0], -sl
    1bdc:	7711bd05 	ldrvc	fp, [r1, -r5, lsl #26]
    1be0:	0e000000 	cdpeq	0, 0, cr0, cr0, cr0, {0}
    1be4:	000004c4 	andeq	r0, r0, r4, asr #9
    1be8:	7711c205 	ldrvc	ip, [r1, -r5, lsl #4]
    1bec:	0e000000 	cdpeq	0, 0, cr0, cr0, cr0, {0}
    1bf0:	00000810 	andeq	r0, r0, r0, lsl r8
    1bf4:	7711c305 	ldrvc	ip, [r1, -r5, lsl #6]
    1bf8:	0e000000 	cdpeq	0, 0, cr0, cr0, cr0, {0}
    1bfc:	000003e6 	andeq	r0, r0, r6, ror #7
    1c00:	7711c405 	ldrvc	ip, [r1, -r5, lsl #8]
    1c04:	0f000000 	svceq	0x00000000
    1c08:	00000f8f 	andeq	r0, r0, pc, lsl #31
    1c0c:	f02f1a01 			; <UNDEFINED> instruction: 0xf02f1a01
    1c10:	f8700304 			; <UNDEFINED> instruction: 0xf8700304
    1c14:	01000009 	tsteq	r0, r9
    1c18:	00086d9c 	muleq	r8, ip, sp
    1c1c:	00691000 	rsbeq	r1, r9, r0
    1c20:	25071c01 	strcs	r1, [r7, #-3073]	; 0xfffff3ff
    1c24:	02000000 	andeq	r0, r0, #0
    1c28:	a0117491 	mulsge	r1, r1, r4
    1c2c:	6070030a 	rsbsvs	r0, r0, sl, lsl #6
    1c30:	55000000 	strpl	r0, [r0, #-0]
    1c34:	10000008 	andne	r0, r0, r8
    1c38:	94010069 	strls	r0, [r1], #-105	; 0xffffff97
    1c3c:	0000250c 	andeq	r2, r0, ip, lsl #10
    1c40:	70910200 	addsvc	r0, r1, r0, lsl #4
    1c44:	0e141200 	cdpeq	2, 1, cr1, cr4, cr0, {0}
    1c48:	00607003 	rsbeq	r7, r0, r3
    1c4c:	69100000 	ldmdbvs	r0, {}	; <UNPREDICTABLE>
    1c50:	0cdf0100 	ldfeqe	f0, [pc], {0}
    1c54:	00000025 	andeq	r0, r0, r5, lsr #32
    1c58:	006c9102 	rsbeq	r9, ip, r2, lsl #2
    1c5c:	0f751300 	svceq	0x00751300
    1c60:	12010000 	andne	r0, r1, #0
    1c64:	0304902f 	movweq	r9, #16431	; 0x402f
    1c68:	00006070 	andeq	r6, r0, r0, ror r0
    1c6c:	c09c0100 	addsgt	r0, ip, r0, lsl #2
    1c70:	14000008 	strne	r0, [r0], #-8
    1c74:	00000f88 	andeq	r0, r0, r8, lsl #31
    1c78:	c04d1201 	subgt	r1, sp, r1, lsl #4
    1c7c:	02000008 	andeq	r0, r0, #8
    1c80:	56156c91 			; <UNDEFINED> instruction: 0x56156c91
    1c84:	0100414d 	tsteq	r0, sp, asr #2
    1c88:	00775e12 	rsbseq	r5, r7, r2, lsl lr
    1c8c:	91020000 	mrsls	r0, (UNDEF: 2)
    1c90:	0f4d1468 	svceq	0x004d1468
    1c94:	12010000 	andne	r0, r1, #0
    1c98:	0008c06e 	andeq	ip, r8, lr, rrx
    1c9c:	64910200 	ldrvs	r0, [r1], #512	; 0x200
    1ca0:	000f4616 	andeq	r4, pc, r6, lsl r6	; <UNPREDICTABLE>
    1ca4:	0c140100 	ldfeqs	f0, [r4], {-0}
    1ca8:	00000077 	andeq	r0, r0, r7, ror r0
    1cac:	00749102 	rsbseq	r9, r4, r2, lsl #2
    1cb0:	00770417 	rsbseq	r0, r7, r7, lsl r4
    1cb4:	58180000 	ldmdapl	r8, {}	; <UNPREDICTABLE>
    1cb8:	0100000f 	tsteq	r0, pc
    1cbc:	04342f0a 	ldrteq	r2, [r4], #-3850	; 0xfffff0f6
    1cc0:	005c7003 	subseq	r7, ip, r3
    1cc4:	9c010000 	stcls	0, cr0, [r1], {-0}
    1cc8:	000b7914 	andeq	r7, fp, r4, lsl r9
    1ccc:	4d0a0100 	stfmis	f0, [sl, #-0]
    1cd0:	000008c0 	andeq	r0, r0, r0, asr #17
    1cd4:	156c9102 	strbne	r9, [ip, #-258]!	; 0xfffffefe
    1cd8:	00414d56 	subeq	r4, r1, r6, asr sp
    1cdc:	775d0a01 	ldrbvc	r0, [sp, -r1, lsl #20]
    1ce0:	02000000 	andeq	r0, r0, #0
    1ce4:	54156891 	ldrpl	r6, [r5], #-2193	; 0xfffff76f
    1ce8:	0100324c 	tsteq	r0, ip, asr #4
    1cec:	08c06d0a 	stmiaeq	r0, {r1, r3, r8, sl, fp, sp, lr}^
    1cf0:	91020000 	mrsls	r0, (UNDEF: 2)
    1cf4:	0f3f1664 	svceq	0x003f1664
    1cf8:	0c010000 	stceq	0, cr0, [r1], {-0}
    1cfc:	0000770c 	andeq	r7, r0, ip, lsl #14
    1d00:	74910200 	ldrvc	r0, [r1], #512	; 0x200
    1d04:	032a0000 			; <UNDEFINED> instruction: 0x032a0000
    1d08:	00040000 	andeq	r0, r4, r0
    1d0c:	00000478 	andeq	r0, r0, r8, ror r4
    1d10:	02870104 	addeq	r0, r7, #4, 2
    1d14:	e00c0000 	and	r0, ip, r0
    1d18:	5f00000f 	svcpl	0x0000000f
    1d1c:	e8000009 	stmda	r0, {r0, r3}
    1d20:	00000000 	andeq	r0, r0, r0
    1d24:	d0000000 	andle	r0, r0, r0
    1d28:	02000006 	andeq	r0, r0, #6
    1d2c:	6e690504 	cdpvs	5, 6, cr0, cr9, cr4, {0}
    1d30:	04030074 	streq	r0, [r3], #-116	; 0xffffff8c
    1d34:	00059907 	andeq	r9, r5, r7, lsl #18
    1d38:	06010300 	streq	r0, [r1], -r0, lsl #6
    1d3c:	00000529 	andeq	r0, r0, r9, lsr #10
    1d40:	000aae04 	andeq	sl, sl, r4, lsl #28
    1d44:	182b0200 	stmdane	fp!, {r9}
    1d48:	00000046 	andeq	r0, r0, r6, asr #32
    1d4c:	27080103 	strcs	r0, [r8, -r3, lsl #2]
    1d50:	03000005 	movweq	r0, #5
    1d54:	00a70502 	adceq	r0, r7, r2, lsl #10
    1d58:	02030000 	andeq	r0, r3, #0
    1d5c:	0005fe07 	andeq	pc, r5, r7, lsl #28
    1d60:	05040300 	streq	r0, [r4, #-768]	; 0xfffffd00
    1d64:	0000039a 	muleq	r0, sl, r3
    1d68:	00016404 	andeq	r6, r1, r4, lsl #8
    1d6c:	194f0200 	stmdbne	pc, {r9}^	; <UNPREDICTABLE>
    1d70:	0000006e 	andeq	r0, r0, lr, rrx
    1d74:	94070403 	strls	r0, [r7], #-1027	; 0xfffffbfd
    1d78:	03000005 	movweq	r0, #5
    1d7c:	03950508 	orrseq	r0, r5, #8, 10	; 0x2000000
    1d80:	08030000 	stmdaeq	r3, {}	; <UNPREDICTABLE>
    1d84:	00058f07 	andeq	r8, r5, r7, lsl #30
    1d88:	0ab00400 	beq	fec02d90 <__TAREA_1_RODATA_PHY+0x7e4aed90>
    1d8c:	18030000 	stmdane	r3, {}	; <UNPREDICTABLE>
    1d90:	00003a13 	andeq	r3, r0, r3, lsl sl
    1d94:	01660400 	cmneq	r6, r0, lsl #8
    1d98:	30030000 	andcc	r0, r3, r0
    1d9c:	00006214 	andeq	r6, r0, r4, lsl r2
    1da0:	041c0500 	ldreq	r0, [ip], #-1280	; 0xfffffb00
    1da4:	0100121b 	tsteq	r0, fp, lsl r2
    1da8:	85060000 	strhi	r0, [r6, #-0]
    1dac:	0400000c 	streq	r0, [r0], #-12
    1db0:	008f151d 	addeq	r1, pc, sp, lsl r5	; <UNPREDICTABLE>
    1db4:	07000000 	streq	r0, [r0, -r0]
    1db8:	00524d50 	subseq	r4, r2, r0, asr sp
    1dbc:	8f151e04 	svchi	0x00151e04
    1dc0:	04000000 	streq	r0, [r0], #-0
    1dc4:	52504207 	subspl	r4, r0, #1879048192	; 0x70000000
    1dc8:	151f0400 	ldrne	r0, [pc, #-1024]	; 19d0 <__kernel_size__+0x49c>
    1dcc:	0000008f 	andeq	r0, r0, pc, lsl #1
    1dd0:	41490708 	cmpmi	r9, r8, lsl #14
    1dd4:	20040052 	andcs	r0, r4, r2, asr r0
    1dd8:	00008f15 	andeq	r8, r0, r5, lsl pc
    1ddc:	d1060c00 	tstle	r6, r0, lsl #24
    1de0:	0400000f 	streq	r0, [r0], #-15
    1de4:	008f1521 	addeq	r1, pc, r1, lsr #10
    1de8:	07100000 	ldreq	r0, [r0, -r0]
    1dec:	00525052 	subseq	r5, r2, r2, asr r0
    1df0:	8f152204 	svchi	0x00152204
    1df4:	14000000 	strne	r0, [r0], #-0
    1df8:	00105406 	andseq	r5, r0, r6, lsl #8
    1dfc:	15230400 	strne	r0, [r3, #-1024]!	; 0xfffffc00
    1e00:	0000008f 	andeq	r0, r0, pc, lsl #1
    1e04:	9b080018 	blls	201e6c <__kernel_size__+0x200938>
    1e08:	04000000 	streq	r0, [r0], #-0
    1e0c:	00000fbe 			; <UNDEFINED> instruction: 0x00000fbe
    1e10:	00072404 	andeq	r2, r7, r4, lsl #8
    1e14:	09000001 	stmdbeq	r0, {r0}
    1e18:	26041000 	strcs	r1, [r4], -r0
    1e1c:	00023f12 	andeq	r3, r2, r2, lsl pc
    1e20:	0c850600 	stceq	6, cr0, [r5], {0}
    1e24:	28040000 	stmdacs	r4, {}	; <UNPREDICTABLE>
    1e28:	00008f12 	andeq	r8, r0, r2, lsl pc
    1e2c:	a4060000 	strge	r0, [r6], #-0
    1e30:	0400000f 	streq	r0, [r0], #-15
    1e34:	008f1229 	addeq	r1, pc, r9, lsr #4
    1e38:	06040000 	streq	r0, [r4], -r0
    1e3c:	00000fea 	andeq	r0, r0, sl, ror #31
    1e40:	44092a04 	strmi	r2, [r9], #-2564	; 0xfffff5fc
    1e44:	08000002 	stmdaeq	r0, {r1}
    1e48:	00104a0a 	andseq	r4, r0, sl, lsl #20
    1e4c:	122b0400 	eorne	r0, fp, #0, 8
    1e50:	00000254 	andeq	r0, r0, r4, asr r2
    1e54:	f40a0100 	vst4.8	{d0,d2,d4,d6}, [sl], r0
    1e58:	0400000f 	streq	r0, [r0], #-15
    1e5c:	0264092c 	rsbeq	r0, r4, #44, 18	; 0xb0000
    1e60:	010c0000 	mrseq	r0, (UNDEF: 12)
    1e64:	000f9a0a 	andeq	r9, pc, sl, lsl #20
    1e68:	122d0400 	eorne	r0, sp, #0, 8
    1e6c:	00000254 	andeq	r0, r0, r4, asr r2
    1e70:	fe0a0180 	cdp2	1, 0, cr0, cr10, cr0, {4}
    1e74:	0400000f 	streq	r0, [r0], #-15
    1e78:	0264092e 	rsbeq	r0, r4, #753664	; 0xb8000
    1e7c:	018c0000 	orreq	r0, ip, r0
    1e80:	0010860a 	andseq	r8, r0, sl, lsl #12
    1e84:	122f0400 	eorne	r0, pc, #0, 8
    1e88:	00000254 	andeq	r0, r0, r4, asr r2
    1e8c:	080a0200 	stmdaeq	sl, {r9}
    1e90:	04000010 	streq	r0, [r0], #-16
    1e94:	02640930 	rsbeq	r0, r4, #48, 18	; 0xc0000
    1e98:	020c0000 	andeq	r0, ip, #0
    1e9c:	0010640a 	andseq	r6, r0, sl, lsl #8
    1ea0:	12310400 	eorsne	r0, r1, #0, 8
    1ea4:	00000254 	andeq	r0, r0, r4, asr r2
    1ea8:	120a0280 	andne	r0, sl, #128, 4
    1eac:	04000010 	streq	r0, [r0], #-16
    1eb0:	02640932 	rsbeq	r0, r4, #819200	; 0xc8000
    1eb4:	028c0000 	addeq	r0, ip, #0
    1eb8:	000fd60a 	andeq	sp, pc, sl, lsl #12
    1ebc:	12330400 	eorsne	r0, r3, #0, 8
    1ec0:	00000254 	andeq	r0, r0, r4, asr r2
    1ec4:	1c0a0300 	stcne	3, cr0, [sl], {-0}
    1ec8:	04000010 	streq	r0, [r0], #-16
    1ecc:	02740934 	rsbseq	r0, r4, #52, 18	; 0xd0000
    1ed0:	030c0000 	movweq	r0, #49152	; 0xc000
    1ed4:	000fc60a 	andeq	ip, pc, sl, lsl #12
    1ed8:	12350400 	eorsne	r0, r5, #0, 8
    1edc:	00000284 	andeq	r0, r0, r4, lsl #5
    1ee0:	260a0400 	strcs	r0, [sl], -r0, lsl #8
    1ee4:	04000010 	streq	r0, [r0], #-16
    1ee8:	02940936 	addseq	r0, r4, #884736	; 0xd8000
    1eec:	04600000 	strbteq	r0, [r0], #-0
    1ef0:	00107c0a 	andseq	r7, r0, sl, lsl #24
    1ef4:	12370400 	eorsne	r0, r7, #0, 8
    1ef8:	00000284 	andeq	r0, r0, r4, lsl #5
    1efc:	300a0800 	andcc	r0, sl, r0, lsl #16
    1f00:	04000010 	streq	r0, [r0], #-16
    1f04:	02940938 	addseq	r0, r4, #56, 18	; 0xe0000
    1f08:	08600000 	stmdaeq	r0!, {}^	; <UNPREDICTABLE>
    1f0c:	000fb80a 	andeq	fp, pc, sl, lsl #16
    1f10:	12390400 	eorsne	r0, r9, #0, 8
    1f14:	000002a5 	andeq	r0, r0, r5, lsr #5
    1f18:	5a0a0c00 	bpl	284f20 <__kernel_size__+0x2839ec>
    1f1c:	04000010 	streq	r0, [r0], #-16
    1f20:	02b5093a 	adcseq	r0, r5, #950272	; 0xe8000
    1f24:	0c180000 	ldceq	0, cr0, [r8], {-0}
    1f28:	00106c0a 	andseq	r6, r0, sl, lsl #24
    1f2c:	123b0400 	eorsne	r0, fp, #0, 8
    1f30:	0000008f 	andeq	r0, r0, pc, lsl #1
    1f34:	3a0a0f00 	bcc	285b3c <__kernel_size__+0x284608>
    1f38:	04000010 	streq	r0, [r0], #-16
    1f3c:	02c6093c 	sbceq	r0, r6, #60, 18	; 0xf0000
    1f40:	0f040000 	svceq	0x00040000
    1f44:	01110800 	tsteq	r1, r0, lsl #16
    1f48:	830b0000 	movwhi	r0, #45056	; 0xb000
    1f4c:	54000000 	strpl	r0, [r0], #-0
    1f50:	0c000002 	stceq	0, cr0, [r0], {2}
    1f54:	0000002c 	andeq	r0, r0, ip, lsr #32
    1f58:	8f0b00f4 	svchi	0x000b00f4
    1f5c:	64000000 	strvs	r0, [r0], #-0
    1f60:	0c000002 	stceq	0, cr0, [r0], {2}
    1f64:	0000002c 	andeq	r0, r0, ip, lsr #32
    1f68:	830b0002 	movwhi	r0, #45058	; 0xb002
    1f6c:	74000000 	strvc	r0, [r0], #-0
    1f70:	0c000002 	stceq	0, cr0, [r0], {2}
    1f74:	0000002c 	andeq	r0, r0, ip, lsr #32
    1f78:	830b0070 	movwhi	r0, #45168	; 0xb070
    1f7c:	84000000 	strhi	r0, [r0], #-0
    1f80:	0c000002 	stceq	0, cr0, [r0], {2}
    1f84:	0000002c 	andeq	r0, r0, ip, lsr #32
    1f88:	8f0b00f0 	svchi	0x000b00f0
    1f8c:	94000000 	strls	r0, [r0], #-0
    1f90:	0c000002 	stceq	0, cr0, [r0], {2}
    1f94:	0000002c 	andeq	r0, r0, ip, lsr #32
    1f98:	830b0017 	movwhi	r0, #45079	; 0xb017
    1f9c:	a5000000 	strge	r0, [r0, #-0]
    1fa0:	0d000002 	stceq	0, cr0, [r0, #-8]
    1fa4:	0000002c 	andeq	r0, r0, ip, lsr #32
    1fa8:	0b00039c 	bleq	2e20 <__kernel_size__+0x18ec>
    1fac:	0000008f 	andeq	r0, r0, pc, lsl #1
    1fb0:	000002b5 			; <UNDEFINED> instruction: 0x000002b5
    1fb4:	00002c0c 	andeq	r2, r0, ip, lsl #24
    1fb8:	0b000500 	bleq	33c0 <__kernel_size__+0x1e8c>
    1fbc:	00000083 	andeq	r0, r0, r3, lsl #1
    1fc0:	000002c6 	andeq	r0, r0, r6, asr #5
    1fc4:	00002c0d 	andeq	r2, r0, sp, lsl #24
    1fc8:	0002e400 	andeq	lr, r2, r0, lsl #8
    1fcc:	0000830b 	andeq	r8, r0, fp, lsl #6
    1fd0:	0002d600 	andeq	sp, r2, r0, lsl #12
    1fd4:	002c0c00 	eoreq	r0, ip, r0, lsl #24
    1fd8:	00f80000 	rscseq	r0, r8, r0
    1fdc:	000faa04 	andeq	sl, pc, r4, lsl #20
    1fe0:	073d0400 	ldreq	r0, [sp, -r0, lsl #8]!
    1fe4:	0000023f 	andeq	r0, r0, pc, lsr r2
    1fe8:	0010710e 	andseq	r7, r0, lr, lsl #2
    1fec:	2f040100 	svccs	0x00040100
    1ff0:	70030ee8 	andvc	r0, r3, r8, ror #29
    1ff4:	0000007c 	andeq	r0, r0, ip, ror r0
    1ff8:	03179c01 	tsteq	r7, #256	; 0x100
    1ffc:	b20f0000 	andlt	r0, pc, #0
    2000:	0100000f 	tsteq	r0, pc
    2004:	031d1806 	tsteq	sp, #393216	; 0x60000
    2008:	91020000 	mrsls	r0, (UNDEF: 2)
    200c:	10440f74 	subne	r0, r4, r4, ror pc
    2010:	07010000 	streq	r0, [r1, -r0]
    2014:	00032818 	andeq	r2, r3, r8, lsl r8
    2018:	70910200 	addsvc	r0, r1, r0, lsl #4
    201c:	05041000 	streq	r1, [r4, #-0]
    2020:	11000001 	tstne	r0, r1
    2024:	00000317 	andeq	r0, r0, r7, lsl r3
    2028:	02d60410 	sbcseq	r0, r6, #16, 8	; 0x10000000
    202c:	22110000 	andscs	r0, r1, #0
    2030:	00000003 	andeq	r0, r0, r3
    2034:	0000023c 	andeq	r0, r0, ip, lsr r2
    2038:	055f0004 	ldrbeq	r0, [pc, #-4]	; 203c <__kernel_size__+0xb08>
    203c:	01040000 	mrseq	r0, (UNDEF: 4)
    2040:	00000287 	andeq	r0, r0, r7, lsl #5
    2044:	0010e10c 	andseq	lr, r0, ip, lsl #2
    2048:	00095f00 	andeq	r5, r9, r0, lsl #30
    204c:	0000f800 	andeq	pc, r0, r0, lsl #16
    2050:	00000000 	andeq	r0, r0, r0
    2054:	00080a00 	andeq	r0, r8, r0, lsl #20
    2058:	05040200 	streq	r0, [r4, #-512]	; 0xfffffe00
    205c:	00746e69 	rsbseq	r6, r4, r9, ror #28
    2060:	99070403 	stmdbls	r7, {r0, r1, sl}
    2064:	03000005 	movweq	r0, #5
    2068:	05290601 	streq	r0, [r9, #-1537]!	; 0xfffff9ff
    206c:	ae040000 	cdpge	0, 0, cr0, cr4, cr0, {0}
    2070:	0200000a 	andeq	r0, r0, #10
    2074:	0046182b 	subeq	r1, r6, fp, lsr #16
    2078:	01030000 	mrseq	r0, (UNDEF: 3)
    207c:	00052708 	andeq	r2, r5, r8, lsl #14
    2080:	05020300 	streq	r0, [r2, #-768]	; 0xfffffd00
    2084:	000000a7 	andeq	r0, r0, r7, lsr #1
    2088:	fe070203 	cdp2	2, 0, cr0, cr7, cr3, {0}
    208c:	03000005 	movweq	r0, #5
    2090:	039a0504 	orrseq	r0, sl, #4, 10	; 0x1000000
    2094:	64040000 	strvs	r0, [r4], #-0
    2098:	02000001 	andeq	r0, r0, #1
    209c:	006e194f 	rsbeq	r1, lr, pc, asr #18
    20a0:	04030000 	streq	r0, [r3], #-0
    20a4:	00059407 	andeq	r9, r5, r7, lsl #8
    20a8:	05080300 	streq	r0, [r8, #-768]	; 0xfffffd00
    20ac:	00000395 	muleq	r0, r5, r3
    20b0:	8f070803 	svchi	0x00070803
    20b4:	04000005 	streq	r0, [r0], #-5
    20b8:	00000ab0 			; <UNDEFINED> instruction: 0x00000ab0
    20bc:	3a131803 	bcc	4c80d0 <__kernel_size__+0x4c6b9c>
    20c0:	04000000 	streq	r0, [r0], #-0
    20c4:	00000166 	andeq	r0, r0, r6, ror #2
    20c8:	62143003 	andsvs	r3, r4, #3
    20cc:	05000000 	streq	r0, [r0, #-0]
    20d0:	0e041000 	cdpeq	0, 0, cr1, cr4, cr0, {0}
    20d4:	0001bc12 	andeq	fp, r1, r2, lsl ip
    20d8:	10b50600 	adcsne	r0, r5, r0, lsl #12
    20dc:	0f040000 	svceq	0x00040000
    20e0:	00008f0c 	andeq	r8, r0, ip, lsl #30
    20e4:	71060000 	mrsvc	r0, (UNDEF: 6)
    20e8:	04000011 	streq	r0, [r0], #-17	; 0xffffffef
    20ec:	008f0c10 	addeq	r0, pc, r0, lsl ip	; <UNPREDICTABLE>
    20f0:	06040000 	streq	r0, [r4], -r0
    20f4:	00001098 	muleq	r0, r8, r0
    20f8:	8f0c1104 	svchi	0x000c1104
    20fc:	08000000 	stmdaeq	r0, {}	; <UNPREDICTABLE>
    2100:	00110906 	andseq	r0, r1, r6, lsl #18
    2104:	0c120400 	cfldrseq	mvf0, [r2], {-0}
    2108:	0000008f 	andeq	r0, r0, pc, lsl #1
    210c:	112d060c 			; <UNDEFINED> instruction: 0x112d060c
    2110:	13040000 	movwne	r0, #16384	; 0x4000
    2114:	00008f0c 	andeq	r8, r0, ip, lsl #30
    2118:	8e061000 	cdphi	0, 0, cr1, cr6, cr0, {0}
    211c:	04000010 	streq	r0, [r0], #-16
    2120:	008f0c14 	addeq	r0, pc, r4, lsl ip	; <UNPREDICTABLE>
    2124:	06140000 	ldreq	r0, [r4], -r0
    2128:	0000115a 	andeq	r1, r0, sl, asr r1
    212c:	8f0c1504 	svchi	0x000c1504
    2130:	18000000 	stmdane	r0, {}	; <UNPREDICTABLE>
    2134:	000fea06 	andeq	lr, pc, r6, lsl #20
    2138:	03160400 	tsteq	r6, #0, 8
    213c:	000001c1 	andeq	r0, r0, r1, asr #3
    2140:	10fe061c 	rscsne	r0, lr, ip, lsl r6
    2144:	17040000 	strne	r0, [r4, -r0]
    2148:	00008f0c 	andeq	r8, r0, ip, lsl #30
    214c:	c0062000 	andgt	r2, r6, r0
    2150:	04000010 	streq	r0, [r0], #-16
    2154:	008f0c18 	addeq	r0, pc, r8, lsl ip	; <UNPREDICTABLE>
    2158:	06240000 	strteq	r0, [r4], -r0
    215c:	000010d6 	ldrdeq	r1, [r0], -r6
    2160:	8f0c1904 	svchi	0x000c1904
    2164:	28000000 	stmdacs	r0, {}	; <UNPREDICTABLE>
    2168:	00111606 	andseq	r1, r1, r6, lsl #12
    216c:	0c1a0400 	cfldrseq	mvf0, [sl], {-0}
    2170:	0000008f 	andeq	r0, r0, pc, lsl #1
    2174:	1167062c 	cmnne	r7, ip, lsr #12
    2178:	1b040000 	blne	102180 <__kernel_size__+0x100c4c>
    217c:	00008f0c 	andeq	r8, r0, ip, lsl #30
    2180:	a3063000 	movwge	r3, #24576	; 0x6000
    2184:	04000010 	streq	r0, [r0], #-16
    2188:	008f0c1c 	addeq	r0, pc, ip, lsl ip	; <UNPREDICTABLE>
    218c:	06340000 	ldrteq	r0, [r4], -r0
    2190:	00001137 	andeq	r1, r0, r7, lsr r1
    2194:	8f0c1d04 	svchi	0x000c1d04
    2198:	38000000 	stmdacc	r0, {}	; <UNPREDICTABLE>
    219c:	000ff406 	andeq	pc, pc, r6, lsl #8
    21a0:	031e0400 	tsteq	lr, #0, 8
    21a4:	000001d1 	ldrdeq	r0, [r0], -r1
    21a8:	10cc073c 	sbcne	r0, ip, ip, lsr r7
    21ac:	1f040000 	svcne	0x00040000
    21b0:	00008f0c 	andeq	r8, r0, ip, lsl #30
    21b4:	070f0000 	streq	r0, [pc, -r0]
    21b8:	00001123 	andeq	r1, r0, r3, lsr #2
    21bc:	8f0c2004 	svchi	0x000c2004
    21c0:	04000000 	streq	r0, [r0], #-0
    21c4:	0ffe070f 	svceq	0x00fe070f
    21c8:	21040000 	mrscs	r0, (UNDEF: 4)
    21cc:	0001e203 	andeq	lr, r1, r3, lsl #4
    21d0:	070f0800 	streq	r0, [pc, -r0, lsl #16]
    21d4:	00001144 	andeq	r1, r0, r4, asr #2
    21d8:	f20c2204 	vhsub.s8	d2, d12, d4
    21dc:	e0000001 	and	r0, r0, r1
    21e0:	10f6070f 	rscsne	r0, r6, pc, lsl #14
    21e4:	23040000 	movwcs	r0, #16384	; 0x4000
    21e8:	0001f20d 	andeq	pc, r1, sp, lsl #4
    21ec:	000ff000 	andeq	pc, pc, r0
    21f0:	00009b08 	andeq	r9, r0, r8, lsl #22
    21f4:	00830900 	addeq	r0, r3, r0, lsl #18
    21f8:	01d10000 	bicseq	r0, r1, r0
    21fc:	2c0a0000 	stccs	0, cr0, [sl], {-0}
    2200:	03000000 	movweq	r0, #0
    2204:	00830900 	addeq	r0, r3, r0, lsl #18
    2208:	01e20000 	mvneq	r0, r0
    220c:	2c0b0000 	stccs	0, cr0, [fp], {-0}
    2210:	c3000000 	movwgt	r0, #0
    2214:	8309000e 	movwhi	r0, #36878	; 0x900e
    2218:	f2000000 	vhadd.s8	d0, d0, d0
    221c:	0a000001 	beq	2228 <__kernel_size__+0xcf4>
    2220:	0000002c 	andeq	r0, r0, ip, lsr #32
    2224:	8f0900d7 	svchi	0x000900d7
    2228:	02000000 	andeq	r0, r0, #0
    222c:	0a000002 	beq	223c <__kernel_size__+0xd08>
    2230:	0000002c 	andeq	r0, r0, ip, lsr #32
    2234:	ed040003 	stc	0, cr0, [r4, #-12]
    2238:	04000010 	streq	r0, [r0], #-16
    223c:	01bc0324 			; <UNDEFINED> instruction: 0x01bc0324
    2240:	4d0c0000 	stcmi	0, cr0, [ip, #-0]
    2244:	01000011 	tsteq	r0, r1, lsl r0
    2248:	0f642f04 	svceq	0x00642f04
    224c:	007c7003 	rsbseq	r7, ip, r3
    2250:	9c010000 	stcls	0, cr0, [r1], {-0}
    2254:	00000234 	andeq	r0, r0, r4, lsr r2
    2258:	0010ad0d 	andseq	sl, r0, sp, lsl #26
    225c:	19060100 	stmdbne	r6, {r8}
    2260:	0000023a 	andeq	r0, r0, sl, lsr r2
    2264:	00749102 	rsbseq	r9, r4, r2, lsl #2
    2268:	0202040e 	andeq	r0, r2, #234881024	; 0xe000000
    226c:	340f0000 	strcc	r0, [pc], #-0	; 2274 <__kernel_size__+0xd40>
    2270:	00000002 	andeq	r0, r0, r2
    2274:	0000075e 	andeq	r0, r0, lr, asr r7
    2278:	06260004 	strteq	r0, [r6], -r4
    227c:	01040000 	mrseq	r0, (UNDEF: 4)
    2280:	00000287 	andeq	r0, r0, r7, lsl #5
    2284:	0012150c 	andseq	r1, r2, ip, lsl #10
    2288:	00095f00 	andeq	r5, r9, r0, lsl #30
    228c:	00010800 	andeq	r0, r1, r0, lsl #16
    2290:	00000000 	andeq	r0, r0, r0
    2294:	00094700 	andeq	r4, r9, r0, lsl #14
    2298:	05040200 	streq	r0, [r4, #-512]	; 0xfffffe00
    229c:	00746e69 	rsbseq	r6, r4, r9, ror #28
    22a0:	99070403 	stmdbls	r7, {r0, r1, sl}
    22a4:	03000005 	movweq	r0, #5
    22a8:	05290601 	streq	r0, [r9, #-1537]!	; 0xfffff9ff
    22ac:	01030000 	mrseq	r0, (UNDEF: 3)
    22b0:	00052708 	andeq	r2, r5, r8, lsl #14
    22b4:	05020300 	streq	r0, [r2, #-768]	; 0xfffffd00
    22b8:	000000a7 	andeq	r0, r0, r7, lsr #1
    22bc:	fe070203 	cdp2	2, 0, cr0, cr7, cr3, {0}
    22c0:	03000005 	movweq	r0, #5
    22c4:	039a0504 	orrseq	r0, sl, #4, 10	; 0x1000000
    22c8:	64040000 	strvs	r0, [r4], #-0
    22cc:	02000001 	andeq	r0, r0, #1
    22d0:	0062194f 	rsbeq	r1, r2, pc, asr #18
    22d4:	04030000 	streq	r0, [r3], #-0
    22d8:	00059407 	andeq	r9, r5, r7, lsl #8
    22dc:	05080300 	streq	r0, [r8, #-768]	; 0xfffffd00
    22e0:	00000395 	muleq	r0, r5, r3
    22e4:	8f070803 	svchi	0x00070803
    22e8:	04000005 	streq	r0, [r0], #-5
    22ec:	00000166 	andeq	r0, r0, r6, ror #2
    22f0:	56143003 	ldrpl	r3, [r4], -r3
    22f4:	05000000 	streq	r0, [r0, #-0]
    22f8:	000006ea 	andeq	r0, r0, sl, ror #13
    22fc:	77110804 	ldrvc	r0, [r1, -r4, lsl #16]
    2300:	05000000 	streq	r0, [r0, #-0]
    2304:	00000109 	andeq	r0, r0, r9, lsl #2
    2308:	77110904 	ldrvc	r0, [r1, -r4, lsl #18]
    230c:	05000000 	streq	r0, [r0, #-0]
    2310:	0000012f 	andeq	r0, r0, pc, lsr #2
    2314:	77110a04 	ldrvc	r0, [r1, -r4, lsl #20]
    2318:	05000000 	streq	r0, [r0, #-0]
    231c:	0000079d 	muleq	r0, sp, r7
    2320:	77110b04 	ldrvc	r0, [r1, -r4, lsl #22]
    2324:	05000000 	streq	r0, [r0, #-0]
    2328:	00000155 	andeq	r0, r0, r5, asr r1
    232c:	77110d04 	ldrvc	r0, [r1, -r4, lsl #26]
    2330:	05000000 	streq	r0, [r0, #-0]
    2334:	000006c8 	andeq	r0, r0, r8, asr #13
    2338:	77110e04 	ldrvc	r0, [r1, -r4, lsl #28]
    233c:	05000000 	streq	r0, [r0, #-0]
    2340:	000002d9 	ldrdeq	r0, [r0], -r9
    2344:	77110f04 	ldrvc	r0, [r1, -r4, lsl #30]
    2348:	05000000 	streq	r0, [r0, #-0]
    234c:	00000676 	andeq	r0, r0, r6, ror r6
    2350:	77111004 	ldrvc	r1, [r1, -r4]
    2354:	05000000 	streq	r0, [r0, #-0]
    2358:	000008f7 	strdeq	r0, [r0], -r7
    235c:	77111104 	ldrvc	r1, [r1, -r4, lsl #2]
    2360:	05000000 	streq	r0, [r0, #-0]
    2364:	00000627 	andeq	r0, r0, r7, lsr #12
    2368:	77111204 	ldrvc	r1, [r1, -r4, lsl #4]
    236c:	05000000 	streq	r0, [r0, #-0]
    2370:	00000236 	andeq	r0, r0, r6, lsr r2
    2374:	77111404 	ldrvc	r1, [r1, -r4, lsl #8]
    2378:	05000000 	streq	r0, [r0, #-0]
    237c:	00000515 	andeq	r0, r0, r5, lsl r5
    2380:	77111504 	ldrvc	r1, [r1, -r4, lsl #10]
    2384:	05000000 	streq	r0, [r0, #-0]
    2388:	0000057d 	andeq	r0, r0, sp, ror r5
    238c:	77111604 	ldrvc	r1, [r1, -r4, lsl #12]
    2390:	05000000 	streq	r0, [r0, #-0]
    2394:	000002db 	ldrdeq	r0, [r0], -fp
    2398:	77111b04 	ldrvc	r1, [r1, -r4, lsl #22]
    239c:	05000000 	streq	r0, [r0, #-0]
    23a0:	0000004b 	andeq	r0, r0, fp, asr #32
    23a4:	77112004 	ldrvc	r2, [r1, -r4]
    23a8:	05000000 	streq	r0, [r0, #-0]
    23ac:	000004ac 	andeq	r0, r0, ip, lsr #9
    23b0:	77112204 	ldrvc	r2, [r1, -r4, lsl #4]
    23b4:	05000000 	streq	r0, [r0, #-0]
    23b8:	0000036e 	andeq	r0, r0, lr, ror #6
    23bc:	77112404 	ldrvc	r2, [r1, -r4, lsl #8]
    23c0:	05000000 	streq	r0, [r0, #-0]
    23c4:	0000069c 	muleq	r0, ip, r6
    23c8:	77112704 	ldrvc	r2, [r1, -r4, lsl #14]
    23cc:	05000000 	streq	r0, [r0, #-0]
    23d0:	00000324 	andeq	r0, r0, r4, lsr #6
    23d4:	77112804 	ldrvc	r2, [r1, -r4, lsl #16]
    23d8:	05000000 	streq	r0, [r0, #-0]
    23dc:	00000931 	andeq	r0, r0, r1, lsr r9
    23e0:	77112904 	ldrvc	r2, [r1, -r4, lsl #18]
    23e4:	05000000 	streq	r0, [r0, #-0]
    23e8:	00000355 	andeq	r0, r0, r5, asr r3
    23ec:	77112a04 	ldrvc	r2, [r1, -r4, lsl #20]
    23f0:	05000000 	streq	r0, [r0, #-0]
    23f4:	00000077 	andeq	r0, r0, r7, ror r0
    23f8:	77112c04 	ldrvc	r2, [r1, -r4, lsl #24]
    23fc:	05000000 	streq	r0, [r0, #-0]
    2400:	000008b4 			; <UNDEFINED> instruction: 0x000008b4
    2404:	77112e04 	ldrvc	r2, [r1, -r4, lsl #28]
    2408:	05000000 	streq	r0, [r0, #-0]
    240c:	000009a6 	andeq	r0, r0, r6, lsr #19
    2410:	77112f04 	ldrvc	r2, [r1, -r4, lsl #30]
    2414:	05000000 	streq	r0, [r0, #-0]
    2418:	000003d0 	ldrdeq	r0, [r0], -r0	; <UNPREDICTABLE>
    241c:	77113004 	ldrvc	r3, [r1, -r4]
    2420:	05000000 	streq	r0, [r0, #-0]
    2424:	000003a3 	andeq	r0, r0, r3, lsr #7
    2428:	77113104 	ldrvc	r3, [r1, -r4, lsl #2]
    242c:	05000000 	streq	r0, [r0, #-0]
    2430:	000006b2 			; <UNDEFINED> instruction: 0x000006b2
    2434:	77113204 	ldrvc	r3, [r1, -r4, lsl #4]
    2438:	05000000 	streq	r0, [r0, #-0]
    243c:	00000008 	andeq	r0, r0, r8
    2440:	77113604 	ldrvc	r3, [r1, -r4, lsl #12]
    2444:	05000000 	streq	r0, [r0, #-0]
    2448:	00000494 	muleq	r0, r4, r4
    244c:	77113704 	ldrvc	r3, [r1, -r4, lsl #14]
    2450:	05000000 	streq	r0, [r0, #-0]
    2454:	000007ac 	andeq	r0, r0, ip, lsr #15
    2458:	77113804 	ldrvc	r3, [r1, -r4, lsl #16]
    245c:	05000000 	streq	r0, [r0, #-0]
    2460:	0000005c 	andeq	r0, r0, ip, asr r0
    2464:	77113c04 	ldrvc	r3, [r1, -r4, lsl #24]
    2468:	05000000 	streq	r0, [r0, #-0]
    246c:	0000072a 	andeq	r0, r0, sl, lsr #14
    2470:	77113e04 	ldrvc	r3, [r1, -r4, lsl #28]
    2474:	05000000 	streq	r0, [r0, #-0]
    2478:	00000636 	andeq	r0, r0, r6, lsr r6
    247c:	77113f04 	ldrvc	r3, [r1, -r4, lsl #30]
    2480:	05000000 	streq	r0, [r0, #-0]
    2484:	00000274 	andeq	r0, r0, r4, ror r2
    2488:	77114004 	ldrvc	r4, [r1, -r4]
    248c:	05000000 	streq	r0, [r0, #-0]
    2490:	0000011a 	andeq	r0, r0, sl, lsl r1
    2494:	77114104 	ldrvc	r4, [r1, -r4, lsl #2]
    2498:	05000000 	streq	r0, [r0, #-0]
    249c:	00000751 	andeq	r0, r0, r1, asr r7
    24a0:	77114304 	ldrvc	r4, [r1, -r4, lsl #6]
    24a4:	05000000 	streq	r0, [r0, #-0]
    24a8:	000001bc 			; <UNDEFINED> instruction: 0x000001bc
    24ac:	77114404 	ldrvc	r4, [r1, -r4, lsl #8]
    24b0:	05000000 	streq	r0, [r0, #-0]
    24b4:	0000091e 	andeq	r0, r0, lr, lsl r9
    24b8:	77114504 	ldrvc	r4, [r1, -r4, lsl #10]
    24bc:	05000000 	streq	r0, [r0, #-0]
    24c0:	00000788 	andeq	r0, r0, r8, lsl #15
    24c4:	77114604 	ldrvc	r4, [r1, -r4, lsl #12]
    24c8:	05000000 	streq	r0, [r0, #-0]
    24cc:	000002e8 	andeq	r0, r0, r8, ror #5
    24d0:	77114804 	ldrvc	r4, [r1, -r4, lsl #16]
    24d4:	05000000 	streq	r0, [r0, #-0]
    24d8:	000006d7 	ldrdeq	r0, [r0], -r7
    24dc:	77114904 	ldrvc	r4, [r1, -r4, lsl #18]
    24e0:	05000000 	streq	r0, [r0, #-0]
    24e4:	0000084b 	andeq	r0, r0, fp, asr #16
    24e8:	77114b04 	ldrvc	r4, [r1, -r4, lsl #22]
    24ec:	05000000 	streq	r0, [r0, #-0]
    24f0:	00000948 	andeq	r0, r0, r8, asr #18
    24f4:	77114c04 	ldrvc	r4, [r1, -r4, lsl #24]
    24f8:	05000000 	streq	r0, [r0, #-0]
    24fc:	000003b9 			; <UNDEFINED> instruction: 0x000003b9
    2500:	77114d04 	ldrvc	r4, [r1, -r4, lsl #26]
    2504:	05000000 	streq	r0, [r0, #-0]
    2508:	0000030d 	andeq	r0, r0, sp, lsl #6
    250c:	77114e04 	ldrvc	r4, [r1, -r4, lsl #28]
    2510:	05000000 	streq	r0, [r0, #-0]
    2514:	0000065f 	andeq	r0, r0, pc, asr r6
    2518:	77114f04 	ldrvc	r4, [r1, -r4, lsl #30]
    251c:	05000000 	streq	r0, [r0, #-0]
    2520:	00000648 	andeq	r0, r0, r8, asr #12
    2524:	77115104 	ldrvc	r5, [r1, -r4, lsl #2]
    2528:	05000000 	streq	r0, [r0, #-0]
    252c:	0000024b 	andeq	r0, r0, fp, asr #4
    2530:	77115204 	ldrvc	r5, [r1, -r4, lsl #4]
    2534:	05000000 	streq	r0, [r0, #-0]
    2538:	00000685 	andeq	r0, r0, r5, lsl #13
    253c:	77115304 	ldrvc	r5, [r1, -r4, lsl #6]
    2540:	05000000 	streq	r0, [r0, #-0]
    2544:	0000016f 	andeq	r0, r0, pc, ror #2
    2548:	77115404 	ldrvc	r5, [r1, -r4, lsl #8]
    254c:	05000000 	streq	r0, [r0, #-0]
    2550:	0000054b 	andeq	r0, r0, fp, asr #10
    2554:	77115504 	ldrvc	r5, [r1, -r4, lsl #10]
    2558:	05000000 	streq	r0, [r0, #-0]
    255c:	00000562 	andeq	r0, r0, r2, ror #10
    2560:	77115704 	ldrvc	r5, [r1, -r4, lsl #14]
    2564:	05000000 	streq	r0, [r0, #-0]
    2568:	000009fa 	strdeq	r0, [r0], -sl
    256c:	77115804 	ldrvc	r5, [r1, -r4, lsl #16]
    2570:	05000000 	streq	r0, [r0, #-0]
    2574:	000007ff 	strdeq	r0, [r0], -pc	; <UNPREDICTABLE>
    2578:	77115c04 	ldrvc	r5, [r1, -r4, lsl #24]
    257c:	05000000 	streq	r0, [r0, #-0]
    2580:	0000083b 	andeq	r0, r0, fp, lsr r8
    2584:	77115d04 	ldrvc	r5, [r1, -r4, lsl #26]
    2588:	05000000 	streq	r0, [r0, #-0]
    258c:	0000020d 	andeq	r0, r0, sp, lsl #4
    2590:	77115f04 	ldrvc	r5, [r1, -r4, lsl #30]
    2594:	05000000 	streq	r0, [r0, #-0]
    2598:	000000e1 	andeq	r0, r0, r1, ror #1
    259c:	77116004 	ldrvc	r6, [r1, -r4]
    25a0:	05000000 	streq	r0, [r0, #-0]
    25a4:	000001aa 	andeq	r0, r0, sl, lsr #3
    25a8:	77116204 	ldrvc	r6, [r1, -r4, lsl #4]
    25ac:	05000000 	streq	r0, [r0, #-0]
    25b0:	000004d4 	ldrdeq	r0, [r0], -r4
    25b4:	77116304 	ldrvc	r6, [r1, -r4, lsl #6]
    25b8:	05000000 	streq	r0, [r0, #-0]
    25bc:	000000f5 	strdeq	r0, [r0], -r5
    25c0:	77116504 	ldrvc	r6, [r1, -r4, lsl #10]
    25c4:	05000000 	streq	r0, [r0, #-0]
    25c8:	000004e9 	andeq	r0, r0, r9, ror #9
    25cc:	77116604 	ldrvc	r6, [r1, -r4, lsl #12]
    25d0:	05000000 	streq	r0, [r0, #-0]
    25d4:	00000779 	andeq	r0, r0, r9, ror r7
    25d8:	77116804 	ldrvc	r6, [r1, -r4, lsl #16]
    25dc:	05000000 	streq	r0, [r0, #-0]
    25e0:	000005db 	ldrdeq	r0, [r0], -fp
    25e4:	77116904 	ldrvc	r6, [r1, -r4, lsl #18]
    25e8:	05000000 	streq	r0, [r0, #-0]
    25ec:	00000482 	andeq	r0, r0, r2, lsl #9
    25f0:	77116b04 	ldrvc	r6, [r1, -r4, lsl #22]
    25f4:	05000000 	streq	r0, [r0, #-0]
    25f8:	00000862 	andeq	r0, r0, r2, ror #16
    25fc:	77116c04 	ldrvc	r6, [r1, -r4, lsl #24]
    2600:	05000000 	streq	r0, [r0, #-0]
    2604:	00000186 	andeq	r0, r0, r6, lsl #3
    2608:	77116e04 	ldrvc	r6, [r1, -r4, lsl #28]
    260c:	05000000 	streq	r0, [r0, #-0]
    2610:	00000500 	andeq	r0, r0, r0, lsl #10
    2614:	77116f04 	ldrvc	r6, [r1, -r4, lsl #30]
    2618:	05000000 	streq	r0, [r0, #-0]
    261c:	00000a15 	andeq	r0, r0, r5, lsl sl
    2620:	77117104 	ldrvc	r7, [r1, -r4, lsl #2]
    2624:	05000000 	streq	r0, [r0, #-0]
    2628:	00000611 	andeq	r0, r0, r1, lsl r6
    262c:	77117204 	ldrvc	r7, [r1, -r4, lsl #4]
    2630:	05000000 	streq	r0, [r0, #-0]
    2634:	000009bc 			; <UNDEFINED> instruction: 0x000009bc
    2638:	77117404 	ldrvc	r7, [r1, -r4, lsl #8]
    263c:	05000000 	streq	r0, [r0, #-0]
    2640:	00000906 	andeq	r0, r0, r6, lsl #18
    2644:	77117504 	ldrvc	r7, [r1, -r4, lsl #10]
    2648:	05000000 	streq	r0, [r0, #-0]
    264c:	000001e5 	andeq	r0, r0, r5, ror #3
    2650:	77117704 	ldrvc	r7, [r1, -r4, lsl #14]
    2654:	05000000 	streq	r0, [r0, #-0]
    2658:	00000715 	andeq	r0, r0, r5, lsl r7
    265c:	77117804 	ldrvc	r7, [r1, -r4, lsl #16]
    2660:	05000000 	streq	r0, [r0, #-0]
    2664:	000003fe 	strdeq	r0, [r0], -lr
    2668:	77117a04 	ldrvc	r7, [r1, -r4, lsl #20]
    266c:	05000000 	streq	r0, [r0, #-0]
    2670:	000005e9 	andeq	r0, r0, r9, ror #11
    2674:	77117b04 	ldrvc	r7, [r1, -r4, lsl #22]
    2678:	05000000 	streq	r0, [r0, #-0]
    267c:	00000427 	andeq	r0, r0, r7, lsr #8
    2680:	77117d04 	ldrvc	r7, [r1, -r4, lsl #26]
    2684:	05000000 	streq	r0, [r0, #-0]
    2688:	000000cb 	andeq	r0, r0, fp, asr #1
    268c:	77117e04 	ldrvc	r7, [r1, -r4, lsl #28]
    2690:	05000000 	streq	r0, [r0, #-0]
    2694:	00000a3f 	andeq	r0, r0, pc, lsr sl
    2698:	77118004 	ldrvc	r8, [r1, -r4]
    269c:	05000000 	streq	r0, [r0, #-0]
    26a0:	0000021e 	andeq	r0, r0, lr, lsl r2
    26a4:	77118104 	ldrvc	r8, [r1, -r4, lsl #2]
    26a8:	05000000 	streq	r0, [r0, #-0]
    26ac:	0000006b 	andeq	r0, r0, fp, rrx
    26b0:	77118704 	ldrvc	r8, [r1, -r4, lsl #14]
    26b4:	05000000 	streq	r0, [r0, #-0]
    26b8:	00000442 	andeq	r0, r0, r2, asr #8
    26bc:	77118a04 	ldrvc	r8, [r1, -r4, lsl #20]
    26c0:	05000000 	streq	r0, [r0, #-0]
    26c4:	000005a6 	andeq	r0, r0, r6, lsr #11
    26c8:	77118d04 	ldrvc	r8, [r1, -r4, lsl #26]
    26cc:	05000000 	streq	r0, [r0, #-0]
    26d0:	000005b6 			; <UNDEFINED> instruction: 0x000005b6
    26d4:	77119104 	ldrvc	r9, [r1, -r4, lsl #2]
    26d8:	05000000 	streq	r0, [r0, #-0]
    26dc:	00000089 	andeq	r0, r0, r9, lsl #1
    26e0:	77119204 	ldrvc	r9, [r1, -r4, lsl #4]
    26e4:	05000000 	streq	r0, [r0, #-0]
    26e8:	00000383 	andeq	r0, r0, r3, lsl #7
    26ec:	77119304 	ldrvc	r9, [r1, -r4, lsl #6]
    26f0:	05000000 	streq	r0, [r0, #-0]
    26f4:	000005c7 	andeq	r0, r0, r7, asr #11
    26f8:	77119404 	ldrvc	r9, [r1, -r4, lsl #8]
    26fc:	05000000 	streq	r0, [r0, #-0]
    2700:	000009e8 	andeq	r0, r0, r8, ror #19
    2704:	77119604 	ldrvc	r9, [r1, -r4, lsl #12]
    2708:	05000000 	streq	r0, [r0, #-0]
    270c:	00000455 	andeq	r0, r0, r5, asr r4
    2710:	77119804 	ldrvc	r9, [r1, -r4, lsl #16]
    2714:	05000000 	streq	r0, [r0, #-0]
    2718:	00000535 	andeq	r0, r0, r5, lsr r5
    271c:	77119904 	ldrvc	r9, [r1, -r4, lsl #18]
    2720:	05000000 	streq	r0, [r0, #-0]
    2724:	00000763 	andeq	r0, r0, r3, ror #14
    2728:	77119a04 	ldrvc	r9, [r1, -r4, lsl #20]
    272c:	05000000 	streq	r0, [r0, #-0]
    2730:	000008e1 	andeq	r0, r0, r1, ror #17
    2734:	77119b04 	ldrvc	r9, [r1, -r4, lsl #22]
    2738:	05000000 	streq	r0, [r0, #-0]
    273c:	000001f7 	strdeq	r0, [r0], -r7
    2740:	77119c04 	ldrvc	r9, [r1, -r4, lsl #24]
    2744:	05000000 	streq	r0, [r0, #-0]
    2748:	000008a5 	andeq	r0, r0, r5, lsr #17
    274c:	7711a104 	ldrvc	sl, [r1, -r4, lsl #2]
    2750:	05000000 	streq	r0, [r0, #-0]
    2754:	00000262 	andeq	r0, r0, r2, ror #4
    2758:	7711a304 	ldrvc	sl, [r1, -r4, lsl #6]
    275c:	05000000 	streq	r0, [r0, #-0]
    2760:	00000198 	muleq	r0, r8, r1
    2764:	7711a404 	ldrvc	sl, [r1, -r4, lsl #8]
    2768:	05000000 	streq	r0, [r0, #-0]
    276c:	00000828 	andeq	r0, r0, r8, lsr #16
    2770:	7711a504 	ldrvc	sl, [r1, -r4, lsl #10]
    2774:	05000000 	streq	r0, [r0, #-0]
    2778:	000007c4 	andeq	r0, r0, r4, asr #15
    277c:	7711a604 	ldrvc	sl, [r1, -r4, lsl #12]
    2780:	05000000 	streq	r0, [r0, #-0]
    2784:	000002fb 	strdeq	r0, [r0], -fp
    2788:	7711a804 	ldrvc	sl, [r1, -r4, lsl #16]
    278c:	05000000 	streq	r0, [r0, #-0]
    2790:	000000b9 	strheq	r0, [r0], -r9
    2794:	7711a904 	ldrvc	sl, [r1, -r4, lsl #18]
    2798:	05000000 	streq	r0, [r0, #-0]
    279c:	000007ec 	andeq	r0, r0, ip, ror #15
    27a0:	7711aa04 	ldrvc	sl, [r1, -r4, lsl #20]
    27a4:	05000000 	streq	r0, [r0, #-0]
    27a8:	0000073c 	andeq	r0, r0, ip, lsr r7
    27ac:	7711ab04 	ldrvc	sl, [r1, -r4, lsl #22]
    27b0:	05000000 	streq	r0, [r0, #-0]
    27b4:	00000142 	andeq	r0, r0, r2, asr #2
    27b8:	7711ad04 	ldrvc	sl, [r1, -r4, lsl #26]
    27bc:	05000000 	streq	r0, [r0, #-0]
    27c0:	000007d9 	ldrdeq	r0, [r0], -r9
    27c4:	7711ae04 	ldrvc	sl, [r1, -r4, lsl #28]
    27c8:	05000000 	streq	r0, [r0, #-0]
    27cc:	00000410 	andeq	r0, r0, r0, lsl r4
    27d0:	7711b004 	ldrvc	fp, [r1, -r4]
    27d4:	05000000 	streq	r0, [r0, #-0]
    27d8:	000009d1 	ldrdeq	r0, [r0], -r1
    27dc:	7711b104 	ldrvc	fp, [r1, -r4, lsl #2]
    27e0:	05000000 	streq	r0, [r0, #-0]
    27e4:	000008ca 	andeq	r0, r0, sl, asr #17
    27e8:	7711b204 	ldrvc	fp, [r1, -r4, lsl #4]
    27ec:	05000000 	streq	r0, [r0, #-0]
    27f0:	0000088e 	andeq	r0, r0, lr, lsl #17
    27f4:	7711b304 	ldrvc	fp, [r1, -r4, lsl #6]
    27f8:	05000000 	streq	r0, [r0, #-0]
    27fc:	00000877 	andeq	r0, r0, r7, ror r8
    2800:	7711b404 	ldrvc	fp, [r1, -r4, lsl #8]
    2804:	05000000 	streq	r0, [r0, #-0]
    2808:	00000a28 	andeq	r0, r0, r8, lsr #20
    280c:	7711b604 	ldrvc	fp, [r1, -r4, lsl #12]
    2810:	05000000 	streq	r0, [r0, #-0]
    2814:	0000046b 	andeq	r0, r0, fp, ror #8
    2818:	7711b704 	ldrvc	fp, [r1, -r4, lsl #14]
    281c:	05000000 	streq	r0, [r0, #-0]
    2820:	000001ce 	andeq	r0, r0, lr, asr #3
    2824:	7711b804 	ldrvc	fp, [r1, -r4, lsl #16]
    2828:	05000000 	streq	r0, [r0, #-0]
    282c:	0000001d 	andeq	r0, r0, sp, lsl r0
    2830:	7711b904 	ldrvc	fp, [r1, -r4, lsl #18]
    2834:	05000000 	streq	r0, [r0, #-0]
    2838:	00000034 	andeq	r0, r0, r4, lsr r0
    283c:	7711ba04 	ldrvc	fp, [r1, -r4, lsl #20]
    2840:	05000000 	streq	r0, [r0, #-0]
    2844:	0000033a 	andeq	r0, r0, sl, lsr r3
    2848:	7711bc04 	ldrvc	fp, [r1, -r4, lsl #24]
    284c:	05000000 	streq	r0, [r0, #-0]
    2850:	000006fa 	strdeq	r0, [r0], -sl
    2854:	7711bd04 	ldrvc	fp, [r1, -r4, lsl #26]
    2858:	05000000 	streq	r0, [r0, #-0]
    285c:	000004c4 	andeq	r0, r0, r4, asr #9
    2860:	7711c204 	ldrvc	ip, [r1, -r4, lsl #4]
    2864:	05000000 	streq	r0, [r0, #-0]
    2868:	00000810 	andeq	r0, r0, r0, lsl r8
    286c:	7711c304 	ldrvc	ip, [r1, -r4, lsl #6]
    2870:	05000000 	streq	r0, [r0, #-0]
    2874:	000003e6 	andeq	r0, r0, r6, ror #7
    2878:	7711c404 	ldrvc	ip, [r1, -r4, lsl #8]
    287c:	06000000 	streq	r0, [r0], -r0
    2880:	00424354 	subeq	r4, r2, r4, asr r3
    2884:	08070520 	stmdaeq	r7, {r5, r8, sl}
    2888:	0000067f 	andeq	r0, r0, pc, ror r6
    288c:	00120f07 	andseq	r0, r2, r7, lsl #30
    2890:	09090500 	stmdbeq	r9, {r8, sl}
    2894:	00000025 	andeq	r0, r0, r5, lsr #32
    2898:	44490800 	strbmi	r0, [r9], #-2048	; 0xfffff800
    289c:	090a0500 	stmdbeq	sl, {r8, sl}
    28a0:	00000025 	andeq	r0, r0, r5, lsr #32
    28a4:	43500804 	cmpmi	r0, #4, 16	; 0x40000
    28a8:	0e0b0500 	cfsh32eq	mvfx0, mvfx11, #0
    28ac:	00000077 	andeq	r0, r0, r7, ror r0
    28b0:	12c70708 	sbcne	r0, r7, #8, 14	; 0x200000
    28b4:	0c050000 	stceq	0, cr0, [r5], {-0}
    28b8:	00002509 	andeq	r2, r0, r9, lsl #10
    28bc:	e9070c00 	stmdb	r7, {sl, fp}
    28c0:	05000012 	streq	r0, [r0, #-18]	; 0xffffffee
    28c4:	0025090d 	eoreq	r0, r5, sp, lsl #18
    28c8:	07100000 	ldreq	r0, [r0, -r0]
    28cc:	000012de 	ldrdeq	r1, [r0], -lr
    28d0:	25090e05 	strcs	r0, [r9, #-3589]	; 0xfffff1fb
    28d4:	14000000 	strne	r0, [r0], #-0
    28d8:	00123107 	andseq	r3, r2, r7, lsl #2
    28dc:	090f0500 	stmdbeq	pc, {r8, sl}	; <UNPREDICTABLE>
    28e0:	00000025 	andeq	r0, r0, r5, lsr #32
    28e4:	0b790718 	bleq	1e4454c <__kernel_size__+0x1e43018>
    28e8:	10050000 	andne	r0, r5, r0
    28ec:	0000770e 	andeq	r7, r0, lr, lsl #14
    28f0:	05001c00 	streq	r1, [r0, #-3072]	; 0xfffff400
    28f4:	0000120f 	andeq	r1, r0, pc, lsl #4
    28f8:	250c1305 	strcs	r1, [ip, #-773]	; 0xfffffcfb
    28fc:	05000000 	streq	r0, [r0, #-0]
    2900:	0000123c 	andeq	r1, r0, ip, lsr r2
    2904:	25131305 	ldrcs	r1, [r3, #-773]	; 0xfffffcfb
    2908:	05000000 	streq	r0, [r0, #-0]
    290c:	000012d2 	ldrdeq	r1, [r0], -r2
    2910:	25211305 	strcs	r1, [r1, #-773]!	; 0xfffffcfb
    2914:	09000000 	stmdbeq	r0, {}	; <UNPREDICTABLE>
    2918:	0000060b 	andeq	r0, r0, fp, lsl #12
    291c:	000006b3 			; <UNDEFINED> instruction: 0x000006b3
    2920:	00002c0a 	andeq	r2, r0, sl, lsl #24
    2924:	05000200 	streq	r0, [r0, #-512]	; 0xfffffe00
    2928:	00001226 	andeq	r1, r0, r6, lsr #4
    292c:	a3131405 	tstge	r3, #83886080	; 0x5000000
    2930:	05000006 	streq	r0, [r0, #-6]
    2934:	00001265 	andeq	r1, r0, r5, ror #4
    2938:	77111805 	ldrvc	r1, [r1, -r5, lsl #16]
    293c:	05000000 	streq	r0, [r0, #-0]
    2940:	000011f3 	strdeq	r1, [r0], -r3
    2944:	77311805 	ldrvc	r1, [r1, -r5, lsl #16]!
    2948:	05000000 	streq	r0, [r0, #-0]
    294c:	00001284 	andeq	r1, r0, r4, lsl #5
    2950:	774e1805 	strbvc	r1, [lr, -r5, lsl #16]
    2954:	05000000 	streq	r0, [r0, #-0]
    2958:	0000119c 	muleq	r0, ip, r1
    295c:	77111905 	ldrvc	r1, [r1, -r5, lsl #18]
    2960:	05000000 	streq	r0, [r0, #-0]
    2964:	0000132f 	andeq	r1, r0, pc, lsr #6
    2968:	77311905 	ldrvc	r1, [r1, -r5, lsl #18]!
    296c:	05000000 	streq	r0, [r0, #-0]
    2970:	000011d7 	ldrdeq	r1, [r0], -r7
    2974:	774e1905 	strbvc	r1, [lr, -r5, lsl #18]
    2978:	05000000 	streq	r0, [r0, #-0]
    297c:	0000117d 	andeq	r1, r0, sp, ror r1
    2980:	77111b05 	ldrvc	r1, [r1, -r5, lsl #22]
    2984:	05000000 	streq	r0, [r0, #-0]
    2988:	00001313 	andeq	r1, r0, r3, lsl r3
    298c:	77311b05 	ldrvc	r1, [r1, -r5, lsl #22]!
    2990:	05000000 	streq	r0, [r0, #-0]
    2994:	000011bb 			; <UNDEFINED> instruction: 0x000011bb
    2998:	774e1b05 	strbvc	r1, [lr, -r5, lsl #22]
    299c:	05000000 	streq	r0, [r0, #-0]
    29a0:	000012f4 	strdeq	r1, [r0], -r4
    29a4:	77111c05 	ldrvc	r1, [r1, -r5, lsl #24]
    29a8:	05000000 	streq	r0, [r0, #-0]
    29ac:	000012a0 	andeq	r1, r0, r0, lsr #5
    29b0:	77311c05 	ldrvc	r1, [r1, -r5, lsl #24]!
    29b4:	05000000 	streq	r0, [r0, #-0]
    29b8:	00001249 	andeq	r1, r0, r9, asr #4
    29bc:	774e1c05 	strbvc	r1, [lr, -r5, lsl #24]
    29c0:	0b000000 	bleq	29c8 <__kernel_size__+0x1494>
    29c4:	000012bc 			; <UNDEFINED> instruction: 0x000012bc
    29c8:	e02f0b01 	eor	r0, pc, r1, lsl #22
    29cc:	2870030f 	ldmdacs	r0!, {r0, r1, r2, r3, r8, r9}^
    29d0:	01000000 	mrseq	r0, (UNDEF: 0)
    29d4:	0a1b009c 	beq	6c2c4c <__kernel_size__+0x6c1718>
    29d8:	00040000 	andeq	r0, r4, r0
    29dc:	000006d1 	ldrdeq	r0, [r0], -r1
    29e0:	02870104 	addeq	r0, r7, #4, 2
    29e4:	750c0000 	strvc	r0, [ip, #-0]
    29e8:	5f000013 	svcpl	0x00000013
    29ec:	18000009 	stmdane	r0, {r0, r3}
    29f0:	00000001 	andeq	r0, r0, r1
    29f4:	9f000000 	svcls	0x00000000
    29f8:	0200000a 	andeq	r0, r0, #10
    29fc:	6e690504 	cdpvs	5, 6, cr0, cr9, cr4, {0}
    2a00:	04030074 	streq	r0, [r3], #-116	; 0xffffff8c
    2a04:	00059907 	andeq	r9, r5, r7, lsl #18
    2a08:	06010300 	streq	r0, [r1], -r0, lsl #6
    2a0c:	00000529 	andeq	r0, r0, r9, lsr #10
    2a10:	000aae04 	andeq	sl, sl, r4, lsl #28
    2a14:	182b0200 	stmdane	fp!, {r9}
    2a18:	00000046 	andeq	r0, r0, r6, asr #32
    2a1c:	27080103 	strcs	r0, [r8, -r3, lsl #2]
    2a20:	03000005 	movweq	r0, #5
    2a24:	00a70502 	adceq	r0, r7, r2, lsl #10
    2a28:	02030000 	andeq	r0, r3, #0
    2a2c:	0005fe07 	andeq	pc, r5, r7, lsl #28
    2a30:	05040300 	streq	r0, [r4, #-768]	; 0xfffffd00
    2a34:	0000039a 	muleq	r0, sl, r3
    2a38:	00016404 	andeq	r6, r1, r4, lsl #8
    2a3c:	194f0200 	stmdbne	pc, {r9}^	; <UNPREDICTABLE>
    2a40:	0000006e 	andeq	r0, r0, lr, rrx
    2a44:	94070403 	strls	r0, [r7], #-1027	; 0xfffffbfd
    2a48:	03000005 	movweq	r0, #5
    2a4c:	03950508 	orrseq	r0, r5, #8, 10	; 0x2000000
    2a50:	08030000 	stmdaeq	r3, {}	; <UNPREDICTABLE>
    2a54:	00058f07 	andeq	r8, r5, r7, lsl #30
    2a58:	0ab00400 	beq	fec03a60 <__TAREA_1_RODATA_PHY+0x7e4afa60>
    2a5c:	18030000 	stmdane	r3, {}	; <UNPREDICTABLE>
    2a60:	00003a13 	andeq	r3, r0, r3, lsl sl
    2a64:	01660400 	cmneq	r6, r0, lsl #8
    2a68:	30030000 	andcc	r0, r3, r0
    2a6c:	00006214 	andeq	r6, r0, r4, lsl r2
    2a70:	041c0500 	ldreq	r0, [ip], #-1280	; 0xfffffb00
    2a74:	0100121b 	tsteq	r0, fp, lsl r2
    2a78:	85060000 	strhi	r0, [r6, #-0]
    2a7c:	0400000c 	streq	r0, [r0], #-12
    2a80:	008f151d 	addeq	r1, pc, sp, lsl r5	; <UNPREDICTABLE>
    2a84:	07000000 	streq	r0, [r0, -r0]
    2a88:	00524d50 	subseq	r4, r2, r0, asr sp
    2a8c:	8f151e04 	svchi	0x00151e04
    2a90:	04000000 	streq	r0, [r0], #-0
    2a94:	52504207 	subspl	r4, r0, #1879048192	; 0x70000000
    2a98:	151f0400 	ldrne	r0, [pc, #-1024]	; 26a0 <__kernel_size__+0x116c>
    2a9c:	0000008f 	andeq	r0, r0, pc, lsl #1
    2aa0:	41490708 	cmpmi	r9, r8, lsl #14
    2aa4:	20040052 	andcs	r0, r4, r2, asr r0
    2aa8:	00008f15 	andeq	r8, r0, r5, lsl pc
    2aac:	d1060c00 	tstle	r6, r0, lsl #24
    2ab0:	0400000f 	streq	r0, [r0], #-15
    2ab4:	008f1521 	addeq	r1, pc, r1, lsr #10
    2ab8:	07100000 	ldreq	r0, [r0, -r0]
    2abc:	00525052 	subseq	r5, r2, r2, asr r0
    2ac0:	8f152204 	svchi	0x00152204
    2ac4:	14000000 	strne	r0, [r0], #-0
    2ac8:	00105406 	andseq	r5, r0, r6, lsl #8
    2acc:	15230400 	strne	r0, [r3, #-1024]!	; 0xfffffc00
    2ad0:	0000008f 	andeq	r0, r0, pc, lsl #1
    2ad4:	9b080018 	blls	202b3c <__kernel_size__+0x201608>
    2ad8:	04000000 	streq	r0, [r0], #-0
    2adc:	00000fbe 			; <UNDEFINED> instruction: 0x00000fbe
    2ae0:	00072404 	andeq	r2, r7, r4, lsl #8
    2ae4:	09000001 	stmdbeq	r0, {r0}
    2ae8:	0e051000 	cdpeq	0, 0, cr1, cr5, cr0, {0}
    2aec:	00023212 	andeq	r3, r2, r2, lsl r2
    2af0:	10b50600 	adcsne	r0, r5, r0, lsl #12
    2af4:	0f050000 	svceq	0x00050000
    2af8:	00008f0c 	andeq	r8, r0, ip, lsl #30
    2afc:	71060000 	mrsvc	r0, (UNDEF: 6)
    2b00:	05000011 	streq	r0, [r0, #-17]	; 0xffffffef
    2b04:	008f0c10 	addeq	r0, pc, r0, lsl ip	; <UNPREDICTABLE>
    2b08:	06040000 	streq	r0, [r4], -r0
    2b0c:	00001098 	muleq	r0, r8, r0
    2b10:	8f0c1105 	svchi	0x000c1105
    2b14:	08000000 	stmdaeq	r0, {}	; <UNPREDICTABLE>
    2b18:	00110906 	andseq	r0, r1, r6, lsl #18
    2b1c:	0c120500 	cfldr32eq	mvfx0, [r2], {-0}
    2b20:	0000008f 	andeq	r0, r0, pc, lsl #1
    2b24:	112d060c 			; <UNDEFINED> instruction: 0x112d060c
    2b28:	13050000 	movwne	r0, #20480	; 0x5000
    2b2c:	00008f0c 	andeq	r8, r0, ip, lsl #30
    2b30:	8e061000 	cdphi	0, 0, cr1, cr6, cr0, {0}
    2b34:	05000010 	streq	r0, [r0, #-16]
    2b38:	008f0c14 	addeq	r0, pc, r4, lsl ip	; <UNPREDICTABLE>
    2b3c:	06140000 	ldreq	r0, [r4], -r0
    2b40:	0000115a 	andeq	r1, r0, sl, asr r1
    2b44:	8f0c1505 	svchi	0x000c1505
    2b48:	18000000 	stmdane	r0, {}	; <UNPREDICTABLE>
    2b4c:	000fea06 	andeq	lr, pc, r6, lsl #20
    2b50:	03160500 	tsteq	r6, #0, 10
    2b54:	00000237 	andeq	r0, r0, r7, lsr r2
    2b58:	10fe061c 	rscsne	r0, lr, ip, lsl r6
    2b5c:	17050000 	strne	r0, [r5, -r0]
    2b60:	00008f0c 	andeq	r8, r0, ip, lsl #30
    2b64:	c0062000 	andgt	r2, r6, r0
    2b68:	05000010 	streq	r0, [r0, #-16]
    2b6c:	008f0c18 	addeq	r0, pc, r8, lsl ip	; <UNPREDICTABLE>
    2b70:	06240000 	strteq	r0, [r4], -r0
    2b74:	000010d6 	ldrdeq	r1, [r0], -r6
    2b78:	8f0c1905 	svchi	0x000c1905
    2b7c:	28000000 	stmdacs	r0, {}	; <UNPREDICTABLE>
    2b80:	00111606 	andseq	r1, r1, r6, lsl #12
    2b84:	0c1a0500 	cfldr32eq	mvfx0, [sl], {-0}
    2b88:	0000008f 	andeq	r0, r0, pc, lsl #1
    2b8c:	1167062c 	cmnne	r7, ip, lsr #12
    2b90:	1b050000 	blne	142b98 <__kernel_size__+0x141664>
    2b94:	00008f0c 	andeq	r8, r0, ip, lsl #30
    2b98:	a3063000 	movwge	r3, #24576	; 0x6000
    2b9c:	05000010 	streq	r0, [r0, #-16]
    2ba0:	008f0c1c 	addeq	r0, pc, ip, lsl ip	; <UNPREDICTABLE>
    2ba4:	06340000 	ldrteq	r0, [r4], -r0
    2ba8:	00001137 	andeq	r1, r0, r7, lsr r1
    2bac:	8f0c1d05 	svchi	0x000c1d05
    2bb0:	38000000 	stmdacc	r0, {}	; <UNPREDICTABLE>
    2bb4:	000ff406 	andeq	pc, pc, r6, lsl #8
    2bb8:	031e0500 	tsteq	lr, #0, 10
    2bbc:	00000247 	andeq	r0, r0, r7, asr #4
    2bc0:	10cc0a3c 	sbcne	r0, ip, ip, lsr sl
    2bc4:	1f050000 	svcne	0x00050000
    2bc8:	00008f0c 	andeq	r8, r0, ip, lsl #30
    2bcc:	0a0f0000 	beq	3c2bd4 <__kernel_size__+0x3c16a0>
    2bd0:	00001123 	andeq	r1, r0, r3, lsr #2
    2bd4:	8f0c2005 	svchi	0x000c2005
    2bd8:	04000000 	streq	r0, [r0], #-0
    2bdc:	0ffe0a0f 	svceq	0x00fe0a0f
    2be0:	21050000 	mrscs	r0, (UNDEF: 5)
    2be4:	00025803 	andeq	r5, r2, r3, lsl #16
    2be8:	0a0f0800 	beq	3c4bf0 <__kernel_size__+0x3c36bc>
    2bec:	00001144 	andeq	r1, r0, r4, asr #2
    2bf0:	680c2205 	stmdavs	ip, {r0, r2, r9, sp}
    2bf4:	e0000002 	and	r0, r0, r2
    2bf8:	10f60a0f 	rscsne	r0, r6, pc, lsl #20
    2bfc:	23050000 	movwcs	r0, #20480	; 0x5000
    2c00:	0002680d 	andeq	r6, r2, sp, lsl #16
    2c04:	000ff000 	andeq	pc, pc, r0
    2c08:	00011108 	andeq	r1, r1, r8, lsl #2
    2c0c:	00830b00 	addeq	r0, r3, r0, lsl #22
    2c10:	02470000 	subeq	r0, r7, #0
    2c14:	2c0c0000 	stccs	0, cr0, [ip], {-0}
    2c18:	03000000 	movweq	r0, #0
    2c1c:	00830b00 	addeq	r0, r3, r0, lsl #22
    2c20:	02580000 	subseq	r0, r8, #0
    2c24:	2c0d0000 	stccs	0, cr0, [sp], {-0}
    2c28:	c3000000 	movwgt	r0, #0
    2c2c:	830b000e 	movwhi	r0, #45070	; 0xb00e
    2c30:	68000000 	stmdavs	r0, {}	; <UNPREDICTABLE>
    2c34:	0c000002 	stceq	0, cr0, [r0], {2}
    2c38:	0000002c 	andeq	r0, r0, ip, lsr #32
    2c3c:	8f0b00d7 	svchi	0x000b00d7
    2c40:	78000000 	stmdavc	r0, {}	; <UNPREDICTABLE>
    2c44:	0c000002 	stceq	0, cr0, [r0], {2}
    2c48:	0000002c 	andeq	r0, r0, ip, lsr #32
    2c4c:	ed040003 	stc	0, cr0, [r4, #-12]
    2c50:	05000010 	streq	r0, [r0, #-16]
    2c54:	02320324 	eorseq	r0, r2, #36, 6	; 0x90000000
    2c58:	ea0e0000 	b	382c60 <__kernel_size__+0x38172c>
    2c5c:	06000006 	streq	r0, [r0], -r6
    2c60:	008f1108 	addeq	r1, pc, r8, lsl #2
    2c64:	090e0000 	stmdbeq	lr, {}	; <UNPREDICTABLE>
    2c68:	06000001 	streq	r0, [r0], -r1
    2c6c:	008f1109 	addeq	r1, pc, r9, lsl #2
    2c70:	2f0e0000 	svccs	0x000e0000
    2c74:	06000001 	streq	r0, [r0], -r1
    2c78:	008f110a 	addeq	r1, pc, sl, lsl #2
    2c7c:	9d0e0000 	stcls	0, cr0, [lr, #-0]
    2c80:	06000007 	streq	r0, [r0], -r7
    2c84:	008f110b 	addeq	r1, pc, fp, lsl #2
    2c88:	550e0000 	strpl	r0, [lr, #-0]
    2c8c:	06000001 	streq	r0, [r0], -r1
    2c90:	008f110d 	addeq	r1, pc, sp, lsl #2
    2c94:	c80e0000 	stmdagt	lr, {}	; <UNPREDICTABLE>
    2c98:	06000006 	streq	r0, [r0], -r6
    2c9c:	008f110e 	addeq	r1, pc, lr, lsl #2
    2ca0:	d90e0000 	stmdble	lr, {}	; <UNPREDICTABLE>
    2ca4:	06000002 	streq	r0, [r0], -r2
    2ca8:	008f110f 	addeq	r1, pc, pc, lsl #2
    2cac:	760e0000 	strvc	r0, [lr], -r0
    2cb0:	06000006 	streq	r0, [r0], -r6
    2cb4:	008f1110 	addeq	r1, pc, r0, lsl r1	; <UNPREDICTABLE>
    2cb8:	f70e0000 			; <UNDEFINED> instruction: 0xf70e0000
    2cbc:	06000008 	streq	r0, [r0], -r8
    2cc0:	008f1111 	addeq	r1, pc, r1, lsl r1	; <UNPREDICTABLE>
    2cc4:	270e0000 	strcs	r0, [lr, -r0]
    2cc8:	06000006 	streq	r0, [r0], -r6
    2ccc:	008f1112 	addeq	r1, pc, r2, lsl r1	; <UNPREDICTABLE>
    2cd0:	360e0000 	strcc	r0, [lr], -r0
    2cd4:	06000002 	streq	r0, [r0], -r2
    2cd8:	008f1114 	addeq	r1, pc, r4, lsl r1	; <UNPREDICTABLE>
    2cdc:	150e0000 	strne	r0, [lr, #-0]
    2ce0:	06000005 	streq	r0, [r0], -r5
    2ce4:	008f1115 	addeq	r1, pc, r5, lsl r1	; <UNPREDICTABLE>
    2ce8:	7d0e0000 	stcvc	0, cr0, [lr, #-0]
    2cec:	06000005 	streq	r0, [r0], -r5
    2cf0:	008f1116 	addeq	r1, pc, r6, lsl r1	; <UNPREDICTABLE>
    2cf4:	db0e0000 	blle	382cfc <__kernel_size__+0x3817c8>
    2cf8:	06000002 	streq	r0, [r0], -r2
    2cfc:	008f111b 	addeq	r1, pc, fp, lsl r1	; <UNPREDICTABLE>
    2d00:	4b0e0000 	blmi	382d08 <__kernel_size__+0x3817d4>
    2d04:	06000000 	streq	r0, [r0], -r0
    2d08:	008f1120 	addeq	r1, pc, r0, lsr #2
    2d0c:	ac0e0000 	stcge	0, cr0, [lr], {-0}
    2d10:	06000004 	streq	r0, [r0], -r4
    2d14:	008f1122 	addeq	r1, pc, r2, lsr #2
    2d18:	6e0e0000 	cdpvs	0, 0, cr0, cr14, cr0, {0}
    2d1c:	06000003 	streq	r0, [r0], -r3
    2d20:	008f1124 	addeq	r1, pc, r4, lsr #2
    2d24:	9c0e0000 	stcls	0, cr0, [lr], {-0}
    2d28:	06000006 	streq	r0, [r0], -r6
    2d2c:	008f1127 	addeq	r1, pc, r7, lsr #2
    2d30:	240e0000 	strcs	r0, [lr], #-0
    2d34:	06000003 	streq	r0, [r0], -r3
    2d38:	008f1128 	addeq	r1, pc, r8, lsr #2
    2d3c:	310e0000 	mrscc	r0, (UNDEF: 14)
    2d40:	06000009 	streq	r0, [r0], -r9
    2d44:	008f1129 	addeq	r1, pc, r9, lsr #2
    2d48:	550e0000 	strpl	r0, [lr, #-0]
    2d4c:	06000003 	streq	r0, [r0], -r3
    2d50:	008f112a 	addeq	r1, pc, sl, lsr #2
    2d54:	770e0000 	strvc	r0, [lr, -r0]
    2d58:	06000000 	streq	r0, [r0], -r0
    2d5c:	008f112c 	addeq	r1, pc, ip, lsr #2
    2d60:	b40e0000 	strlt	r0, [lr], #-0
    2d64:	06000008 	streq	r0, [r0], -r8
    2d68:	008f112e 	addeq	r1, pc, lr, lsr #2
    2d6c:	a60e0000 	strge	r0, [lr], -r0
    2d70:	06000009 	streq	r0, [r0], -r9
    2d74:	008f112f 	addeq	r1, pc, pc, lsr #2
    2d78:	d00e0000 	andle	r0, lr, r0
    2d7c:	06000003 	streq	r0, [r0], -r3
    2d80:	008f1130 	addeq	r1, pc, r0, lsr r1	; <UNPREDICTABLE>
    2d84:	a30e0000 	movwge	r0, #57344	; 0xe000
    2d88:	06000003 	streq	r0, [r0], -r3
    2d8c:	008f1131 	addeq	r1, pc, r1, lsr r1	; <UNPREDICTABLE>
    2d90:	b20e0000 	andlt	r0, lr, #0
    2d94:	06000006 	streq	r0, [r0], -r6
    2d98:	008f1132 	addeq	r1, pc, r2, lsr r1	; <UNPREDICTABLE>
    2d9c:	080e0000 	stmdaeq	lr, {}	; <UNPREDICTABLE>
    2da0:	06000000 	streq	r0, [r0], -r0
    2da4:	008f1136 	addeq	r1, pc, r6, lsr r1	; <UNPREDICTABLE>
    2da8:	940e0000 	strls	r0, [lr], #-0
    2dac:	06000004 	streq	r0, [r0], -r4
    2db0:	008f1137 	addeq	r1, pc, r7, lsr r1	; <UNPREDICTABLE>
    2db4:	ac0e0000 	stcge	0, cr0, [lr], {-0}
    2db8:	06000007 	streq	r0, [r0], -r7
    2dbc:	008f1138 	addeq	r1, pc, r8, lsr r1	; <UNPREDICTABLE>
    2dc0:	5c0e0000 	stcpl	0, cr0, [lr], {-0}
    2dc4:	06000000 	streq	r0, [r0], -r0
    2dc8:	008f113c 	addeq	r1, pc, ip, lsr r1	; <UNPREDICTABLE>
    2dcc:	2a0e0000 	bcs	382dd4 <__kernel_size__+0x3818a0>
    2dd0:	06000007 	streq	r0, [r0], -r7
    2dd4:	008f113e 	addeq	r1, pc, lr, lsr r1	; <UNPREDICTABLE>
    2dd8:	360e0000 	strcc	r0, [lr], -r0
    2ddc:	06000006 	streq	r0, [r0], -r6
    2de0:	008f113f 	addeq	r1, pc, pc, lsr r1	; <UNPREDICTABLE>
    2de4:	740e0000 	strvc	r0, [lr], #-0
    2de8:	06000002 	streq	r0, [r0], -r2
    2dec:	008f1140 	addeq	r1, pc, r0, asr #2
    2df0:	1a0e0000 	bne	382df8 <__kernel_size__+0x3818c4>
    2df4:	06000001 	streq	r0, [r0], -r1
    2df8:	008f1141 	addeq	r1, pc, r1, asr #2
    2dfc:	510e0000 	mrspl	r0, (UNDEF: 14)
    2e00:	06000007 	streq	r0, [r0], -r7
    2e04:	008f1143 	addeq	r1, pc, r3, asr #2
    2e08:	bc0e0000 	stclt	0, cr0, [lr], {-0}
    2e0c:	06000001 	streq	r0, [r0], -r1
    2e10:	008f1144 	addeq	r1, pc, r4, asr #2
    2e14:	1e0e0000 	cdpne	0, 0, cr0, cr14, cr0, {0}
    2e18:	06000009 	streq	r0, [r0], -r9
    2e1c:	008f1145 	addeq	r1, pc, r5, asr #2
    2e20:	880e0000 	stmdahi	lr, {}	; <UNPREDICTABLE>
    2e24:	06000007 	streq	r0, [r0], -r7
    2e28:	008f1146 	addeq	r1, pc, r6, asr #2
    2e2c:	e80e0000 	stmda	lr, {}	; <UNPREDICTABLE>
    2e30:	06000002 	streq	r0, [r0], -r2
    2e34:	008f1148 	addeq	r1, pc, r8, asr #2
    2e38:	d70e0000 	strle	r0, [lr, -r0]
    2e3c:	06000006 	streq	r0, [r0], -r6
    2e40:	008f1149 	addeq	r1, pc, r9, asr #2
    2e44:	4b0e0000 	blmi	382e4c <__kernel_size__+0x381918>
    2e48:	06000008 	streq	r0, [r0], -r8
    2e4c:	008f114b 	addeq	r1, pc, fp, asr #2
    2e50:	480e0000 	stmdami	lr, {}	; <UNPREDICTABLE>
    2e54:	06000009 	streq	r0, [r0], -r9
    2e58:	008f114c 	addeq	r1, pc, ip, asr #2
    2e5c:	b90e0000 	stmdblt	lr, {}	; <UNPREDICTABLE>
    2e60:	06000003 	streq	r0, [r0], -r3
    2e64:	008f114d 	addeq	r1, pc, sp, asr #2
    2e68:	0d0e0000 	stceq	0, cr0, [lr, #-0]
    2e6c:	06000003 	streq	r0, [r0], -r3
    2e70:	008f114e 	addeq	r1, pc, lr, asr #2
    2e74:	5f0e0000 	svcpl	0x000e0000
    2e78:	06000006 	streq	r0, [r0], -r6
    2e7c:	008f114f 	addeq	r1, pc, pc, asr #2
    2e80:	480e0000 	stmdami	lr, {}	; <UNPREDICTABLE>
    2e84:	06000006 	streq	r0, [r0], -r6
    2e88:	008f1151 	addeq	r1, pc, r1, asr r1	; <UNPREDICTABLE>
    2e8c:	4b0e0000 	blmi	382e94 <__kernel_size__+0x381960>
    2e90:	06000002 	streq	r0, [r0], -r2
    2e94:	008f1152 	addeq	r1, pc, r2, asr r1	; <UNPREDICTABLE>
    2e98:	850e0000 	strhi	r0, [lr, #-0]
    2e9c:	06000006 	streq	r0, [r0], -r6
    2ea0:	008f1153 	addeq	r1, pc, r3, asr r1	; <UNPREDICTABLE>
    2ea4:	6f0e0000 	svcvs	0x000e0000
    2ea8:	06000001 	streq	r0, [r0], -r1
    2eac:	008f1154 	addeq	r1, pc, r4, asr r1	; <UNPREDICTABLE>
    2eb0:	4b0e0000 	blmi	382eb8 <__kernel_size__+0x381984>
    2eb4:	06000005 	streq	r0, [r0], -r5
    2eb8:	008f1155 	addeq	r1, pc, r5, asr r1	; <UNPREDICTABLE>
    2ebc:	620e0000 	andvs	r0, lr, #0
    2ec0:	06000005 	streq	r0, [r0], -r5
    2ec4:	008f1157 	addeq	r1, pc, r7, asr r1	; <UNPREDICTABLE>
    2ec8:	fa0e0000 	blx	382ed0 <__kernel_size__+0x38199c>
    2ecc:	06000009 	streq	r0, [r0], -r9
    2ed0:	008f1158 	addeq	r1, pc, r8, asr r1	; <UNPREDICTABLE>
    2ed4:	ff0e0000 			; <UNDEFINED> instruction: 0xff0e0000
    2ed8:	06000007 	streq	r0, [r0], -r7
    2edc:	008f115c 	addeq	r1, pc, ip, asr r1	; <UNPREDICTABLE>
    2ee0:	3b0e0000 	blcc	382ee8 <__kernel_size__+0x3819b4>
    2ee4:	06000008 	streq	r0, [r0], -r8
    2ee8:	008f115d 	addeq	r1, pc, sp, asr r1	; <UNPREDICTABLE>
    2eec:	0d0e0000 	stceq	0, cr0, [lr, #-0]
    2ef0:	06000002 	streq	r0, [r0], -r2
    2ef4:	008f115f 	addeq	r1, pc, pc, asr r1	; <UNPREDICTABLE>
    2ef8:	e10e0000 	mrs	r0, (UNDEF: 14)
    2efc:	06000000 	streq	r0, [r0], -r0
    2f00:	008f1160 	addeq	r1, pc, r0, ror #2
    2f04:	aa0e0000 	bge	382f0c <__kernel_size__+0x3819d8>
    2f08:	06000001 	streq	r0, [r0], -r1
    2f0c:	008f1162 	addeq	r1, pc, r2, ror #2
    2f10:	d40e0000 	strle	r0, [lr], #-0
    2f14:	06000004 	streq	r0, [r0], -r4
    2f18:	008f1163 	addeq	r1, pc, r3, ror #2
    2f1c:	f50e0000 			; <UNDEFINED> instruction: 0xf50e0000
    2f20:	06000000 	streq	r0, [r0], -r0
    2f24:	008f1165 	addeq	r1, pc, r5, ror #2
    2f28:	e90e0000 	stmdb	lr, {}	; <UNPREDICTABLE>
    2f2c:	06000004 	streq	r0, [r0], -r4
    2f30:	008f1166 	addeq	r1, pc, r6, ror #2
    2f34:	790e0000 	stmdbvc	lr, {}	; <UNPREDICTABLE>
    2f38:	06000007 	streq	r0, [r0], -r7
    2f3c:	008f1168 	addeq	r1, pc, r8, ror #2
    2f40:	db0e0000 	blle	382f48 <__kernel_size__+0x381a14>
    2f44:	06000005 	streq	r0, [r0], -r5
    2f48:	008f1169 	addeq	r1, pc, r9, ror #2
    2f4c:	820e0000 	andhi	r0, lr, #0
    2f50:	06000004 	streq	r0, [r0], -r4
    2f54:	008f116b 	addeq	r1, pc, fp, ror #2
    2f58:	620e0000 	andvs	r0, lr, #0
    2f5c:	06000008 	streq	r0, [r0], -r8
    2f60:	008f116c 	addeq	r1, pc, ip, ror #2
    2f64:	860e0000 	strhi	r0, [lr], -r0
    2f68:	06000001 	streq	r0, [r0], -r1
    2f6c:	008f116e 	addeq	r1, pc, lr, ror #2
    2f70:	000e0000 	andeq	r0, lr, r0
    2f74:	06000005 	streq	r0, [r0], -r5
    2f78:	008f116f 	addeq	r1, pc, pc, ror #2
    2f7c:	150e0000 	strne	r0, [lr, #-0]
    2f80:	0600000a 	streq	r0, [r0], -sl
    2f84:	008f1171 	addeq	r1, pc, r1, ror r1	; <UNPREDICTABLE>
    2f88:	110e0000 	mrsne	r0, (UNDEF: 14)
    2f8c:	06000006 	streq	r0, [r0], -r6
    2f90:	008f1172 	addeq	r1, pc, r2, ror r1	; <UNPREDICTABLE>
    2f94:	bc0e0000 	stclt	0, cr0, [lr], {-0}
    2f98:	06000009 	streq	r0, [r0], -r9
    2f9c:	008f1174 	addeq	r1, pc, r4, ror r1	; <UNPREDICTABLE>
    2fa0:	060e0000 	streq	r0, [lr], -r0
    2fa4:	06000009 	streq	r0, [r0], -r9
    2fa8:	008f1175 	addeq	r1, pc, r5, ror r1	; <UNPREDICTABLE>
    2fac:	e50e0000 	str	r0, [lr, #-0]
    2fb0:	06000001 	streq	r0, [r0], -r1
    2fb4:	008f1177 	addeq	r1, pc, r7, ror r1	; <UNPREDICTABLE>
    2fb8:	150e0000 	strne	r0, [lr, #-0]
    2fbc:	06000007 	streq	r0, [r0], -r7
    2fc0:	008f1178 	addeq	r1, pc, r8, ror r1	; <UNPREDICTABLE>
    2fc4:	fe0e0000 	cdp2	0, 0, cr0, cr14, cr0, {0}
    2fc8:	06000003 	streq	r0, [r0], -r3
    2fcc:	008f117a 	addeq	r1, pc, sl, ror r1	; <UNPREDICTABLE>
    2fd0:	e90e0000 	stmdb	lr, {}	; <UNPREDICTABLE>
    2fd4:	06000005 	streq	r0, [r0], -r5
    2fd8:	008f117b 	addeq	r1, pc, fp, ror r1	; <UNPREDICTABLE>
    2fdc:	270e0000 	strcs	r0, [lr, -r0]
    2fe0:	06000004 	streq	r0, [r0], -r4
    2fe4:	008f117d 	addeq	r1, pc, sp, ror r1	; <UNPREDICTABLE>
    2fe8:	cb0e0000 	blgt	382ff0 <__kernel_size__+0x381abc>
    2fec:	06000000 	streq	r0, [r0], -r0
    2ff0:	008f117e 	addeq	r1, pc, lr, ror r1	; <UNPREDICTABLE>
    2ff4:	3f0e0000 	svccc	0x000e0000
    2ff8:	0600000a 	streq	r0, [r0], -sl
    2ffc:	008f1180 	addeq	r1, pc, r0, lsl #3
    3000:	1e0e0000 	cdpne	0, 0, cr0, cr14, cr0, {0}
    3004:	06000002 	streq	r0, [r0], -r2
    3008:	008f1181 	addeq	r1, pc, r1, lsl #3
    300c:	6b0e0000 	blvs	383014 <__kernel_size__+0x381ae0>
    3010:	06000000 	streq	r0, [r0], -r0
    3014:	008f1187 	addeq	r1, pc, r7, lsl #3
    3018:	420e0000 	andmi	r0, lr, #0
    301c:	06000004 	streq	r0, [r0], -r4
    3020:	008f118a 	addeq	r1, pc, sl, lsl #3
    3024:	a60e0000 	strge	r0, [lr], -r0
    3028:	06000005 	streq	r0, [r0], -r5
    302c:	008f118d 	addeq	r1, pc, sp, lsl #3
    3030:	b60e0000 	strlt	r0, [lr], -r0
    3034:	06000005 	streq	r0, [r0], -r5
    3038:	008f1191 	umulleq	r1, pc, r1, r1	; <UNPREDICTABLE>
    303c:	890e0000 	stmdbhi	lr, {}	; <UNPREDICTABLE>
    3040:	06000000 	streq	r0, [r0], -r0
    3044:	008f1192 	umulleq	r1, pc, r2, r1	; <UNPREDICTABLE>
    3048:	830e0000 	movwhi	r0, #57344	; 0xe000
    304c:	06000003 	streq	r0, [r0], -r3
    3050:	008f1193 	umulleq	r1, pc, r3, r1	; <UNPREDICTABLE>
    3054:	c70e0000 	strgt	r0, [lr, -r0]
    3058:	06000005 	streq	r0, [r0], -r5
    305c:	008f1194 	umulleq	r1, pc, r4, r1	; <UNPREDICTABLE>
    3060:	e80e0000 	stmda	lr, {}	; <UNPREDICTABLE>
    3064:	06000009 	streq	r0, [r0], -r9
    3068:	008f1196 	umulleq	r1, pc, r6, r1	; <UNPREDICTABLE>
    306c:	550e0000 	strpl	r0, [lr, #-0]
    3070:	06000004 	streq	r0, [r0], -r4
    3074:	008f1198 	umulleq	r1, pc, r8, r1	; <UNPREDICTABLE>
    3078:	350e0000 	strcc	r0, [lr, #-0]
    307c:	06000005 	streq	r0, [r0], -r5
    3080:	008f1199 	umulleq	r1, pc, r9, r1	; <UNPREDICTABLE>
    3084:	630e0000 	movwvs	r0, #57344	; 0xe000
    3088:	06000007 	streq	r0, [r0], -r7
    308c:	008f119a 	umulleq	r1, pc, sl, r1	; <UNPREDICTABLE>
    3090:	e10e0000 	mrs	r0, (UNDEF: 14)
    3094:	06000008 	streq	r0, [r0], -r8
    3098:	008f119b 	umulleq	r1, pc, fp, r1	; <UNPREDICTABLE>
    309c:	f70e0000 			; <UNDEFINED> instruction: 0xf70e0000
    30a0:	06000001 	streq	r0, [r0], -r1
    30a4:	008f119c 	umulleq	r1, pc, ip, r1	; <UNPREDICTABLE>
    30a8:	a50e0000 	strge	r0, [lr, #-0]
    30ac:	06000008 	streq	r0, [r0], -r8
    30b0:	008f11a1 	addeq	r1, pc, r1, lsr #3
    30b4:	620e0000 	andvs	r0, lr, #0
    30b8:	06000002 	streq	r0, [r0], -r2
    30bc:	008f11a3 	addeq	r1, pc, r3, lsr #3
    30c0:	980e0000 	stmdals	lr, {}	; <UNPREDICTABLE>
    30c4:	06000001 	streq	r0, [r0], -r1
    30c8:	008f11a4 	addeq	r1, pc, r4, lsr #3
    30cc:	280e0000 	stmdacs	lr, {}	; <UNPREDICTABLE>
    30d0:	06000008 	streq	r0, [r0], -r8
    30d4:	008f11a5 	addeq	r1, pc, r5, lsr #3
    30d8:	c40e0000 	strgt	r0, [lr], #-0
    30dc:	06000007 	streq	r0, [r0], -r7
    30e0:	008f11a6 	addeq	r1, pc, r6, lsr #3
    30e4:	fb0e0000 	blx	3830ee <__kernel_size__+0x381bba>
    30e8:	06000002 	streq	r0, [r0], -r2
    30ec:	008f11a8 	addeq	r1, pc, r8, lsr #3
    30f0:	b90e0000 	stmdblt	lr, {}	; <UNPREDICTABLE>
    30f4:	06000000 	streq	r0, [r0], -r0
    30f8:	008f11a9 	addeq	r1, pc, r9, lsr #3
    30fc:	ec0e0000 	stc	0, cr0, [lr], {-0}
    3100:	06000007 	streq	r0, [r0], -r7
    3104:	008f11aa 	addeq	r1, pc, sl, lsr #3
    3108:	3c0e0000 	stccc	0, cr0, [lr], {-0}
    310c:	06000007 	streq	r0, [r0], -r7
    3110:	008f11ab 	addeq	r1, pc, fp, lsr #3
    3114:	420e0000 	andmi	r0, lr, #0
    3118:	06000001 	streq	r0, [r0], -r1
    311c:	008f11ad 	addeq	r1, pc, sp, lsr #3
    3120:	d90e0000 	stmdble	lr, {}	; <UNPREDICTABLE>
    3124:	06000007 	streq	r0, [r0], -r7
    3128:	008f11ae 	addeq	r1, pc, lr, lsr #3
    312c:	100e0000 	andne	r0, lr, r0
    3130:	06000004 	streq	r0, [r0], -r4
    3134:	008f11b0 			; <UNDEFINED> instruction: 0x008f11b0
    3138:	d10e0000 	mrsle	r0, (UNDEF: 14)
    313c:	06000009 	streq	r0, [r0], -r9
    3140:	008f11b1 			; <UNDEFINED> instruction: 0x008f11b1
    3144:	ca0e0000 	bgt	38314c <__kernel_size__+0x381c18>
    3148:	06000008 	streq	r0, [r0], -r8
    314c:	008f11b2 			; <UNDEFINED> instruction: 0x008f11b2
    3150:	8e0e0000 	cdphi	0, 0, cr0, cr14, cr0, {0}
    3154:	06000008 	streq	r0, [r0], -r8
    3158:	008f11b3 			; <UNDEFINED> instruction: 0x008f11b3
    315c:	770e0000 	strvc	r0, [lr, -r0]
    3160:	06000008 	streq	r0, [r0], -r8
    3164:	008f11b4 			; <UNDEFINED> instruction: 0x008f11b4
    3168:	280e0000 	stmdacs	lr, {}	; <UNPREDICTABLE>
    316c:	0600000a 	streq	r0, [r0], -sl
    3170:	008f11b6 			; <UNDEFINED> instruction: 0x008f11b6
    3174:	6b0e0000 	blvs	38317c <__kernel_size__+0x381c48>
    3178:	06000004 	streq	r0, [r0], -r4
    317c:	008f11b7 			; <UNDEFINED> instruction: 0x008f11b7
    3180:	ce0e0000 	cdpgt	0, 0, cr0, cr14, cr0, {0}
    3184:	06000001 	streq	r0, [r0], -r1
    3188:	008f11b8 			; <UNDEFINED> instruction: 0x008f11b8
    318c:	1d0e0000 	stcne	0, cr0, [lr, #-0]
    3190:	06000000 	streq	r0, [r0], -r0
    3194:	008f11b9 			; <UNDEFINED> instruction: 0x008f11b9
    3198:	340e0000 	strcc	r0, [lr], #-0
    319c:	06000000 	streq	r0, [r0], -r0
    31a0:	008f11ba 			; <UNDEFINED> instruction: 0x008f11ba
    31a4:	3a0e0000 	bcc	3831ac <__kernel_size__+0x381c78>
    31a8:	06000003 	streq	r0, [r0], -r3
    31ac:	008f11bc 			; <UNDEFINED> instruction: 0x008f11bc
    31b0:	fa0e0000 	blx	3831b8 <__kernel_size__+0x381c84>
    31b4:	06000006 	streq	r0, [r0], -r6
    31b8:	008f11bd 			; <UNDEFINED> instruction: 0x008f11bd
    31bc:	c40e0000 	strgt	r0, [lr], #-0
    31c0:	06000004 	streq	r0, [r0], -r4
    31c4:	008f11c2 	addeq	r1, pc, r2, asr #3
    31c8:	100e0000 	andne	r0, lr, r0
    31cc:	06000008 	streq	r0, [r0], -r8
    31d0:	008f11c3 	addeq	r1, pc, r3, asr #3
    31d4:	e60e0000 	str	r0, [lr], -r0
    31d8:	06000003 	streq	r0, [r0], -r3
    31dc:	008f11c4 	addeq	r1, pc, r4, asr #3
    31e0:	540f0000 	strpl	r0, [pc], #-0	; 31e8 <__kernel_size__+0x1cb4>
    31e4:	20004243 	andcs	r4, r0, r3, asr #4
    31e8:	80080707 	andhi	r0, r8, r7, lsl #14
    31ec:	06000008 	streq	r0, [r0], -r8
    31f0:	0000120f 	andeq	r1, r0, pc, lsl #4
    31f4:	25090907 	strcs	r0, [r9, #-2311]	; 0xfffff6f9
    31f8:	00000000 	andeq	r0, r0, r0
    31fc:	00444907 	subeq	r4, r4, r7, lsl #18
    3200:	25090a07 	strcs	r0, [r9, #-2567]	; 0xfffff5f9
    3204:	04000000 	streq	r0, [r0], #-0
    3208:	00435007 	subeq	r5, r3, r7
    320c:	8f0e0b07 	svchi	0x000e0b07
    3210:	08000000 	stmdaeq	r0, {}	; <UNPREDICTABLE>
    3214:	0012c706 	andseq	ip, r2, r6, lsl #14
    3218:	090c0700 	stmdbeq	ip, {r8, r9, sl}
    321c:	00000025 	andeq	r0, r0, r5, lsr #32
    3220:	12e9060c 	rscne	r0, r9, #12, 12	; 0xc00000
    3224:	0d070000 	stceq	0, cr0, [r7, #-0]
    3228:	00002509 	andeq	r2, r0, r9, lsl #10
    322c:	de061000 	cdple	0, 0, cr1, cr6, cr0, {0}
    3230:	07000012 	smladeq	r0, r2, r0, r0
    3234:	0025090e 	eoreq	r0, r5, lr, lsl #18
    3238:	06140000 	ldreq	r0, [r4], -r0
    323c:	00001231 	andeq	r1, r0, r1, lsr r2
    3240:	25090f07 	strcs	r0, [r9, #-3847]	; 0xfffff0f9
    3244:	18000000 	stmdane	r0, {}	; <UNPREDICTABLE>
    3248:	000b7906 	andeq	r7, fp, r6, lsl #18
    324c:	0e100700 	cdpeq	7, 1, cr0, cr0, cr0, {0}
    3250:	0000008f 	andeq	r0, r0, pc, lsl #1
    3254:	0f0e001c 	svceq	0x000e001c
    3258:	07000012 	smladeq	r0, r2, r0, r0
    325c:	00250c13 	eoreq	r0, r5, r3, lsl ip
    3260:	3c0e0000 	stccc	0, cr0, [lr], {-0}
    3264:	07000012 	smladeq	r0, r2, r0, r0
    3268:	00251313 	eoreq	r1, r5, r3, lsl r3
    326c:	d20e0000 	andle	r0, lr, #0
    3270:	07000012 	smladeq	r0, r2, r0, r0
    3274:	00252113 	eoreq	r2, r5, r3, lsl r1
    3278:	0c0b0000 	stceq	0, cr0, [fp], {-0}
    327c:	b4000008 	strlt	r0, [r0], #-8
    3280:	0c000008 	stceq	0, cr0, [r0], {8}
    3284:	0000002c 	andeq	r0, r0, ip, lsr #32
    3288:	260e0002 	strcs	r0, [lr], -r2
    328c:	07000012 	smladeq	r0, r2, r0, r0
    3290:	08a41314 	stmiaeq	r4!, {r2, r4, r8, r9, ip}
    3294:	650e0000 	strvs	r0, [lr, #-0]
    3298:	07000012 	smladeq	r0, r2, r0, r0
    329c:	008f1118 	addeq	r1, pc, r8, lsl r1	; <UNPREDICTABLE>
    32a0:	f30e0000 	vhadd.u8	d0, d14, d0
    32a4:	07000011 	smladeq	r0, r1, r0, r0
    32a8:	008f3118 	addeq	r3, pc, r8, lsl r1	; <UNPREDICTABLE>
    32ac:	840e0000 	strhi	r0, [lr], #-0
    32b0:	07000012 	smladeq	r0, r2, r0, r0
    32b4:	008f4e18 	addeq	r4, pc, r8, lsl lr	; <UNPREDICTABLE>
    32b8:	9c0e0000 	stcls	0, cr0, [lr], {-0}
    32bc:	07000011 	smladeq	r0, r1, r0, r0
    32c0:	008f1119 	addeq	r1, pc, r9, lsl r1	; <UNPREDICTABLE>
    32c4:	2f0e0000 	svccs	0x000e0000
    32c8:	07000013 	smladeq	r0, r3, r0, r0
    32cc:	008f3119 	addeq	r3, pc, r9, lsl r1	; <UNPREDICTABLE>
    32d0:	d70e0000 	strle	r0, [lr, -r0]
    32d4:	07000011 	smladeq	r0, r1, r0, r0
    32d8:	008f4e19 	addeq	r4, pc, r9, lsl lr	; <UNPREDICTABLE>
    32dc:	7d0e0000 	stcvc	0, cr0, [lr, #-0]
    32e0:	07000011 	smladeq	r0, r1, r0, r0
    32e4:	008f111b 	addeq	r1, pc, fp, lsl r1	; <UNPREDICTABLE>
    32e8:	130e0000 	movwne	r0, #57344	; 0xe000
    32ec:	07000013 	smladeq	r0, r3, r0, r0
    32f0:	008f311b 	addeq	r3, pc, fp, lsl r1	; <UNPREDICTABLE>
    32f4:	bb0e0000 	bllt	3832fc <__kernel_size__+0x381dc8>
    32f8:	07000011 	smladeq	r0, r1, r0, r0
    32fc:	008f4e1b 	addeq	r4, pc, fp, lsl lr	; <UNPREDICTABLE>
    3300:	f40e0000 	vst4.8	{d0-d3}, [lr], r0
    3304:	07000012 	smladeq	r0, r2, r0, r0
    3308:	008f111c 	addeq	r1, pc, ip, lsl r1	; <UNPREDICTABLE>
    330c:	a00e0000 	andge	r0, lr, r0
    3310:	07000012 	smladeq	r0, r2, r0, r0
    3314:	008f311c 	addeq	r3, pc, ip, lsl r1	; <UNPREDICTABLE>
    3318:	490e0000 	stmdbmi	lr, {}	; <UNPREDICTABLE>
    331c:	07000012 	smladeq	r0, r2, r0, r0
    3320:	008f4e1c 	addeq	r4, pc, ip, lsl lr	; <UNPREDICTABLE>
    3324:	5e100000 	cdppl	0, 1, cr0, cr0, cr0, {0}
    3328:	40000013 	andmi	r0, r0, r3, lsl r0
    332c:	90100701 	andsls	r0, r0, r1, lsl #14
    3330:	07000009 	streq	r0, [r0, -r9]
    3334:	01005053 	qaddeq	r5, r3, r0
    3338:	008f0e09 	addeq	r0, pc, r9, lsl #28
    333c:	06000000 	streq	r0, [r0], -r0
    3340:	00001370 	andeq	r1, r0, r0, ror r3
    3344:	8f120901 	svchi	0x00120901
    3348:	04000000 	streq	r0, [r0], #-0
    334c:	52504707 	subspl	r4, r0, #1835008	; 0x1c0000
    3350:	18090100 	stmdane	r9, {r8}
    3354:	00000990 	muleq	r0, r0, r9
    3358:	524c0708 	subpl	r0, ip, #8, 14	; 0x200000
    335c:	21090100 	mrscs	r0, (UNDEF: 25)
    3360:	0000008f 	andeq	r0, r0, pc, lsl #1
    3364:	8f0b003c 	svchi	0x000b003c
    3368:	a0000000 	andge	r0, r0, r0
    336c:	0c000009 	stceq	0, cr0, [r0], {9}
    3370:	0000002c 	andeq	r0, r0, ip, lsr #32
    3374:	5e04000c 	cdppl	0, 0, cr0, cr4, cr12, {0}
    3378:	01000013 	tsteq	r0, r3, lsl r0
    337c:	0950020a 	ldmdbeq	r0, {r1, r3, r9}^
    3380:	4b110000 	blmi	443388 <__kernel_size__+0x441e54>
    3384:	01000013 	tsteq	r0, r3, lsl r0
    3388:	008f330e 	addeq	r3, pc, lr, lsl #6
    338c:	10080000 	andne	r0, r8, r0
    3390:	01187003 	tsteq	r8, r3
    3394:	9c010000 	stcls	0, cr0, [r1], {-0}
    3398:	00000a02 	andeq	r0, r0, r2, lsl #20
    339c:	00136812 	andseq	r6, r3, r2, lsl r8
    33a0:	510e0100 	mrspl	r0, (UNDEF: 30)
    33a4:	00000a02 	andeq	r0, r0, r2, lsl #20
    33a8:	13649102 	cmnne	r4, #-2147483648	; 0x80000000
    33ac:	00000fb2 			; <UNDEFINED> instruction: 0x00000fb2
    33b0:	0e141001 	cdpeq	0, 1, cr1, cr4, cr1, {0}
    33b4:	0200000a 	andeq	r0, r0, #10
    33b8:	ad137491 	cfldrsge	mvf7, [r3, #-580]	; 0xfffffdbc
    33bc:	01000010 	tsteq	r0, r0, lsl r0
    33c0:	0a191511 	beq	64880c <__kernel_size__+0x6472d8>
    33c4:	91020000 	mrsls	r0, (UNDEF: 2)
    33c8:	64691470 	strbtvs	r1, [r9], #-1136	; 0xfffffb90
    33cc:	0e130100 	mufeqs	f0, f3, f0
    33d0:	0000008f 	andeq	r0, r0, pc, lsl #1
    33d4:	006c9102 	rsbeq	r9, ip, r2, lsl #2
    33d8:	09a00415 	stmibeq	r0!, {r0, r2, r4, sl}
    33dc:	04150000 	ldreq	r0, [r5], #-0
    33e0:	00000105 	andeq	r0, r0, r5, lsl #2
    33e4:	000a0816 	andeq	r0, sl, r6, lsl r8
    33e8:	78041500 	stmdavc	r4, {r8, sl, ip}
    33ec:	16000002 	strne	r0, [r0], -r2
    33f0:	00000a13 	andeq	r0, r0, r3, lsl sl
    33f4:	00094600 	andeq	r4, r9, r0, lsl #12
    33f8:	13000400 	movwne	r0, #1024	; 0x400
    33fc:	04000008 	streq	r0, [r0], #-8
    3400:	00028701 	andeq	r8, r2, r1, lsl #14
    3404:	13b10c00 			; <UNDEFINED> instruction: 0x13b10c00
    3408:	095f0000 	ldmdbeq	pc, {}^	; <UNPREDICTABLE>
    340c:	01280000 			; <UNDEFINED> instruction: 0x01280000
    3410:	00000000 	andeq	r0, r0, r0
    3414:	0c580000 	mraeq	r0, r8, acc0
    3418:	04020000 	streq	r0, [r2], #-0
    341c:	746e6905 	strbtvc	r6, [lr], #-2309	; 0xfffff6fb
    3420:	07040300 	streq	r0, [r4, -r0, lsl #6]
    3424:	00000599 	muleq	r0, r9, r5
    3428:	29060103 	stmdbcs	r6, {r0, r1, r8}
    342c:	03000005 	movweq	r0, #5
    3430:	05270801 	streq	r0, [r7, #-2049]!	; 0xfffff7ff
    3434:	02030000 	andeq	r0, r3, #0
    3438:	0000a705 	andeq	sl, r0, r5, lsl #14
    343c:	07020300 	streq	r0, [r2, -r0, lsl #6]
    3440:	000005fe 	strdeq	r0, [r0], -lr
    3444:	9a050403 	bls	144458 <__kernel_size__+0x142f24>
    3448:	04000003 	streq	r0, [r0], #-3
    344c:	00000164 	andeq	r0, r0, r4, ror #2
    3450:	62194f02 	andsvs	r4, r9, #2, 30
    3454:	03000000 	movweq	r0, #0
    3458:	05940704 	ldreq	r0, [r4, #1796]	; 0x704
    345c:	08030000 	stmdaeq	r3, {}	; <UNPREDICTABLE>
    3460:	00039505 	andeq	r9, r3, r5, lsl #10
    3464:	07080300 	streq	r0, [r8, -r0, lsl #6]
    3468:	0000058f 	andeq	r0, r0, pc, lsl #11
    346c:	00016604 	andeq	r6, r1, r4, lsl #12
    3470:	14300300 	ldrtne	r0, [r0], #-768	; 0xfffffd00
    3474:	00000056 	andeq	r0, r0, r6, asr r0
    3478:	1c040405 	cfstrsne	mvf0, [r4], {5}
    347c:	01030501 	tsteq	r3, r1, lsl #10
    3480:	0c060000 	stceq	0, cr0, [r6], {-0}
    3484:	0400000b 	streq	r0, [r0], #-11
    3488:	7712011d 			; <UNDEFINED> instruction: 0x7712011d
    348c:	04000000 	streq	r0, [r0], #-0
    3490:	07001f01 	streq	r1, [r0, -r1, lsl #30]
    3494:	1e040053 	mcrne	0, 0, r0, cr4, cr3, {2}
    3498:	00771201 	rsbseq	r1, r7, r1, lsl #4
    349c:	01040000 	mrseq	r0, (UNDEF: 4)
    34a0:	4907001e 	stmdbmi	r7, {r1, r2, r3, r4}
    34a4:	0400504d 	streq	r5, [r0], #-77	; 0xffffffb3
    34a8:	7712011f 			; <UNDEFINED> instruction: 0x7712011f
    34ac:	04000000 	streq	r0, [r0], #-0
    34b0:	07001d01 	streq	r1, [r0, -r1, lsl #26]
    34b4:	004e4752 	subeq	r4, lr, r2, asr r7
    34b8:	12012004 	andne	r2, r1, #4
    34bc:	00000077 	andeq	r0, r0, r7, ror r0
    34c0:	001b0204 	andseq	r0, fp, r4, lsl #4
    34c4:	534f4e07 	movtpl	r4, #65031	; 0xfe07
    34c8:	01210400 			; <UNDEFINED> instruction: 0x01210400
    34cc:	00007712 	andeq	r7, r0, r2, lsl r7
    34d0:	1a010400 	bne	444d8 <__kernel_size__+0x42fa4>
    34d4:	0b130600 	bleq	4c4cdc <__kernel_size__+0x4c37a8>
    34d8:	22040000 	andcs	r0, r4, #0
    34dc:	00771201 	rsbseq	r1, r7, r1, lsl #4
    34e0:	01040000 	mrseq	r0, (UNDEF: 4)
    34e4:	8a060019 	bhi	183550 <__kernel_size__+0x18201c>
    34e8:	0400000c 	streq	r0, [r0], #-12
    34ec:	77120123 	ldrvc	r0, [r2, -r3, lsr #2]
    34f0:	04000000 	streq	r0, [r0], #-0
    34f4:	00000019 	andeq	r0, r0, r9, lsl r0
    34f8:	1a040408 	bne	104520 <__kernel_size__+0x102fec>
    34fc:	01200901 			; <UNDEFINED> instruction: 0x01200901
    3500:	d7090000 	strle	r0, [r9, -r0]
    3504:	04000013 	streq	r0, [r0], #-19	; 0xffffffed
    3508:	770e011b 	smladvc	lr, fp, r1, r0
    350c:	0a000000 	beq	3514 <__kernel_size__+0x1fe0>
    3510:	00000083 	andeq	r0, r0, r3, lsl #1
    3514:	0b790b00 	bleq	1e4611c <__kernel_size__+0x1e44be8>
    3518:	25040000 	strcs	r0, [r4, #-0]
    351c:	01030301 	tsteq	r3, r1, lsl #6
    3520:	ea0c0000 	b	303528 <__kernel_size__+0x301ff4>
    3524:	05000006 	streq	r0, [r0, #-6]
    3528:	00771108 	rsbseq	r1, r7, r8, lsl #2
    352c:	090c0000 	stmdbeq	ip, {}	; <UNPREDICTABLE>
    3530:	05000001 	streq	r0, [r0, #-1]
    3534:	00771109 	rsbseq	r1, r7, r9, lsl #2
    3538:	2f0c0000 	svccs	0x000c0000
    353c:	05000001 	streq	r0, [r0, #-1]
    3540:	0077110a 	rsbseq	r1, r7, sl, lsl #2
    3544:	9d0c0000 	stcls	0, cr0, [ip, #-0]
    3548:	05000007 	streq	r0, [r0, #-7]
    354c:	0077110b 	rsbseq	r1, r7, fp, lsl #2
    3550:	550c0000 	strpl	r0, [ip, #-0]
    3554:	05000001 	streq	r0, [r0, #-1]
    3558:	0077110d 	rsbseq	r1, r7, sp, lsl #2
    355c:	c80c0000 	stmdagt	ip, {}	; <UNPREDICTABLE>
    3560:	05000006 	streq	r0, [r0, #-6]
    3564:	0077110e 	rsbseq	r1, r7, lr, lsl #2
    3568:	d90c0000 	stmdble	ip, {}	; <UNPREDICTABLE>
    356c:	05000002 	streq	r0, [r0, #-2]
    3570:	0077110f 	rsbseq	r1, r7, pc, lsl #2
    3574:	760c0000 	strvc	r0, [ip], -r0
    3578:	05000006 	streq	r0, [r0, #-6]
    357c:	00771110 	rsbseq	r1, r7, r0, lsl r1
    3580:	f70c0000 			; <UNDEFINED> instruction: 0xf70c0000
    3584:	05000008 	streq	r0, [r0, #-8]
    3588:	00771111 	rsbseq	r1, r7, r1, lsl r1
    358c:	270c0000 	strcs	r0, [ip, -r0]
    3590:	05000006 	streq	r0, [r0, #-6]
    3594:	00771112 	rsbseq	r1, r7, r2, lsl r1
    3598:	360c0000 	strcc	r0, [ip], -r0
    359c:	05000002 	streq	r0, [r0, #-2]
    35a0:	00771114 	rsbseq	r1, r7, r4, lsl r1
    35a4:	150c0000 	strne	r0, [ip, #-0]
    35a8:	05000005 	streq	r0, [r0, #-5]
    35ac:	00771115 	rsbseq	r1, r7, r5, lsl r1
    35b0:	7d0c0000 	stcvc	0, cr0, [ip, #-0]
    35b4:	05000005 	streq	r0, [r0, #-5]
    35b8:	00771116 	rsbseq	r1, r7, r6, lsl r1
    35bc:	db0c0000 	blle	3035c4 <__kernel_size__+0x302090>
    35c0:	05000002 	streq	r0, [r0, #-2]
    35c4:	0077111b 	rsbseq	r1, r7, fp, lsl r1
    35c8:	4b0c0000 	blmi	3035d0 <__kernel_size__+0x30209c>
    35cc:	05000000 	streq	r0, [r0, #-0]
    35d0:	00771120 	rsbseq	r1, r7, r0, lsr #2
    35d4:	ac0c0000 	stcge	0, cr0, [ip], {-0}
    35d8:	05000004 	streq	r0, [r0, #-4]
    35dc:	00771122 	rsbseq	r1, r7, r2, lsr #2
    35e0:	6e0c0000 	cdpvs	0, 0, cr0, cr12, cr0, {0}
    35e4:	05000003 	streq	r0, [r0, #-3]
    35e8:	00771124 	rsbseq	r1, r7, r4, lsr #2
    35ec:	9c0c0000 	stcls	0, cr0, [ip], {-0}
    35f0:	05000006 	streq	r0, [r0, #-6]
    35f4:	00771127 	rsbseq	r1, r7, r7, lsr #2
    35f8:	240c0000 	strcs	r0, [ip], #-0
    35fc:	05000003 	streq	r0, [r0, #-3]
    3600:	00771128 	rsbseq	r1, r7, r8, lsr #2
    3604:	310c0000 	mrscc	r0, (UNDEF: 12)
    3608:	05000009 	streq	r0, [r0, #-9]
    360c:	00771129 	rsbseq	r1, r7, r9, lsr #2
    3610:	550c0000 	strpl	r0, [ip, #-0]
    3614:	05000003 	streq	r0, [r0, #-3]
    3618:	0077112a 	rsbseq	r1, r7, sl, lsr #2
    361c:	770c0000 	strvc	r0, [ip, -r0]
    3620:	05000000 	streq	r0, [r0, #-0]
    3624:	0077112c 	rsbseq	r1, r7, ip, lsr #2
    3628:	b40c0000 	strlt	r0, [ip], #-0
    362c:	05000008 	streq	r0, [r0, #-8]
    3630:	0077112e 	rsbseq	r1, r7, lr, lsr #2
    3634:	a60c0000 	strge	r0, [ip], -r0
    3638:	05000009 	streq	r0, [r0, #-9]
    363c:	0077112f 	rsbseq	r1, r7, pc, lsr #2
    3640:	d00c0000 	andle	r0, ip, r0
    3644:	05000003 	streq	r0, [r0, #-3]
    3648:	00771130 	rsbseq	r1, r7, r0, lsr r1
    364c:	a30c0000 	movwge	r0, #49152	; 0xc000
    3650:	05000003 	streq	r0, [r0, #-3]
    3654:	00771131 	rsbseq	r1, r7, r1, lsr r1
    3658:	b20c0000 	andlt	r0, ip, #0
    365c:	05000006 	streq	r0, [r0, #-6]
    3660:	00771132 	rsbseq	r1, r7, r2, lsr r1
    3664:	080c0000 	stmdaeq	ip, {}	; <UNPREDICTABLE>
    3668:	05000000 	streq	r0, [r0, #-0]
    366c:	00771136 	rsbseq	r1, r7, r6, lsr r1
    3670:	940c0000 	strls	r0, [ip], #-0
    3674:	05000004 	streq	r0, [r0, #-4]
    3678:	00771137 	rsbseq	r1, r7, r7, lsr r1
    367c:	ac0c0000 	stcge	0, cr0, [ip], {-0}
    3680:	05000007 	streq	r0, [r0, #-7]
    3684:	00771138 	rsbseq	r1, r7, r8, lsr r1
    3688:	5c0c0000 	stcpl	0, cr0, [ip], {-0}
    368c:	05000000 	streq	r0, [r0, #-0]
    3690:	0077113c 	rsbseq	r1, r7, ip, lsr r1
    3694:	2a0c0000 	bcs	30369c <__kernel_size__+0x302168>
    3698:	05000007 	streq	r0, [r0, #-7]
    369c:	0077113e 	rsbseq	r1, r7, lr, lsr r1
    36a0:	360c0000 	strcc	r0, [ip], -r0
    36a4:	05000006 	streq	r0, [r0, #-6]
    36a8:	0077113f 	rsbseq	r1, r7, pc, lsr r1
    36ac:	740c0000 	strvc	r0, [ip], #-0
    36b0:	05000002 	streq	r0, [r0, #-2]
    36b4:	00771140 	rsbseq	r1, r7, r0, asr #2
    36b8:	1a0c0000 	bne	3036c0 <__kernel_size__+0x30218c>
    36bc:	05000001 	streq	r0, [r0, #-1]
    36c0:	00771141 	rsbseq	r1, r7, r1, asr #2
    36c4:	510c0000 	mrspl	r0, (UNDEF: 12)
    36c8:	05000007 	streq	r0, [r0, #-7]
    36cc:	00771143 	rsbseq	r1, r7, r3, asr #2
    36d0:	bc0c0000 	stclt	0, cr0, [ip], {-0}
    36d4:	05000001 	streq	r0, [r0, #-1]
    36d8:	00771144 	rsbseq	r1, r7, r4, asr #2
    36dc:	1e0c0000 	cdpne	0, 0, cr0, cr12, cr0, {0}
    36e0:	05000009 	streq	r0, [r0, #-9]
    36e4:	00771145 	rsbseq	r1, r7, r5, asr #2
    36e8:	880c0000 	stmdahi	ip, {}	; <UNPREDICTABLE>
    36ec:	05000007 	streq	r0, [r0, #-7]
    36f0:	00771146 	rsbseq	r1, r7, r6, asr #2
    36f4:	e80c0000 	stmda	ip, {}	; <UNPREDICTABLE>
    36f8:	05000002 	streq	r0, [r0, #-2]
    36fc:	00771148 	rsbseq	r1, r7, r8, asr #2
    3700:	d70c0000 	strle	r0, [ip, -r0]
    3704:	05000006 	streq	r0, [r0, #-6]
    3708:	00771149 	rsbseq	r1, r7, r9, asr #2
    370c:	4b0c0000 	blmi	303714 <__kernel_size__+0x3021e0>
    3710:	05000008 	streq	r0, [r0, #-8]
    3714:	0077114b 	rsbseq	r1, r7, fp, asr #2
    3718:	480c0000 	stmdami	ip, {}	; <UNPREDICTABLE>
    371c:	05000009 	streq	r0, [r0, #-9]
    3720:	0077114c 	rsbseq	r1, r7, ip, asr #2
    3724:	b90c0000 	stmdblt	ip, {}	; <UNPREDICTABLE>
    3728:	05000003 	streq	r0, [r0, #-3]
    372c:	0077114d 	rsbseq	r1, r7, sp, asr #2
    3730:	0d0c0000 	stceq	0, cr0, [ip, #-0]
    3734:	05000003 	streq	r0, [r0, #-3]
    3738:	0077114e 	rsbseq	r1, r7, lr, asr #2
    373c:	5f0c0000 	svcpl	0x000c0000
    3740:	05000006 	streq	r0, [r0, #-6]
    3744:	0077114f 	rsbseq	r1, r7, pc, asr #2
    3748:	480c0000 	stmdami	ip, {}	; <UNPREDICTABLE>
    374c:	05000006 	streq	r0, [r0, #-6]
    3750:	00771151 	rsbseq	r1, r7, r1, asr r1
    3754:	4b0c0000 	blmi	30375c <__kernel_size__+0x302228>
    3758:	05000002 	streq	r0, [r0, #-2]
    375c:	00771152 	rsbseq	r1, r7, r2, asr r1
    3760:	850c0000 	strhi	r0, [ip, #-0]
    3764:	05000006 	streq	r0, [r0, #-6]
    3768:	00771153 	rsbseq	r1, r7, r3, asr r1
    376c:	6f0c0000 	svcvs	0x000c0000
    3770:	05000001 	streq	r0, [r0, #-1]
    3774:	00771154 	rsbseq	r1, r7, r4, asr r1
    3778:	4b0c0000 	blmi	303780 <__kernel_size__+0x30224c>
    377c:	05000005 	streq	r0, [r0, #-5]
    3780:	00771155 	rsbseq	r1, r7, r5, asr r1
    3784:	620c0000 	andvs	r0, ip, #0
    3788:	05000005 	streq	r0, [r0, #-5]
    378c:	00771157 	rsbseq	r1, r7, r7, asr r1
    3790:	fa0c0000 	blx	303798 <__kernel_size__+0x302264>
    3794:	05000009 	streq	r0, [r0, #-9]
    3798:	00771158 	rsbseq	r1, r7, r8, asr r1
    379c:	ff0c0000 			; <UNDEFINED> instruction: 0xff0c0000
    37a0:	05000007 	streq	r0, [r0, #-7]
    37a4:	0077115c 	rsbseq	r1, r7, ip, asr r1
    37a8:	3b0c0000 	blcc	3037b0 <__kernel_size__+0x30227c>
    37ac:	05000008 	streq	r0, [r0, #-8]
    37b0:	0077115d 	rsbseq	r1, r7, sp, asr r1
    37b4:	0d0c0000 	stceq	0, cr0, [ip, #-0]
    37b8:	05000002 	streq	r0, [r0, #-2]
    37bc:	0077115f 	rsbseq	r1, r7, pc, asr r1
    37c0:	e10c0000 	mrs	r0, (UNDEF: 12)
    37c4:	05000000 	streq	r0, [r0, #-0]
    37c8:	00771160 	rsbseq	r1, r7, r0, ror #2
    37cc:	aa0c0000 	bge	3037d4 <__kernel_size__+0x3022a0>
    37d0:	05000001 	streq	r0, [r0, #-1]
    37d4:	00771162 	rsbseq	r1, r7, r2, ror #2
    37d8:	d40c0000 	strle	r0, [ip], #-0
    37dc:	05000004 	streq	r0, [r0, #-4]
    37e0:	00771163 	rsbseq	r1, r7, r3, ror #2
    37e4:	f50c0000 			; <UNDEFINED> instruction: 0xf50c0000
    37e8:	05000000 	streq	r0, [r0, #-0]
    37ec:	00771165 	rsbseq	r1, r7, r5, ror #2
    37f0:	e90c0000 	stmdb	ip, {}	; <UNPREDICTABLE>
    37f4:	05000004 	streq	r0, [r0, #-4]
    37f8:	00771166 	rsbseq	r1, r7, r6, ror #2
    37fc:	790c0000 	stmdbvc	ip, {}	; <UNPREDICTABLE>
    3800:	05000007 	streq	r0, [r0, #-7]
    3804:	00771168 	rsbseq	r1, r7, r8, ror #2
    3808:	db0c0000 	blle	303810 <__kernel_size__+0x3022dc>
    380c:	05000005 	streq	r0, [r0, #-5]
    3810:	00771169 	rsbseq	r1, r7, r9, ror #2
    3814:	820c0000 	andhi	r0, ip, #0
    3818:	05000004 	streq	r0, [r0, #-4]
    381c:	0077116b 	rsbseq	r1, r7, fp, ror #2
    3820:	620c0000 	andvs	r0, ip, #0
    3824:	05000008 	streq	r0, [r0, #-8]
    3828:	0077116c 	rsbseq	r1, r7, ip, ror #2
    382c:	860c0000 	strhi	r0, [ip], -r0
    3830:	05000001 	streq	r0, [r0, #-1]
    3834:	0077116e 	rsbseq	r1, r7, lr, ror #2
    3838:	000c0000 	andeq	r0, ip, r0
    383c:	05000005 	streq	r0, [r0, #-5]
    3840:	0077116f 	rsbseq	r1, r7, pc, ror #2
    3844:	150c0000 	strne	r0, [ip, #-0]
    3848:	0500000a 	streq	r0, [r0, #-10]
    384c:	00771171 	rsbseq	r1, r7, r1, ror r1
    3850:	110c0000 	mrsne	r0, (UNDEF: 12)
    3854:	05000006 	streq	r0, [r0, #-6]
    3858:	00771172 	rsbseq	r1, r7, r2, ror r1
    385c:	bc0c0000 	stclt	0, cr0, [ip], {-0}
    3860:	05000009 	streq	r0, [r0, #-9]
    3864:	00771174 	rsbseq	r1, r7, r4, ror r1
    3868:	060c0000 	streq	r0, [ip], -r0
    386c:	05000009 	streq	r0, [r0, #-9]
    3870:	00771175 	rsbseq	r1, r7, r5, ror r1
    3874:	e50c0000 	str	r0, [ip, #-0]
    3878:	05000001 	streq	r0, [r0, #-1]
    387c:	00771177 	rsbseq	r1, r7, r7, ror r1
    3880:	150c0000 	strne	r0, [ip, #-0]
    3884:	05000007 	streq	r0, [r0, #-7]
    3888:	00771178 	rsbseq	r1, r7, r8, ror r1
    388c:	fe0c0000 	cdp2	0, 0, cr0, cr12, cr0, {0}
    3890:	05000003 	streq	r0, [r0, #-3]
    3894:	0077117a 	rsbseq	r1, r7, sl, ror r1
    3898:	e90c0000 	stmdb	ip, {}	; <UNPREDICTABLE>
    389c:	05000005 	streq	r0, [r0, #-5]
    38a0:	0077117b 	rsbseq	r1, r7, fp, ror r1
    38a4:	270c0000 	strcs	r0, [ip, -r0]
    38a8:	05000004 	streq	r0, [r0, #-4]
    38ac:	0077117d 	rsbseq	r1, r7, sp, ror r1
    38b0:	cb0c0000 	blgt	3038b8 <__kernel_size__+0x302384>
    38b4:	05000000 	streq	r0, [r0, #-0]
    38b8:	0077117e 	rsbseq	r1, r7, lr, ror r1
    38bc:	3f0c0000 	svccc	0x000c0000
    38c0:	0500000a 	streq	r0, [r0, #-10]
    38c4:	00771180 	rsbseq	r1, r7, r0, lsl #3
    38c8:	1e0c0000 	cdpne	0, 0, cr0, cr12, cr0, {0}
    38cc:	05000002 	streq	r0, [r0, #-2]
    38d0:	00771181 	rsbseq	r1, r7, r1, lsl #3
    38d4:	6b0c0000 	blvs	3038dc <__kernel_size__+0x3023a8>
    38d8:	05000000 	streq	r0, [r0, #-0]
    38dc:	00771187 	rsbseq	r1, r7, r7, lsl #3
    38e0:	420c0000 	andmi	r0, ip, #0
    38e4:	05000004 	streq	r0, [r0, #-4]
    38e8:	0077118a 	rsbseq	r1, r7, sl, lsl #3
    38ec:	a60c0000 	strge	r0, [ip], -r0
    38f0:	05000005 	streq	r0, [r0, #-5]
    38f4:	0077118d 	rsbseq	r1, r7, sp, lsl #3
    38f8:	b60c0000 	strlt	r0, [ip], -r0
    38fc:	05000005 	streq	r0, [r0, #-5]
    3900:	00771191 			; <UNDEFINED> instruction: 0x00771191
    3904:	890c0000 	stmdbhi	ip, {}	; <UNPREDICTABLE>
    3908:	05000000 	streq	r0, [r0, #-0]
    390c:	00771192 			; <UNDEFINED> instruction: 0x00771192
    3910:	830c0000 	movwhi	r0, #49152	; 0xc000
    3914:	05000003 	streq	r0, [r0, #-3]
    3918:	00771193 			; <UNDEFINED> instruction: 0x00771193
    391c:	c70c0000 	strgt	r0, [ip, -r0]
    3920:	05000005 	streq	r0, [r0, #-5]
    3924:	00771194 			; <UNDEFINED> instruction: 0x00771194
    3928:	e80c0000 	stmda	ip, {}	; <UNPREDICTABLE>
    392c:	05000009 	streq	r0, [r0, #-9]
    3930:	00771196 			; <UNDEFINED> instruction: 0x00771196
    3934:	550c0000 	strpl	r0, [ip, #-0]
    3938:	05000004 	streq	r0, [r0, #-4]
    393c:	00771198 			; <UNDEFINED> instruction: 0x00771198
    3940:	350c0000 	strcc	r0, [ip, #-0]
    3944:	05000005 	streq	r0, [r0, #-5]
    3948:	00771199 			; <UNDEFINED> instruction: 0x00771199
    394c:	630c0000 	movwvs	r0, #49152	; 0xc000
    3950:	05000007 	streq	r0, [r0, #-7]
    3954:	0077119a 			; <UNDEFINED> instruction: 0x0077119a
    3958:	e10c0000 	mrs	r0, (UNDEF: 12)
    395c:	05000008 	streq	r0, [r0, #-8]
    3960:	0077119b 			; <UNDEFINED> instruction: 0x0077119b
    3964:	f70c0000 			; <UNDEFINED> instruction: 0xf70c0000
    3968:	05000001 	streq	r0, [r0, #-1]
    396c:	0077119c 			; <UNDEFINED> instruction: 0x0077119c
    3970:	a50c0000 	strge	r0, [ip, #-0]
    3974:	05000008 	streq	r0, [r0, #-8]
    3978:	007711a1 	rsbseq	r1, r7, r1, lsr #3
    397c:	620c0000 	andvs	r0, ip, #0
    3980:	05000002 	streq	r0, [r0, #-2]
    3984:	007711a3 	rsbseq	r1, r7, r3, lsr #3
    3988:	980c0000 	stmdals	ip, {}	; <UNPREDICTABLE>
    398c:	05000001 	streq	r0, [r0, #-1]
    3990:	007711a4 	rsbseq	r1, r7, r4, lsr #3
    3994:	280c0000 	stmdacs	ip, {}	; <UNPREDICTABLE>
    3998:	05000008 	streq	r0, [r0, #-8]
    399c:	007711a5 	rsbseq	r1, r7, r5, lsr #3
    39a0:	c40c0000 	strgt	r0, [ip], #-0
    39a4:	05000007 	streq	r0, [r0, #-7]
    39a8:	007711a6 	rsbseq	r1, r7, r6, lsr #3
    39ac:	fb0c0000 	blx	3039b6 <__kernel_size__+0x302482>
    39b0:	05000002 	streq	r0, [r0, #-2]
    39b4:	007711a8 	rsbseq	r1, r7, r8, lsr #3
    39b8:	b90c0000 	stmdblt	ip, {}	; <UNPREDICTABLE>
    39bc:	05000000 	streq	r0, [r0, #-0]
    39c0:	007711a9 	rsbseq	r1, r7, r9, lsr #3
    39c4:	ec0c0000 	stc	0, cr0, [ip], {-0}
    39c8:	05000007 	streq	r0, [r0, #-7]
    39cc:	007711aa 	rsbseq	r1, r7, sl, lsr #3
    39d0:	3c0c0000 	stccc	0, cr0, [ip], {-0}
    39d4:	05000007 	streq	r0, [r0, #-7]
    39d8:	007711ab 	rsbseq	r1, r7, fp, lsr #3
    39dc:	420c0000 	andmi	r0, ip, #0
    39e0:	05000001 	streq	r0, [r0, #-1]
    39e4:	007711ad 	rsbseq	r1, r7, sp, lsr #3
    39e8:	d90c0000 	stmdble	ip, {}	; <UNPREDICTABLE>
    39ec:	05000007 	streq	r0, [r0, #-7]
    39f0:	007711ae 	rsbseq	r1, r7, lr, lsr #3
    39f4:	100c0000 	andne	r0, ip, r0
    39f8:	05000004 	streq	r0, [r0, #-4]
    39fc:	007711b0 	ldrhteq	r1, [r7], #-16
    3a00:	d10c0000 	mrsle	r0, (UNDEF: 12)
    3a04:	05000009 	streq	r0, [r0, #-9]
    3a08:	007711b1 	ldrhteq	r1, [r7], #-17	; 0xffffffef
    3a0c:	ca0c0000 	bgt	303a14 <__kernel_size__+0x3024e0>
    3a10:	05000008 	streq	r0, [r0, #-8]
    3a14:	007711b2 	ldrhteq	r1, [r7], #-18	; 0xffffffee
    3a18:	8e0c0000 	cdphi	0, 0, cr0, cr12, cr0, {0}
    3a1c:	05000008 	streq	r0, [r0, #-8]
    3a20:	007711b3 	ldrhteq	r1, [r7], #-19	; 0xffffffed
    3a24:	770c0000 	strvc	r0, [ip, -r0]
    3a28:	05000008 	streq	r0, [r0, #-8]
    3a2c:	007711b4 	ldrhteq	r1, [r7], #-20	; 0xffffffec
    3a30:	280c0000 	stmdacs	ip, {}	; <UNPREDICTABLE>
    3a34:	0500000a 	streq	r0, [r0, #-10]
    3a38:	007711b6 	ldrhteq	r1, [r7], #-22	; 0xffffffea
    3a3c:	6b0c0000 	blvs	303a44 <__kernel_size__+0x302510>
    3a40:	05000004 	streq	r0, [r0, #-4]
    3a44:	007711b7 	ldrhteq	r1, [r7], #-23	; 0xffffffe9
    3a48:	ce0c0000 	cdpgt	0, 0, cr0, cr12, cr0, {0}
    3a4c:	05000001 	streq	r0, [r0, #-1]
    3a50:	007711b8 	ldrhteq	r1, [r7], #-24	; 0xffffffe8
    3a54:	1d0c0000 	stcne	0, cr0, [ip, #-0]
    3a58:	05000000 	streq	r0, [r0, #-0]
    3a5c:	007711b9 	ldrhteq	r1, [r7], #-25	; 0xffffffe7
    3a60:	340c0000 	strcc	r0, [ip], #-0
    3a64:	05000000 	streq	r0, [r0, #-0]
    3a68:	007711ba 	ldrhteq	r1, [r7], #-26	; 0xffffffe6
    3a6c:	3a0c0000 	bcc	303a74 <__kernel_size__+0x302540>
    3a70:	05000003 	streq	r0, [r0, #-3]
    3a74:	007711bc 	ldrhteq	r1, [r7], #-28	; 0xffffffe4
    3a78:	fa0c0000 	blx	303a80 <__kernel_size__+0x30254c>
    3a7c:	05000006 	streq	r0, [r0, #-6]
    3a80:	007711bd 	ldrhteq	r1, [r7], #-29	; 0xffffffe3
    3a84:	c40c0000 	strgt	r0, [ip], #-0
    3a88:	05000004 	streq	r0, [r0, #-4]
    3a8c:	007711c2 	rsbseq	r1, r7, r2, asr #3
    3a90:	100c0000 	andne	r0, ip, r0
    3a94:	05000008 	streq	r0, [r0, #-8]
    3a98:	007711c3 	rsbseq	r1, r7, r3, asr #3
    3a9c:	e60c0000 	str	r0, [ip], -r0
    3aa0:	05000003 	streq	r0, [r0, #-3]
    3aa4:	007711c4 	rsbseq	r1, r7, r4, asr #3
    3aa8:	540d0000 	strpl	r0, [sp], #-0
    3aac:	20004243 	andcs	r4, r0, r3, asr #4
    3ab0:	29080706 	stmdbcs	r8, {r1, r2, r8, r9, sl}
    3ab4:	0e000007 	cdpeq	0, 0, cr0, cr0, cr7, {0}
    3ab8:	0000120f 	andeq	r1, r0, pc, lsl #4
    3abc:	25090906 	strcs	r0, [r9, #-2310]	; 0xfffff6fa
    3ac0:	00000000 	andeq	r0, r0, r0
    3ac4:	0044490f 	subeq	r4, r4, pc, lsl #18
    3ac8:	25090a06 	strcs	r0, [r9, #-2566]	; 0xfffff5fa
    3acc:	04000000 	streq	r0, [r0], #-0
    3ad0:	0043500f 	subeq	r5, r3, pc
    3ad4:	770e0b06 	strvc	r0, [lr, -r6, lsl #22]
    3ad8:	08000000 	stmdaeq	r0, {}	; <UNPREDICTABLE>
    3adc:	0012c70e 	andseq	ip, r2, lr, lsl #14
    3ae0:	090c0600 	stmdbeq	ip, {r9, sl}
    3ae4:	00000025 	andeq	r0, r0, r5, lsr #32
    3ae8:	12e90e0c 	rscne	r0, r9, #12, 28	; 0xc0
    3aec:	0d060000 	stceq	0, cr0, [r6, #-0]
    3af0:	00002509 	andeq	r2, r0, r9, lsl #10
    3af4:	de0e1000 	cdple	0, 0, cr1, cr14, cr0, {0}
    3af8:	06000012 			; <UNDEFINED> instruction: 0x06000012
    3afc:	0025090e 	eoreq	r0, r5, lr, lsl #18
    3b00:	0e140000 	cdpeq	0, 1, cr0, cr4, cr0, {0}
    3b04:	00001231 	andeq	r1, r0, r1, lsr r2
    3b08:	25090f06 	strcs	r0, [r9, #-3846]	; 0xfffff0fa
    3b0c:	18000000 	stmdane	r0, {}	; <UNPREDICTABLE>
    3b10:	000b790e 	andeq	r7, fp, lr, lsl #18
    3b14:	0e100600 	cfmsub32eq	mvax0, mvfx0, mvfx0, mvfx0
    3b18:	00000077 	andeq	r0, r0, r7, ror r0
    3b1c:	0f0c001c 	svceq	0x000c001c
    3b20:	06000012 			; <UNDEFINED> instruction: 0x06000012
    3b24:	00250c13 	eoreq	r0, r5, r3, lsl ip
    3b28:	3c0c0000 	stccc	0, cr0, [ip], {-0}
    3b2c:	06000012 			; <UNDEFINED> instruction: 0x06000012
    3b30:	00251313 	eoreq	r1, r5, r3, lsl r3
    3b34:	d20c0000 	andle	r0, ip, #0
    3b38:	06000012 			; <UNDEFINED> instruction: 0x06000012
    3b3c:	00252113 	eoreq	r2, r5, r3, lsl r1
    3b40:	b5100000 	ldrlt	r0, [r0, #-0]
    3b44:	5d000006 	stcpl	0, cr0, [r0, #-24]	; 0xffffffe8
    3b48:	11000007 	tstne	r0, r7
    3b4c:	0000002c 	andeq	r0, r0, ip, lsr #32
    3b50:	260c0002 	strcs	r0, [ip], -r2
    3b54:	06000012 			; <UNDEFINED> instruction: 0x06000012
    3b58:	074d1314 	smlaldeq	r1, sp, r4, r3
    3b5c:	650c0000 	strvs	r0, [ip, #-0]
    3b60:	06000012 			; <UNDEFINED> instruction: 0x06000012
    3b64:	00771118 	rsbseq	r1, r7, r8, lsl r1
    3b68:	f30c0000 	vhadd.u8	d0, d12, d0
    3b6c:	06000011 			; <UNDEFINED> instruction: 0x06000011
    3b70:	00773118 	rsbseq	r3, r7, r8, lsl r1
    3b74:	840c0000 	strhi	r0, [ip], #-0
    3b78:	06000012 			; <UNDEFINED> instruction: 0x06000012
    3b7c:	00774e18 	rsbseq	r4, r7, r8, lsl lr
    3b80:	9c0c0000 	stcls	0, cr0, [ip], {-0}
    3b84:	06000011 			; <UNDEFINED> instruction: 0x06000011
    3b88:	00771119 	rsbseq	r1, r7, r9, lsl r1
    3b8c:	2f0c0000 	svccs	0x000c0000
    3b90:	06000013 			; <UNDEFINED> instruction: 0x06000013
    3b94:	00773119 	rsbseq	r3, r7, r9, lsl r1
    3b98:	d70c0000 	strle	r0, [ip, -r0]
    3b9c:	06000011 			; <UNDEFINED> instruction: 0x06000011
    3ba0:	00774e19 	rsbseq	r4, r7, r9, lsl lr
    3ba4:	7d0c0000 	stcvc	0, cr0, [ip, #-0]
    3ba8:	06000011 			; <UNDEFINED> instruction: 0x06000011
    3bac:	0077111b 	rsbseq	r1, r7, fp, lsl r1
    3bb0:	130c0000 	movwne	r0, #49152	; 0xc000
    3bb4:	06000013 			; <UNDEFINED> instruction: 0x06000013
    3bb8:	0077311b 	rsbseq	r3, r7, fp, lsl r1
    3bbc:	bb0c0000 	bllt	303bc4 <__kernel_size__+0x302690>
    3bc0:	06000011 			; <UNDEFINED> instruction: 0x06000011
    3bc4:	00774e1b 	rsbseq	r4, r7, fp, lsl lr
    3bc8:	f40c0000 	vst4.8	{d0-d3}, [ip], r0
    3bcc:	06000012 			; <UNDEFINED> instruction: 0x06000012
    3bd0:	0077111c 	rsbseq	r1, r7, ip, lsl r1
    3bd4:	a00c0000 	andge	r0, ip, r0
    3bd8:	06000012 			; <UNDEFINED> instruction: 0x06000012
    3bdc:	0077311c 	rsbseq	r3, r7, ip, lsl r1
    3be0:	490c0000 	stmdbmi	ip, {}	; <UNPREDICTABLE>
    3be4:	06000012 			; <UNDEFINED> instruction: 0x06000012
    3be8:	00774e1c 	rsbseq	r4, r7, ip, lsl lr
    3bec:	29120000 	ldmdbcs	r2, {}	; <UNPREDICTABLE>
    3bf0:	01000007 	tsteq	r0, r7
    3bf4:	03052e0c 	movweq	r2, #24076	; 0x5e0c
    3bf8:	70032000 	andvc	r2, r3, r0
    3bfc:	00073512 	andeq	r3, r7, r2, lsl r5
    3c00:	390c0100 	stmdbcc	ip, {r8}
    3c04:	20040305 	andcs	r0, r4, r5, lsl #6
    3c08:	41127003 	tstmi	r2, r3
    3c0c:	01000007 	tsteq	r0, r7
    3c10:	03054b0c 	movweq	r4, #23308	; 0x5b0c
    3c14:	70032008 	andvc	r2, r3, r8
    3c18:	00075d12 	andeq	r5, r7, r2, lsl sp
    3c1c:	350e0100 	strcc	r0, [lr, #-256]	; 0xffffff00
    3c20:	200c0305 	andcs	r0, ip, r5, lsl #6
    3c24:	25107003 	ldrcs	r7, [r0, #-3]
    3c28:	41000000 	mrsmi	r0, (UNDEF: 0)
    3c2c:	11000008 	tstne	r0, r8
    3c30:	0000002c 	andeq	r0, r0, ip, lsr #32
    3c34:	8e130002 	cdphi	0, 1, cr0, cr3, cr2, {0}
    3c38:	01000013 	tsteq	r0, r3, lsl r0
    3c3c:	08312e10 	ldmdaeq	r1!, {r4, r9, sl, fp, sp}
    3c40:	03050000 	movweq	r0, #20480	; 0x5000
    3c44:	7003206c 	andvc	r2, r3, ip, rrx
    3c48:	00086310 	andeq	r6, r8, r0, lsl r3
    3c4c:	00086300 	andeq	r6, r8, r0, lsl #6
    3c50:	002c1100 	eoreq	r1, ip, r0, lsl #2
    3c54:	00020000 	andeq	r0, r2, r0
    3c58:	00770414 	rsbseq	r0, r7, r4, lsl r4
    3c5c:	c1130000 	tstgt	r3, r0
    3c60:	01000013 	tsteq	r0, r3, lsl r0
    3c64:	08533412 	ldmdaeq	r3, {r1, r4, sl, ip, sp}^
    3c68:	03050000 	movweq	r0, #20480	; 0x5000
    3c6c:	70032078 	andvc	r2, r3, r8, ror r0
    3c70:	0013a013 	andseq	sl, r3, r3, lsl r0
    3c74:	34140100 	ldrcc	r0, [r4], #-256	; 0xffffff00
    3c78:	00000853 	andeq	r0, r0, r3, asr r8
    3c7c:	20840305 	addcs	r0, r4, r5, lsl #6
    3c80:	15137003 	ldrne	r7, [r3, #-3]
    3c84:	01000014 	tsteq	r0, r4, lsl r0
    3c88:	08533416 	ldmdaeq	r3, {r1, r2, r4, sl, ip, sp}^
    3c8c:	03050000 	movweq	r0, #20480	; 0x5000
    3c90:	70032090 	mulvc	r3, r0, r0
    3c94:	0013fa13 	andseq	pc, r3, r3, lsl sl	; <UNPREDICTABLE>
    3c98:	34180100 	ldrcc	r0, [r8], #-256	; 0xffffff00
    3c9c:	00000853 	andeq	r0, r0, r3, asr r8
    3ca0:	209c0305 	addscs	r0, ip, r5, lsl #6
    3ca4:	d2137003 	andsle	r7, r3, #3
    3ca8:	01000013 	tsteq	r0, r3, lsl r0
    3cac:	0853341a 	ldmdaeq	r3, {r1, r3, r4, sl, ip, sp}^
    3cb0:	03050000 	movweq	r0, #20480	; 0x5000
    3cb4:	700320a8 	andvc	r2, r3, r8, lsr #1
    3cb8:	0008d310 	andeq	sp, r8, r0, lsl r3
    3cbc:	0008d300 	andeq	sp, r8, r0, lsl #6
    3cc0:	002c1100 	eoreq	r1, ip, r0, lsl #2
    3cc4:	00020000 	andeq	r0, r2, r0
    3cc8:	08d90414 	ldmeq	r9, {r2, r4, sl}^
    3ccc:	13150000 	tstne	r5, #0
    3cd0:	0000140b 	andeq	r1, r0, fp, lsl #8
    3cd4:	c3311c01 	teqgt	r1, #256	; 0x100
    3cd8:	05000008 	streq	r0, [r0, #-8]
    3cdc:	0320b403 			; <UNDEFINED> instruction: 0x0320b403
    3ce0:	13dd1670 	bicsne	r1, sp, #112, 12	; 0x7000000
    3ce4:	45010000 	strmi	r0, [r1, #-0]
    3ce8:	0313d42f 	tsteq	r3, #788529152	; 0x2f000000
    3cec:	00016070 	andeq	r6, r1, r0, ror r0
    3cf0:	129c0100 	addsne	r0, ip, #0, 2
    3cf4:	17000009 	strne	r0, [r0, -r9]
    3cf8:	00001399 	muleq	r0, r9, r3
    3cfc:	63454501 	movtvs	r4, #21761	; 0x5501
    3d00:	02000008 	andeq	r0, r0, #8
    3d04:	18007491 	stmdane	r0, {r0, r4, r7, sl, ip, sp, lr}
    3d08:	000013e9 	andeq	r1, r0, r9, ror #7
    3d0c:	202f1e01 	eorcs	r1, pc, r1, lsl #28
    3d10:	b4700311 	ldrbtlt	r0, [r0], #-785	; 0xfffffcef
    3d14:	01000002 	tsteq	r0, r2
    3d18:	0069199c 	mlseq	r9, ip, r9, r1
    3d1c:	25092001 	strcs	r2, [r9, #-1]
    3d20:	02000000 	andeq	r0, r0, #0
    3d24:	381a7491 	ldmdacc	sl, {r0, r4, r7, sl, ip, sp, lr}
    3d28:	74700311 	ldrbtvc	r0, [r0], #-785	; 0xfffffcef
    3d2c:	19000002 	stmdbne	r0, {r1}
    3d30:	23010072 	movwcs	r0, #4210	; 0x1072
    3d34:	0000250d 	andeq	r2, r0, sp, lsl #10
    3d38:	70910200 	addsvc	r0, r1, r0, lsl #4
    3d3c:	46000000 	strmi	r0, [r0], -r0
    3d40:	04000006 	streq	r0, [r0], #-6
    3d44:	0009a600 	andeq	sl, r9, r0, lsl #12
    3d48:	87010400 	strhi	r0, [r1, -r0, lsl #8]
    3d4c:	0c000002 	stceq	0, cr0, [r0], {2}
    3d50:	00001452 	andeq	r1, r0, r2, asr r4
    3d54:	0000095f 	andeq	r0, r0, pc, asr r9
    3d58:	00000140 	andeq	r0, r0, r0, asr #2
    3d5c:	00000000 	andeq	r0, r0, r0
    3d60:	00000e98 	muleq	r0, r8, lr
    3d64:	69050402 	stmdbvs	r5, {r1, sl}
    3d68:	0300746e 	movweq	r7, #1134	; 0x46e
    3d6c:	05990704 	ldreq	r0, [r9, #1796]	; 0x704
    3d70:	01030000 	mrseq	r0, (UNDEF: 3)
    3d74:	00052906 	andeq	r2, r5, r6, lsl #18
    3d78:	08010300 	stmdaeq	r1, {r8, r9}
    3d7c:	00000527 	andeq	r0, r0, r7, lsr #10
    3d80:	a7050203 	strge	r0, [r5, -r3, lsl #4]
    3d84:	03000000 	movweq	r0, #0
    3d88:	05fe0702 	ldrbeq	r0, [lr, #1794]!	; 0x702
    3d8c:	04030000 	streq	r0, [r3], #-0
    3d90:	00039a05 	andeq	r9, r3, r5, lsl #20
    3d94:	01640400 	cmneq	r4, r0, lsl #8
    3d98:	4f020000 	svcmi	0x00020000
    3d9c:	00006219 	andeq	r6, r0, r9, lsl r2
    3da0:	07040300 	streq	r0, [r4, -r0, lsl #6]
    3da4:	00000594 	muleq	r0, r4, r5
    3da8:	95050803 	strls	r0, [r5, #-2051]	; 0xfffff7fd
    3dac:	03000003 	movweq	r0, #3
    3db0:	058f0708 	streq	r0, [pc, #1800]	; 44c0 <__kernel_size__+0x2f8c>
    3db4:	66040000 	strvs	r0, [r4], -r0
    3db8:	03000001 	movweq	r0, #1
    3dbc:	00561430 	subseq	r1, r6, r0, lsr r4
    3dc0:	ea050000 	b	143dc8 <__kernel_size__+0x142894>
    3dc4:	04000006 	streq	r0, [r0], #-6
    3dc8:	00771108 	rsbseq	r1, r7, r8, lsl #2
    3dcc:	09050000 	stmdbeq	r5, {}	; <UNPREDICTABLE>
    3dd0:	04000001 	streq	r0, [r0], #-1
    3dd4:	00771109 	rsbseq	r1, r7, r9, lsl #2
    3dd8:	2f050000 	svccs	0x00050000
    3ddc:	04000001 	streq	r0, [r0], #-1
    3de0:	0077110a 	rsbseq	r1, r7, sl, lsl #2
    3de4:	9d050000 	stcls	0, cr0, [r5, #-0]
    3de8:	04000007 	streq	r0, [r0], #-7
    3dec:	0077110b 	rsbseq	r1, r7, fp, lsl #2
    3df0:	55050000 	strpl	r0, [r5, #-0]
    3df4:	04000001 	streq	r0, [r0], #-1
    3df8:	0077110d 	rsbseq	r1, r7, sp, lsl #2
    3dfc:	c8050000 	stmdagt	r5, {}	; <UNPREDICTABLE>
    3e00:	04000006 	streq	r0, [r0], #-6
    3e04:	0077110e 	rsbseq	r1, r7, lr, lsl #2
    3e08:	d9050000 	stmdble	r5, {}	; <UNPREDICTABLE>
    3e0c:	04000002 	streq	r0, [r0], #-2
    3e10:	0077110f 	rsbseq	r1, r7, pc, lsl #2
    3e14:	76050000 	strvc	r0, [r5], -r0
    3e18:	04000006 	streq	r0, [r0], #-6
    3e1c:	00771110 	rsbseq	r1, r7, r0, lsl r1
    3e20:	f7050000 			; <UNDEFINED> instruction: 0xf7050000
    3e24:	04000008 	streq	r0, [r0], #-8
    3e28:	00771111 	rsbseq	r1, r7, r1, lsl r1
    3e2c:	27050000 	strcs	r0, [r5, -r0]
    3e30:	04000006 	streq	r0, [r0], #-6
    3e34:	00771112 	rsbseq	r1, r7, r2, lsl r1
    3e38:	36050000 	strcc	r0, [r5], -r0
    3e3c:	04000002 	streq	r0, [r0], #-2
    3e40:	00771114 	rsbseq	r1, r7, r4, lsl r1
    3e44:	15050000 	strne	r0, [r5, #-0]
    3e48:	04000005 	streq	r0, [r0], #-5
    3e4c:	00771115 	rsbseq	r1, r7, r5, lsl r1
    3e50:	7d050000 	stcvc	0, cr0, [r5, #-0]
    3e54:	04000005 	streq	r0, [r0], #-5
    3e58:	00771116 	rsbseq	r1, r7, r6, lsl r1
    3e5c:	db050000 	blle	143e64 <__kernel_size__+0x142930>
    3e60:	04000002 	streq	r0, [r0], #-2
    3e64:	0077111b 	rsbseq	r1, r7, fp, lsl r1
    3e68:	4b050000 	blmi	143e70 <__kernel_size__+0x14293c>
    3e6c:	04000000 	streq	r0, [r0], #-0
    3e70:	00771120 	rsbseq	r1, r7, r0, lsr #2
    3e74:	ac050000 	stcge	0, cr0, [r5], {-0}
    3e78:	04000004 	streq	r0, [r0], #-4
    3e7c:	00771122 	rsbseq	r1, r7, r2, lsr #2
    3e80:	6e050000 	cdpvs	0, 0, cr0, cr5, cr0, {0}
    3e84:	04000003 	streq	r0, [r0], #-3
    3e88:	00771124 	rsbseq	r1, r7, r4, lsr #2
    3e8c:	9c050000 	stcls	0, cr0, [r5], {-0}
    3e90:	04000006 	streq	r0, [r0], #-6
    3e94:	00771127 	rsbseq	r1, r7, r7, lsr #2
    3e98:	24050000 	strcs	r0, [r5], #-0
    3e9c:	04000003 	streq	r0, [r0], #-3
    3ea0:	00771128 	rsbseq	r1, r7, r8, lsr #2
    3ea4:	31050000 	mrscc	r0, (UNDEF: 5)
    3ea8:	04000009 	streq	r0, [r0], #-9
    3eac:	00771129 	rsbseq	r1, r7, r9, lsr #2
    3eb0:	55050000 	strpl	r0, [r5, #-0]
    3eb4:	04000003 	streq	r0, [r0], #-3
    3eb8:	0077112a 	rsbseq	r1, r7, sl, lsr #2
    3ebc:	77050000 	strvc	r0, [r5, -r0]
    3ec0:	04000000 	streq	r0, [r0], #-0
    3ec4:	0077112c 	rsbseq	r1, r7, ip, lsr #2
    3ec8:	b4050000 	strlt	r0, [r5], #-0
    3ecc:	04000008 	streq	r0, [r0], #-8
    3ed0:	0077112e 	rsbseq	r1, r7, lr, lsr #2
    3ed4:	a6050000 	strge	r0, [r5], -r0
    3ed8:	04000009 	streq	r0, [r0], #-9
    3edc:	0077112f 	rsbseq	r1, r7, pc, lsr #2
    3ee0:	d0050000 	andle	r0, r5, r0
    3ee4:	04000003 	streq	r0, [r0], #-3
    3ee8:	00771130 	rsbseq	r1, r7, r0, lsr r1
    3eec:	a3050000 	movwge	r0, #20480	; 0x5000
    3ef0:	04000003 	streq	r0, [r0], #-3
    3ef4:	00771131 	rsbseq	r1, r7, r1, lsr r1
    3ef8:	b2050000 	andlt	r0, r5, #0
    3efc:	04000006 	streq	r0, [r0], #-6
    3f00:	00771132 	rsbseq	r1, r7, r2, lsr r1
    3f04:	08050000 	stmdaeq	r5, {}	; <UNPREDICTABLE>
    3f08:	04000000 	streq	r0, [r0], #-0
    3f0c:	00771136 	rsbseq	r1, r7, r6, lsr r1
    3f10:	94050000 	strls	r0, [r5], #-0
    3f14:	04000004 	streq	r0, [r0], #-4
    3f18:	00771137 	rsbseq	r1, r7, r7, lsr r1
    3f1c:	ac050000 	stcge	0, cr0, [r5], {-0}
    3f20:	04000007 	streq	r0, [r0], #-7
    3f24:	00771138 	rsbseq	r1, r7, r8, lsr r1
    3f28:	5c050000 	stcpl	0, cr0, [r5], {-0}
    3f2c:	04000000 	streq	r0, [r0], #-0
    3f30:	0077113c 	rsbseq	r1, r7, ip, lsr r1
    3f34:	2a050000 	bcs	143f3c <__kernel_size__+0x142a08>
    3f38:	04000007 	streq	r0, [r0], #-7
    3f3c:	0077113e 	rsbseq	r1, r7, lr, lsr r1
    3f40:	36050000 	strcc	r0, [r5], -r0
    3f44:	04000006 	streq	r0, [r0], #-6
    3f48:	0077113f 	rsbseq	r1, r7, pc, lsr r1
    3f4c:	74050000 	strvc	r0, [r5], #-0
    3f50:	04000002 	streq	r0, [r0], #-2
    3f54:	00771140 	rsbseq	r1, r7, r0, asr #2
    3f58:	1a050000 	bne	143f60 <__kernel_size__+0x142a2c>
    3f5c:	04000001 	streq	r0, [r0], #-1
    3f60:	00771141 	rsbseq	r1, r7, r1, asr #2
    3f64:	51050000 	mrspl	r0, (UNDEF: 5)
    3f68:	04000007 	streq	r0, [r0], #-7
    3f6c:	00771143 	rsbseq	r1, r7, r3, asr #2
    3f70:	bc050000 	stclt	0, cr0, [r5], {-0}
    3f74:	04000001 	streq	r0, [r0], #-1
    3f78:	00771144 	rsbseq	r1, r7, r4, asr #2
    3f7c:	1e050000 	cdpne	0, 0, cr0, cr5, cr0, {0}
    3f80:	04000009 	streq	r0, [r0], #-9
    3f84:	00771145 	rsbseq	r1, r7, r5, asr #2
    3f88:	88050000 	stmdahi	r5, {}	; <UNPREDICTABLE>
    3f8c:	04000007 	streq	r0, [r0], #-7
    3f90:	00771146 	rsbseq	r1, r7, r6, asr #2
    3f94:	e8050000 	stmda	r5, {}	; <UNPREDICTABLE>
    3f98:	04000002 	streq	r0, [r0], #-2
    3f9c:	00771148 	rsbseq	r1, r7, r8, asr #2
    3fa0:	d7050000 	strle	r0, [r5, -r0]
    3fa4:	04000006 	streq	r0, [r0], #-6
    3fa8:	00771149 	rsbseq	r1, r7, r9, asr #2
    3fac:	4b050000 	blmi	143fb4 <__kernel_size__+0x142a80>
    3fb0:	04000008 	streq	r0, [r0], #-8
    3fb4:	0077114b 	rsbseq	r1, r7, fp, asr #2
    3fb8:	48050000 	stmdami	r5, {}	; <UNPREDICTABLE>
    3fbc:	04000009 	streq	r0, [r0], #-9
    3fc0:	0077114c 	rsbseq	r1, r7, ip, asr #2
    3fc4:	b9050000 	stmdblt	r5, {}	; <UNPREDICTABLE>
    3fc8:	04000003 	streq	r0, [r0], #-3
    3fcc:	0077114d 	rsbseq	r1, r7, sp, asr #2
    3fd0:	0d050000 	stceq	0, cr0, [r5, #-0]
    3fd4:	04000003 	streq	r0, [r0], #-3
    3fd8:	0077114e 	rsbseq	r1, r7, lr, asr #2
    3fdc:	5f050000 	svcpl	0x00050000
    3fe0:	04000006 	streq	r0, [r0], #-6
    3fe4:	0077114f 	rsbseq	r1, r7, pc, asr #2
    3fe8:	48050000 	stmdami	r5, {}	; <UNPREDICTABLE>
    3fec:	04000006 	streq	r0, [r0], #-6
    3ff0:	00771151 	rsbseq	r1, r7, r1, asr r1
    3ff4:	4b050000 	blmi	143ffc <__kernel_size__+0x142ac8>
    3ff8:	04000002 	streq	r0, [r0], #-2
    3ffc:	00771152 	rsbseq	r1, r7, r2, asr r1
    4000:	85050000 	strhi	r0, [r5, #-0]
    4004:	04000006 	streq	r0, [r0], #-6
    4008:	00771153 	rsbseq	r1, r7, r3, asr r1
    400c:	6f050000 	svcvs	0x00050000
    4010:	04000001 	streq	r0, [r0], #-1
    4014:	00771154 	rsbseq	r1, r7, r4, asr r1
    4018:	4b050000 	blmi	144020 <__kernel_size__+0x142aec>
    401c:	04000005 	streq	r0, [r0], #-5
    4020:	00771155 	rsbseq	r1, r7, r5, asr r1
    4024:	62050000 	andvs	r0, r5, #0
    4028:	04000005 	streq	r0, [r0], #-5
    402c:	00771157 	rsbseq	r1, r7, r7, asr r1
    4030:	fa050000 	blx	144038 <__kernel_size__+0x142b04>
    4034:	04000009 	streq	r0, [r0], #-9
    4038:	00771158 	rsbseq	r1, r7, r8, asr r1
    403c:	ff050000 			; <UNDEFINED> instruction: 0xff050000
    4040:	04000007 	streq	r0, [r0], #-7
    4044:	0077115c 	rsbseq	r1, r7, ip, asr r1
    4048:	3b050000 	blcc	144050 <__kernel_size__+0x142b1c>
    404c:	04000008 	streq	r0, [r0], #-8
    4050:	0077115d 	rsbseq	r1, r7, sp, asr r1
    4054:	0d050000 	stceq	0, cr0, [r5, #-0]
    4058:	04000002 	streq	r0, [r0], #-2
    405c:	0077115f 	rsbseq	r1, r7, pc, asr r1
    4060:	e1050000 	mrs	r0, (UNDEF: 5)
    4064:	04000000 	streq	r0, [r0], #-0
    4068:	00771160 	rsbseq	r1, r7, r0, ror #2
    406c:	aa050000 	bge	144074 <__kernel_size__+0x142b40>
    4070:	04000001 	streq	r0, [r0], #-1
    4074:	00771162 	rsbseq	r1, r7, r2, ror #2
    4078:	d4050000 	strle	r0, [r5], #-0
    407c:	04000004 	streq	r0, [r0], #-4
    4080:	00771163 	rsbseq	r1, r7, r3, ror #2
    4084:	f5050000 			; <UNDEFINED> instruction: 0xf5050000
    4088:	04000000 	streq	r0, [r0], #-0
    408c:	00771165 	rsbseq	r1, r7, r5, ror #2
    4090:	e9050000 	stmdb	r5, {}	; <UNPREDICTABLE>
    4094:	04000004 	streq	r0, [r0], #-4
    4098:	00771166 	rsbseq	r1, r7, r6, ror #2
    409c:	79050000 	stmdbvc	r5, {}	; <UNPREDICTABLE>
    40a0:	04000007 	streq	r0, [r0], #-7
    40a4:	00771168 	rsbseq	r1, r7, r8, ror #2
    40a8:	db050000 	blle	1440b0 <__kernel_size__+0x142b7c>
    40ac:	04000005 	streq	r0, [r0], #-5
    40b0:	00771169 	rsbseq	r1, r7, r9, ror #2
    40b4:	82050000 	andhi	r0, r5, #0
    40b8:	04000004 	streq	r0, [r0], #-4
    40bc:	0077116b 	rsbseq	r1, r7, fp, ror #2
    40c0:	62050000 	andvs	r0, r5, #0
    40c4:	04000008 	streq	r0, [r0], #-8
    40c8:	0077116c 	rsbseq	r1, r7, ip, ror #2
    40cc:	86050000 	strhi	r0, [r5], -r0
    40d0:	04000001 	streq	r0, [r0], #-1
    40d4:	0077116e 	rsbseq	r1, r7, lr, ror #2
    40d8:	00050000 	andeq	r0, r5, r0
    40dc:	04000005 	streq	r0, [r0], #-5
    40e0:	0077116f 	rsbseq	r1, r7, pc, ror #2
    40e4:	15050000 	strne	r0, [r5, #-0]
    40e8:	0400000a 	streq	r0, [r0], #-10
    40ec:	00771171 	rsbseq	r1, r7, r1, ror r1
    40f0:	11050000 	mrsne	r0, (UNDEF: 5)
    40f4:	04000006 	streq	r0, [r0], #-6
    40f8:	00771172 	rsbseq	r1, r7, r2, ror r1
    40fc:	bc050000 	stclt	0, cr0, [r5], {-0}
    4100:	04000009 	streq	r0, [r0], #-9
    4104:	00771174 	rsbseq	r1, r7, r4, ror r1
    4108:	06050000 	streq	r0, [r5], -r0
    410c:	04000009 	streq	r0, [r0], #-9
    4110:	00771175 	rsbseq	r1, r7, r5, ror r1
    4114:	e5050000 	str	r0, [r5, #-0]
    4118:	04000001 	streq	r0, [r0], #-1
    411c:	00771177 	rsbseq	r1, r7, r7, ror r1
    4120:	15050000 	strne	r0, [r5, #-0]
    4124:	04000007 	streq	r0, [r0], #-7
    4128:	00771178 	rsbseq	r1, r7, r8, ror r1
    412c:	fe050000 	cdp2	0, 0, cr0, cr5, cr0, {0}
    4130:	04000003 	streq	r0, [r0], #-3
    4134:	0077117a 	rsbseq	r1, r7, sl, ror r1
    4138:	e9050000 	stmdb	r5, {}	; <UNPREDICTABLE>
    413c:	04000005 	streq	r0, [r0], #-5
    4140:	0077117b 	rsbseq	r1, r7, fp, ror r1
    4144:	27050000 	strcs	r0, [r5, -r0]
    4148:	04000004 	streq	r0, [r0], #-4
    414c:	0077117d 	rsbseq	r1, r7, sp, ror r1
    4150:	cb050000 	blgt	144158 <__kernel_size__+0x142c24>
    4154:	04000000 	streq	r0, [r0], #-0
    4158:	0077117e 	rsbseq	r1, r7, lr, ror r1
    415c:	3f050000 	svccc	0x00050000
    4160:	0400000a 	streq	r0, [r0], #-10
    4164:	00771180 	rsbseq	r1, r7, r0, lsl #3
    4168:	1e050000 	cdpne	0, 0, cr0, cr5, cr0, {0}
    416c:	04000002 	streq	r0, [r0], #-2
    4170:	00771181 	rsbseq	r1, r7, r1, lsl #3
    4174:	6b050000 	blvs	14417c <__kernel_size__+0x142c48>
    4178:	04000000 	streq	r0, [r0], #-0
    417c:	00771187 	rsbseq	r1, r7, r7, lsl #3
    4180:	42050000 	andmi	r0, r5, #0
    4184:	04000004 	streq	r0, [r0], #-4
    4188:	0077118a 	rsbseq	r1, r7, sl, lsl #3
    418c:	a6050000 	strge	r0, [r5], -r0
    4190:	04000005 	streq	r0, [r0], #-5
    4194:	0077118d 	rsbseq	r1, r7, sp, lsl #3
    4198:	b6050000 	strlt	r0, [r5], -r0
    419c:	04000005 	streq	r0, [r0], #-5
    41a0:	00771191 			; <UNDEFINED> instruction: 0x00771191
    41a4:	89050000 	stmdbhi	r5, {}	; <UNPREDICTABLE>
    41a8:	04000000 	streq	r0, [r0], #-0
    41ac:	00771192 			; <UNDEFINED> instruction: 0x00771192
    41b0:	83050000 	movwhi	r0, #20480	; 0x5000
    41b4:	04000003 	streq	r0, [r0], #-3
    41b8:	00771193 			; <UNDEFINED> instruction: 0x00771193
    41bc:	c7050000 	strgt	r0, [r5, -r0]
    41c0:	04000005 	streq	r0, [r0], #-5
    41c4:	00771194 			; <UNDEFINED> instruction: 0x00771194
    41c8:	e8050000 	stmda	r5, {}	; <UNPREDICTABLE>
    41cc:	04000009 	streq	r0, [r0], #-9
    41d0:	00771196 			; <UNDEFINED> instruction: 0x00771196
    41d4:	55050000 	strpl	r0, [r5, #-0]
    41d8:	04000004 	streq	r0, [r0], #-4
    41dc:	00771198 			; <UNDEFINED> instruction: 0x00771198
    41e0:	35050000 	strcc	r0, [r5, #-0]
    41e4:	04000005 	streq	r0, [r0], #-5
    41e8:	00771199 			; <UNDEFINED> instruction: 0x00771199
    41ec:	63050000 	movwvs	r0, #20480	; 0x5000
    41f0:	04000007 	streq	r0, [r0], #-7
    41f4:	0077119a 			; <UNDEFINED> instruction: 0x0077119a
    41f8:	e1050000 	mrs	r0, (UNDEF: 5)
    41fc:	04000008 	streq	r0, [r0], #-8
    4200:	0077119b 			; <UNDEFINED> instruction: 0x0077119b
    4204:	f7050000 			; <UNDEFINED> instruction: 0xf7050000
    4208:	04000001 	streq	r0, [r0], #-1
    420c:	0077119c 			; <UNDEFINED> instruction: 0x0077119c
    4210:	a5050000 	strge	r0, [r5, #-0]
    4214:	04000008 	streq	r0, [r0], #-8
    4218:	007711a1 	rsbseq	r1, r7, r1, lsr #3
    421c:	62050000 	andvs	r0, r5, #0
    4220:	04000002 	streq	r0, [r0], #-2
    4224:	007711a3 	rsbseq	r1, r7, r3, lsr #3
    4228:	98050000 	stmdals	r5, {}	; <UNPREDICTABLE>
    422c:	04000001 	streq	r0, [r0], #-1
    4230:	007711a4 	rsbseq	r1, r7, r4, lsr #3
    4234:	28050000 	stmdacs	r5, {}	; <UNPREDICTABLE>
    4238:	04000008 	streq	r0, [r0], #-8
    423c:	007711a5 	rsbseq	r1, r7, r5, lsr #3
    4240:	c4050000 	strgt	r0, [r5], #-0
    4244:	04000007 	streq	r0, [r0], #-7
    4248:	007711a6 	rsbseq	r1, r7, r6, lsr #3
    424c:	fb050000 	blx	144256 <__kernel_size__+0x142d22>
    4250:	04000002 	streq	r0, [r0], #-2
    4254:	007711a8 	rsbseq	r1, r7, r8, lsr #3
    4258:	b9050000 	stmdblt	r5, {}	; <UNPREDICTABLE>
    425c:	04000000 	streq	r0, [r0], #-0
    4260:	007711a9 	rsbseq	r1, r7, r9, lsr #3
    4264:	ec050000 	stc	0, cr0, [r5], {-0}
    4268:	04000007 	streq	r0, [r0], #-7
    426c:	007711aa 	rsbseq	r1, r7, sl, lsr #3
    4270:	3c050000 	stccc	0, cr0, [r5], {-0}
    4274:	04000007 	streq	r0, [r0], #-7
    4278:	007711ab 	rsbseq	r1, r7, fp, lsr #3
    427c:	42050000 	andmi	r0, r5, #0
    4280:	04000001 	streq	r0, [r0], #-1
    4284:	007711ad 	rsbseq	r1, r7, sp, lsr #3
    4288:	d9050000 	stmdble	r5, {}	; <UNPREDICTABLE>
    428c:	04000007 	streq	r0, [r0], #-7
    4290:	007711ae 	rsbseq	r1, r7, lr, lsr #3
    4294:	10050000 	andne	r0, r5, r0
    4298:	04000004 	streq	r0, [r0], #-4
    429c:	007711b0 	ldrhteq	r1, [r7], #-16
    42a0:	d1050000 	mrsle	r0, (UNDEF: 5)
    42a4:	04000009 	streq	r0, [r0], #-9
    42a8:	007711b1 	ldrhteq	r1, [r7], #-17	; 0xffffffef
    42ac:	ca050000 	bgt	1442b4 <__kernel_size__+0x142d80>
    42b0:	04000008 	streq	r0, [r0], #-8
    42b4:	007711b2 	ldrhteq	r1, [r7], #-18	; 0xffffffee
    42b8:	8e050000 	cdphi	0, 0, cr0, cr5, cr0, {0}
    42bc:	04000008 	streq	r0, [r0], #-8
    42c0:	007711b3 	ldrhteq	r1, [r7], #-19	; 0xffffffed
    42c4:	77050000 	strvc	r0, [r5, -r0]
    42c8:	04000008 	streq	r0, [r0], #-8
    42cc:	007711b4 	ldrhteq	r1, [r7], #-20	; 0xffffffec
    42d0:	28050000 	stmdacs	r5, {}	; <UNPREDICTABLE>
    42d4:	0400000a 	streq	r0, [r0], #-10
    42d8:	007711b6 	ldrhteq	r1, [r7], #-22	; 0xffffffea
    42dc:	6b050000 	blvs	1442e4 <__kernel_size__+0x142db0>
    42e0:	04000004 	streq	r0, [r0], #-4
    42e4:	007711b7 	ldrhteq	r1, [r7], #-23	; 0xffffffe9
    42e8:	ce050000 	cdpgt	0, 0, cr0, cr5, cr0, {0}
    42ec:	04000001 	streq	r0, [r0], #-1
    42f0:	007711b8 	ldrhteq	r1, [r7], #-24	; 0xffffffe8
    42f4:	1d050000 	stcne	0, cr0, [r5, #-0]
    42f8:	04000000 	streq	r0, [r0], #-0
    42fc:	007711b9 	ldrhteq	r1, [r7], #-25	; 0xffffffe7
    4300:	34050000 	strcc	r0, [r5], #-0
    4304:	04000000 	streq	r0, [r0], #-0
    4308:	007711ba 	ldrhteq	r1, [r7], #-26	; 0xffffffe6
    430c:	3a050000 	bcc	144314 <__kernel_size__+0x142de0>
    4310:	04000003 	streq	r0, [r0], #-3
    4314:	007711bc 	ldrhteq	r1, [r7], #-28	; 0xffffffe4
    4318:	fa050000 	blx	144320 <__kernel_size__+0x142dec>
    431c:	04000006 	streq	r0, [r0], #-6
    4320:	007711bd 	ldrhteq	r1, [r7], #-29	; 0xffffffe3
    4324:	c4050000 	strgt	r0, [r5], #-0
    4328:	04000004 	streq	r0, [r0], #-4
    432c:	007711c2 	rsbseq	r1, r7, r2, asr #3
    4330:	10050000 	andne	r0, r5, r0
    4334:	04000008 	streq	r0, [r0], #-8
    4338:	007711c3 	rsbseq	r1, r7, r3, asr #3
    433c:	e6050000 	str	r0, [r5], -r0
    4340:	04000003 	streq	r0, [r0], #-3
    4344:	007711c4 	rsbseq	r1, r7, r4, asr #3
    4348:	48060000 	stmdami	r6, {}	; <UNPREDICTABLE>
    434c:	01000014 	tsteq	r0, r4, lsl r0
    4350:	00002f04 	andeq	r2, r0, r4, lsl #30
    4354:	00dc70f5 	ldrsheq	r7, [ip], #5
    4358:	9c010000 	stcls	0, cr0, [r1], {-0}
    435c:	01006907 	tsteq	r0, r7, lsl #18
    4360:	00250906 	eoreq	r0, r5, r6, lsl #18
    4364:	91020000 	mrsls	r0, (UNDEF: 2)
    4368:	143a0874 	ldrtne	r0, [sl], #-2164	; 0xfffff78c
    436c:	07010000 	streq	r0, [r1, -r0]
    4370:	0000770e 	andeq	r7, r0, lr, lsl #14
    4374:	70910200 	addsvc	r0, r1, r0, lsl #4
    4378:	00142608 	andseq	r2, r4, r8, lsl #12
    437c:	21070100 	mrscs	r0, (UNDEF: 23)
    4380:	00000077 	andeq	r0, r0, r7, ror r0
    4384:	006c9102 	rsbeq	r9, ip, r2, lsl #2
    4388:	00062800 	andeq	r2, r6, r0, lsl #16
    438c:	2c000400 	cfstrscs	mvf0, [r0], {-0}
    4390:	0400000a 	streq	r0, [r0], #-10
    4394:	00028701 	andeq	r8, r2, r1, lsl #14
    4398:	14600c00 	strbtne	r0, [r0], #-3072	; 0xfffff400
    439c:	095f0000 	ldmdbeq	pc, {}^	; <UNPREDICTABLE>
    43a0:	01500000 	cmpeq	r0, r0
    43a4:	00000000 	andeq	r0, r0, r0
    43a8:	10150000 	andsne	r0, r5, r0
    43ac:	04020000 	streq	r0, [r2], #-0
    43b0:	746e6905 	strbtvc	r6, [lr], #-2309	; 0xfffff6fb
    43b4:	07040300 	streq	r0, [r4, -r0, lsl #6]
    43b8:	00000599 	muleq	r0, r9, r5
    43bc:	29060103 	stmdbcs	r6, {r0, r1, r8}
    43c0:	03000005 	movweq	r0, #5
    43c4:	05270801 	streq	r0, [r7, #-2049]!	; 0xfffff7ff
    43c8:	02030000 	andeq	r0, r3, #0
    43cc:	0000a705 	andeq	sl, r0, r5, lsl #14
    43d0:	07020300 	streq	r0, [r2, -r0, lsl #6]
    43d4:	000005fe 	strdeq	r0, [r0], -lr
    43d8:	9a050403 	bls	1453ec <__kernel_size__+0x143eb8>
    43dc:	04000003 	streq	r0, [r0], #-3
    43e0:	00000164 	andeq	r0, r0, r4, ror #2
    43e4:	62194f02 	andsvs	r4, r9, #2, 30
    43e8:	03000000 	movweq	r0, #0
    43ec:	05940704 	ldreq	r0, [r4, #1796]	; 0x704
    43f0:	08030000 	stmdaeq	r3, {}	; <UNPREDICTABLE>
    43f4:	00039505 	andeq	r9, r3, r5, lsl #10
    43f8:	07080300 	streq	r0, [r8, -r0, lsl #6]
    43fc:	0000058f 	andeq	r0, r0, pc, lsl #11
    4400:	00016604 	andeq	r6, r1, r4, lsl #12
    4404:	14300300 	ldrtne	r0, [r0], #-768	; 0xfffffd00
    4408:	00000056 	andeq	r0, r0, r6, asr r0
    440c:	0006ea05 	andeq	lr, r6, r5, lsl #20
    4410:	11080400 	tstne	r8, r0, lsl #8
    4414:	00000077 	andeq	r0, r0, r7, ror r0
    4418:	00010905 	andeq	r0, r1, r5, lsl #18
    441c:	11090400 	tstne	r9, r0, lsl #8
    4420:	00000077 	andeq	r0, r0, r7, ror r0
    4424:	00012f05 	andeq	r2, r1, r5, lsl #30
    4428:	110a0400 	tstne	sl, r0, lsl #8
    442c:	00000077 	andeq	r0, r0, r7, ror r0
    4430:	00079d05 	andeq	r9, r7, r5, lsl #26
    4434:	110b0400 	tstne	fp, r0, lsl #8
    4438:	00000077 	andeq	r0, r0, r7, ror r0
    443c:	00015505 	andeq	r5, r1, r5, lsl #10
    4440:	110d0400 	tstne	sp, r0, lsl #8
    4444:	00000077 	andeq	r0, r0, r7, ror r0
    4448:	0006c805 	andeq	ip, r6, r5, lsl #16
    444c:	110e0400 	tstne	lr, r0, lsl #8
    4450:	00000077 	andeq	r0, r0, r7, ror r0
    4454:	0002d905 	andeq	sp, r2, r5, lsl #18
    4458:	110f0400 	tstne	pc, r0, lsl #8
    445c:	00000077 	andeq	r0, r0, r7, ror r0
    4460:	00067605 	andeq	r7, r6, r5, lsl #12
    4464:	11100400 	tstne	r0, r0, lsl #8
    4468:	00000077 	andeq	r0, r0, r7, ror r0
    446c:	0008f705 	andeq	pc, r8, r5, lsl #14
    4470:	11110400 	tstne	r1, r0, lsl #8
    4474:	00000077 	andeq	r0, r0, r7, ror r0
    4478:	00062705 	andeq	r2, r6, r5, lsl #14
    447c:	11120400 	tstne	r2, r0, lsl #8
    4480:	00000077 	andeq	r0, r0, r7, ror r0
    4484:	00023605 	andeq	r3, r2, r5, lsl #12
    4488:	11140400 	tstne	r4, r0, lsl #8
    448c:	00000077 	andeq	r0, r0, r7, ror r0
    4490:	00051505 	andeq	r1, r5, r5, lsl #10
    4494:	11150400 	tstne	r5, r0, lsl #8
    4498:	00000077 	andeq	r0, r0, r7, ror r0
    449c:	00057d05 	andeq	r7, r5, r5, lsl #26
    44a0:	11160400 	tstne	r6, r0, lsl #8
    44a4:	00000077 	andeq	r0, r0, r7, ror r0
    44a8:	0002db05 	andeq	sp, r2, r5, lsl #22
    44ac:	111b0400 	tstne	fp, r0, lsl #8
    44b0:	00000077 	andeq	r0, r0, r7, ror r0
    44b4:	00004b05 	andeq	r4, r0, r5, lsl #22
    44b8:	11200400 			; <UNDEFINED> instruction: 0x11200400
    44bc:	00000077 	andeq	r0, r0, r7, ror r0
    44c0:	0004ac05 	andeq	sl, r4, r5, lsl #24
    44c4:	11220400 			; <UNDEFINED> instruction: 0x11220400
    44c8:	00000077 	andeq	r0, r0, r7, ror r0
    44cc:	00036e05 	andeq	r6, r3, r5, lsl #28
    44d0:	11240400 			; <UNDEFINED> instruction: 0x11240400
    44d4:	00000077 	andeq	r0, r0, r7, ror r0
    44d8:	00069c05 	andeq	r9, r6, r5, lsl #24
    44dc:	11270400 			; <UNDEFINED> instruction: 0x11270400
    44e0:	00000077 	andeq	r0, r0, r7, ror r0
    44e4:	00032405 	andeq	r2, r3, r5, lsl #8
    44e8:	11280400 			; <UNDEFINED> instruction: 0x11280400
    44ec:	00000077 	andeq	r0, r0, r7, ror r0
    44f0:	00093105 	andeq	r3, r9, r5, lsl #2
    44f4:	11290400 			; <UNDEFINED> instruction: 0x11290400
    44f8:	00000077 	andeq	r0, r0, r7, ror r0
    44fc:	00035505 	andeq	r5, r3, r5, lsl #10
    4500:	112a0400 			; <UNDEFINED> instruction: 0x112a0400
    4504:	00000077 	andeq	r0, r0, r7, ror r0
    4508:	00007705 	andeq	r7, r0, r5, lsl #14
    450c:	112c0400 			; <UNDEFINED> instruction: 0x112c0400
    4510:	00000077 	andeq	r0, r0, r7, ror r0
    4514:	0008b405 	andeq	fp, r8, r5, lsl #8
    4518:	112e0400 			; <UNDEFINED> instruction: 0x112e0400
    451c:	00000077 	andeq	r0, r0, r7, ror r0
    4520:	0009a605 	andeq	sl, r9, r5, lsl #12
    4524:	112f0400 			; <UNDEFINED> instruction: 0x112f0400
    4528:	00000077 	andeq	r0, r0, r7, ror r0
    452c:	0003d005 	andeq	sp, r3, r5
    4530:	11300400 	teqne	r0, r0, lsl #8
    4534:	00000077 	andeq	r0, r0, r7, ror r0
    4538:	0003a305 	andeq	sl, r3, r5, lsl #6
    453c:	11310400 	teqne	r1, r0, lsl #8
    4540:	00000077 	andeq	r0, r0, r7, ror r0
    4544:	0006b205 	andeq	fp, r6, r5, lsl #4
    4548:	11320400 	teqne	r2, r0, lsl #8
    454c:	00000077 	andeq	r0, r0, r7, ror r0
    4550:	00000805 	andeq	r0, r0, r5, lsl #16
    4554:	11360400 	teqne	r6, r0, lsl #8
    4558:	00000077 	andeq	r0, r0, r7, ror r0
    455c:	00049405 	andeq	r9, r4, r5, lsl #8
    4560:	11370400 	teqne	r7, r0, lsl #8
    4564:	00000077 	andeq	r0, r0, r7, ror r0
    4568:	0007ac05 	andeq	sl, r7, r5, lsl #24
    456c:	11380400 	teqne	r8, r0, lsl #8
    4570:	00000077 	andeq	r0, r0, r7, ror r0
    4574:	00005c05 	andeq	r5, r0, r5, lsl #24
    4578:	113c0400 	teqne	ip, r0, lsl #8
    457c:	00000077 	andeq	r0, r0, r7, ror r0
    4580:	00072a05 	andeq	r2, r7, r5, lsl #20
    4584:	113e0400 	teqne	lr, r0, lsl #8
    4588:	00000077 	andeq	r0, r0, r7, ror r0
    458c:	00063605 	andeq	r3, r6, r5, lsl #12
    4590:	113f0400 	teqne	pc, r0, lsl #8
    4594:	00000077 	andeq	r0, r0, r7, ror r0
    4598:	00027405 	andeq	r7, r2, r5, lsl #8
    459c:	11400400 	cmpne	r0, r0, lsl #8
    45a0:	00000077 	andeq	r0, r0, r7, ror r0
    45a4:	00011a05 	andeq	r1, r1, r5, lsl #20
    45a8:	11410400 	cmpne	r1, r0, lsl #8
    45ac:	00000077 	andeq	r0, r0, r7, ror r0
    45b0:	00075105 	andeq	r5, r7, r5, lsl #2
    45b4:	11430400 	cmpne	r3, r0, lsl #8
    45b8:	00000077 	andeq	r0, r0, r7, ror r0
    45bc:	0001bc05 	andeq	fp, r1, r5, lsl #24
    45c0:	11440400 	cmpne	r4, r0, lsl #8
    45c4:	00000077 	andeq	r0, r0, r7, ror r0
    45c8:	00091e05 	andeq	r1, r9, r5, lsl #28
    45cc:	11450400 	cmpne	r5, r0, lsl #8
    45d0:	00000077 	andeq	r0, r0, r7, ror r0
    45d4:	00078805 	andeq	r8, r7, r5, lsl #16
    45d8:	11460400 	cmpne	r6, r0, lsl #8
    45dc:	00000077 	andeq	r0, r0, r7, ror r0
    45e0:	0002e805 	andeq	lr, r2, r5, lsl #16
    45e4:	11480400 	cmpne	r8, r0, lsl #8
    45e8:	00000077 	andeq	r0, r0, r7, ror r0
    45ec:	0006d705 	andeq	sp, r6, r5, lsl #14
    45f0:	11490400 	cmpne	r9, r0, lsl #8
    45f4:	00000077 	andeq	r0, r0, r7, ror r0
    45f8:	00084b05 	andeq	r4, r8, r5, lsl #22
    45fc:	114b0400 	cmpne	fp, r0, lsl #8
    4600:	00000077 	andeq	r0, r0, r7, ror r0
    4604:	00094805 	andeq	r4, r9, r5, lsl #16
    4608:	114c0400 	cmpne	ip, r0, lsl #8
    460c:	00000077 	andeq	r0, r0, r7, ror r0
    4610:	0003b905 	andeq	fp, r3, r5, lsl #18
    4614:	114d0400 	cmpne	sp, r0, lsl #8
    4618:	00000077 	andeq	r0, r0, r7, ror r0
    461c:	00030d05 	andeq	r0, r3, r5, lsl #26
    4620:	114e0400 	cmpne	lr, r0, lsl #8
    4624:	00000077 	andeq	r0, r0, r7, ror r0
    4628:	00065f05 	andeq	r5, r6, r5, lsl #30
    462c:	114f0400 	cmpne	pc, r0, lsl #8
    4630:	00000077 	andeq	r0, r0, r7, ror r0
    4634:	00064805 	andeq	r4, r6, r5, lsl #16
    4638:	11510400 	cmpne	r1, r0, lsl #8
    463c:	00000077 	andeq	r0, r0, r7, ror r0
    4640:	00024b05 	andeq	r4, r2, r5, lsl #22
    4644:	11520400 	cmpne	r2, r0, lsl #8
    4648:	00000077 	andeq	r0, r0, r7, ror r0
    464c:	00068505 	andeq	r8, r6, r5, lsl #10
    4650:	11530400 	cmpne	r3, r0, lsl #8
    4654:	00000077 	andeq	r0, r0, r7, ror r0
    4658:	00016f05 	andeq	r6, r1, r5, lsl #30
    465c:	11540400 	cmpne	r4, r0, lsl #8
    4660:	00000077 	andeq	r0, r0, r7, ror r0
    4664:	00054b05 	andeq	r4, r5, r5, lsl #22
    4668:	11550400 	cmpne	r5, r0, lsl #8
    466c:	00000077 	andeq	r0, r0, r7, ror r0
    4670:	00056205 	andeq	r6, r5, r5, lsl #4
    4674:	11570400 	cmpne	r7, r0, lsl #8
    4678:	00000077 	andeq	r0, r0, r7, ror r0
    467c:	0009fa05 	andeq	pc, r9, r5, lsl #20
    4680:	11580400 	cmpne	r8, r0, lsl #8
    4684:	00000077 	andeq	r0, r0, r7, ror r0
    4688:	0007ff05 	andeq	pc, r7, r5, lsl #30
    468c:	115c0400 	cmpne	ip, r0, lsl #8
    4690:	00000077 	andeq	r0, r0, r7, ror r0
    4694:	00083b05 	andeq	r3, r8, r5, lsl #22
    4698:	115d0400 	cmpne	sp, r0, lsl #8
    469c:	00000077 	andeq	r0, r0, r7, ror r0
    46a0:	00020d05 	andeq	r0, r2, r5, lsl #26
    46a4:	115f0400 	cmpne	pc, r0, lsl #8
    46a8:	00000077 	andeq	r0, r0, r7, ror r0
    46ac:	0000e105 	andeq	lr, r0, r5, lsl #2
    46b0:	11600400 	cmnne	r0, r0, lsl #8
    46b4:	00000077 	andeq	r0, r0, r7, ror r0
    46b8:	0001aa05 	andeq	sl, r1, r5, lsl #20
    46bc:	11620400 	cmnne	r2, r0, lsl #8
    46c0:	00000077 	andeq	r0, r0, r7, ror r0
    46c4:	0004d405 	andeq	sp, r4, r5, lsl #8
    46c8:	11630400 	cmnne	r3, r0, lsl #8
    46cc:	00000077 	andeq	r0, r0, r7, ror r0
    46d0:	0000f505 	andeq	pc, r0, r5, lsl #10
    46d4:	11650400 	cmnne	r5, r0, lsl #8
    46d8:	00000077 	andeq	r0, r0, r7, ror r0
    46dc:	0004e905 	andeq	lr, r4, r5, lsl #18
    46e0:	11660400 	cmnne	r6, r0, lsl #8
    46e4:	00000077 	andeq	r0, r0, r7, ror r0
    46e8:	00077905 	andeq	r7, r7, r5, lsl #18
    46ec:	11680400 	cmnne	r8, r0, lsl #8
    46f0:	00000077 	andeq	r0, r0, r7, ror r0
    46f4:	0005db05 	andeq	sp, r5, r5, lsl #22
    46f8:	11690400 	cmnne	r9, r0, lsl #8
    46fc:	00000077 	andeq	r0, r0, r7, ror r0
    4700:	00048205 	andeq	r8, r4, r5, lsl #4
    4704:	116b0400 	cmnne	fp, r0, lsl #8
    4708:	00000077 	andeq	r0, r0, r7, ror r0
    470c:	00086205 	andeq	r6, r8, r5, lsl #4
    4710:	116c0400 	cmnne	ip, r0, lsl #8
    4714:	00000077 	andeq	r0, r0, r7, ror r0
    4718:	00018605 	andeq	r8, r1, r5, lsl #12
    471c:	116e0400 	cmnne	lr, r0, lsl #8
    4720:	00000077 	andeq	r0, r0, r7, ror r0
    4724:	00050005 	andeq	r0, r5, r5
    4728:	116f0400 	cmnne	pc, r0, lsl #8
    472c:	00000077 	andeq	r0, r0, r7, ror r0
    4730:	000a1505 	andeq	r1, sl, r5, lsl #10
    4734:	11710400 	cmnne	r1, r0, lsl #8
    4738:	00000077 	andeq	r0, r0, r7, ror r0
    473c:	00061105 	andeq	r1, r6, r5, lsl #2
    4740:	11720400 	cmnne	r2, r0, lsl #8
    4744:	00000077 	andeq	r0, r0, r7, ror r0
    4748:	0009bc05 	andeq	fp, r9, r5, lsl #24
    474c:	11740400 	cmnne	r4, r0, lsl #8
    4750:	00000077 	andeq	r0, r0, r7, ror r0
    4754:	00090605 	andeq	r0, r9, r5, lsl #12
    4758:	11750400 	cmnne	r5, r0, lsl #8
    475c:	00000077 	andeq	r0, r0, r7, ror r0
    4760:	0001e505 	andeq	lr, r1, r5, lsl #10
    4764:	11770400 	cmnne	r7, r0, lsl #8
    4768:	00000077 	andeq	r0, r0, r7, ror r0
    476c:	00071505 	andeq	r1, r7, r5, lsl #10
    4770:	11780400 	cmnne	r8, r0, lsl #8
    4774:	00000077 	andeq	r0, r0, r7, ror r0
    4778:	0003fe05 	andeq	pc, r3, r5, lsl #28
    477c:	117a0400 	cmnne	sl, r0, lsl #8
    4780:	00000077 	andeq	r0, r0, r7, ror r0
    4784:	0005e905 	andeq	lr, r5, r5, lsl #18
    4788:	117b0400 	cmnne	fp, r0, lsl #8
    478c:	00000077 	andeq	r0, r0, r7, ror r0
    4790:	00042705 	andeq	r2, r4, r5, lsl #14
    4794:	117d0400 	cmnne	sp, r0, lsl #8
    4798:	00000077 	andeq	r0, r0, r7, ror r0
    479c:	0000cb05 	andeq	ip, r0, r5, lsl #22
    47a0:	117e0400 	cmnne	lr, r0, lsl #8
    47a4:	00000077 	andeq	r0, r0, r7, ror r0
    47a8:	000a3f05 	andeq	r3, sl, r5, lsl #30
    47ac:	11800400 	orrne	r0, r0, r0, lsl #8
    47b0:	00000077 	andeq	r0, r0, r7, ror r0
    47b4:	00021e05 	andeq	r1, r2, r5, lsl #28
    47b8:	11810400 	orrne	r0, r1, r0, lsl #8
    47bc:	00000077 	andeq	r0, r0, r7, ror r0
    47c0:	00006b05 	andeq	r6, r0, r5, lsl #22
    47c4:	11870400 	orrne	r0, r7, r0, lsl #8
    47c8:	00000077 	andeq	r0, r0, r7, ror r0
    47cc:	00044205 	andeq	r4, r4, r5, lsl #4
    47d0:	118a0400 	orrne	r0, sl, r0, lsl #8
    47d4:	00000077 	andeq	r0, r0, r7, ror r0
    47d8:	0005a605 	andeq	sl, r5, r5, lsl #12
    47dc:	118d0400 	orrne	r0, sp, r0, lsl #8
    47e0:	00000077 	andeq	r0, r0, r7, ror r0
    47e4:	0005b605 	andeq	fp, r5, r5, lsl #12
    47e8:	11910400 	orrsne	r0, r1, r0, lsl #8
    47ec:	00000077 	andeq	r0, r0, r7, ror r0
    47f0:	00008905 	andeq	r8, r0, r5, lsl #18
    47f4:	11920400 	orrsne	r0, r2, r0, lsl #8
    47f8:	00000077 	andeq	r0, r0, r7, ror r0
    47fc:	00038305 	andeq	r8, r3, r5, lsl #6
    4800:	11930400 	orrsne	r0, r3, r0, lsl #8
    4804:	00000077 	andeq	r0, r0, r7, ror r0
    4808:	0005c705 	andeq	ip, r5, r5, lsl #14
    480c:	11940400 	orrsne	r0, r4, r0, lsl #8
    4810:	00000077 	andeq	r0, r0, r7, ror r0
    4814:	0009e805 	andeq	lr, r9, r5, lsl #16
    4818:	11960400 	orrsne	r0, r6, r0, lsl #8
    481c:	00000077 	andeq	r0, r0, r7, ror r0
    4820:	00045505 	andeq	r5, r4, r5, lsl #10
    4824:	11980400 	orrsne	r0, r8, r0, lsl #8
    4828:	00000077 	andeq	r0, r0, r7, ror r0
    482c:	00053505 	andeq	r3, r5, r5, lsl #10
    4830:	11990400 	orrsne	r0, r9, r0, lsl #8
    4834:	00000077 	andeq	r0, r0, r7, ror r0
    4838:	00076305 	andeq	r6, r7, r5, lsl #6
    483c:	119a0400 	orrsne	r0, sl, r0, lsl #8
    4840:	00000077 	andeq	r0, r0, r7, ror r0
    4844:	0008e105 	andeq	lr, r8, r5, lsl #2
    4848:	119b0400 	orrsne	r0, fp, r0, lsl #8
    484c:	00000077 	andeq	r0, r0, r7, ror r0
    4850:	0001f705 	andeq	pc, r1, r5, lsl #14
    4854:	119c0400 	orrsne	r0, ip, r0, lsl #8
    4858:	00000077 	andeq	r0, r0, r7, ror r0
    485c:	0008a505 	andeq	sl, r8, r5, lsl #10
    4860:	11a10400 			; <UNDEFINED> instruction: 0x11a10400
    4864:	00000077 	andeq	r0, r0, r7, ror r0
    4868:	00026205 	andeq	r6, r2, r5, lsl #4
    486c:	11a30400 			; <UNDEFINED> instruction: 0x11a30400
    4870:	00000077 	andeq	r0, r0, r7, ror r0
    4874:	00019805 	andeq	r9, r1, r5, lsl #16
    4878:	11a40400 			; <UNDEFINED> instruction: 0x11a40400
    487c:	00000077 	andeq	r0, r0, r7, ror r0
    4880:	00082805 	andeq	r2, r8, r5, lsl #16
    4884:	11a50400 			; <UNDEFINED> instruction: 0x11a50400
    4888:	00000077 	andeq	r0, r0, r7, ror r0
    488c:	0007c405 	andeq	ip, r7, r5, lsl #8
    4890:	11a60400 			; <UNDEFINED> instruction: 0x11a60400
    4894:	00000077 	andeq	r0, r0, r7, ror r0
    4898:	0002fb05 	andeq	pc, r2, r5, lsl #22
    489c:	11a80400 			; <UNDEFINED> instruction: 0x11a80400
    48a0:	00000077 	andeq	r0, r0, r7, ror r0
    48a4:	0000b905 	andeq	fp, r0, r5, lsl #18
    48a8:	11a90400 			; <UNDEFINED> instruction: 0x11a90400
    48ac:	00000077 	andeq	r0, r0, r7, ror r0
    48b0:	0007ec05 	andeq	lr, r7, r5, lsl #24
    48b4:	11aa0400 			; <UNDEFINED> instruction: 0x11aa0400
    48b8:	00000077 	andeq	r0, r0, r7, ror r0
    48bc:	00073c05 	andeq	r3, r7, r5, lsl #24
    48c0:	11ab0400 			; <UNDEFINED> instruction: 0x11ab0400
    48c4:	00000077 	andeq	r0, r0, r7, ror r0
    48c8:	00014205 	andeq	r4, r1, r5, lsl #4
    48cc:	11ad0400 			; <UNDEFINED> instruction: 0x11ad0400
    48d0:	00000077 	andeq	r0, r0, r7, ror r0
    48d4:	0007d905 	andeq	sp, r7, r5, lsl #18
    48d8:	11ae0400 			; <UNDEFINED> instruction: 0x11ae0400
    48dc:	00000077 	andeq	r0, r0, r7, ror r0
    48e0:	00041005 	andeq	r1, r4, r5
    48e4:	11b00400 	lslsne	r0, r0, #8
    48e8:	00000077 	andeq	r0, r0, r7, ror r0
    48ec:	0009d105 	andeq	sp, r9, r5, lsl #2
    48f0:	11b10400 			; <UNDEFINED> instruction: 0x11b10400
    48f4:	00000077 	andeq	r0, r0, r7, ror r0
    48f8:	0008ca05 	andeq	ip, r8, r5, lsl #20
    48fc:	11b20400 			; <UNDEFINED> instruction: 0x11b20400
    4900:	00000077 	andeq	r0, r0, r7, ror r0
    4904:	00088e05 	andeq	r8, r8, r5, lsl #28
    4908:	11b30400 			; <UNDEFINED> instruction: 0x11b30400
    490c:	00000077 	andeq	r0, r0, r7, ror r0
    4910:	00087705 	andeq	r7, r8, r5, lsl #14
    4914:	11b40400 			; <UNDEFINED> instruction: 0x11b40400
    4918:	00000077 	andeq	r0, r0, r7, ror r0
    491c:	000a2805 	andeq	r2, sl, r5, lsl #16
    4920:	11b60400 			; <UNDEFINED> instruction: 0x11b60400
    4924:	00000077 	andeq	r0, r0, r7, ror r0
    4928:	00046b05 	andeq	r6, r4, r5, lsl #22
    492c:	11b70400 			; <UNDEFINED> instruction: 0x11b70400
    4930:	00000077 	andeq	r0, r0, r7, ror r0
    4934:	0001ce05 	andeq	ip, r1, r5, lsl #28
    4938:	11b80400 			; <UNDEFINED> instruction: 0x11b80400
    493c:	00000077 	andeq	r0, r0, r7, ror r0
    4940:	00001d05 	andeq	r1, r0, r5, lsl #26
    4944:	11b90400 			; <UNDEFINED> instruction: 0x11b90400
    4948:	00000077 	andeq	r0, r0, r7, ror r0
    494c:	00003405 	andeq	r3, r0, r5, lsl #8
    4950:	11ba0400 			; <UNDEFINED> instruction: 0x11ba0400
    4954:	00000077 	andeq	r0, r0, r7, ror r0
    4958:	00033a05 	andeq	r3, r3, r5, lsl #20
    495c:	11bc0400 			; <UNDEFINED> instruction: 0x11bc0400
    4960:	00000077 	andeq	r0, r0, r7, ror r0
    4964:	0006fa05 	andeq	pc, r6, r5, lsl #20
    4968:	11bd0400 			; <UNDEFINED> instruction: 0x11bd0400
    496c:	00000077 	andeq	r0, r0, r7, ror r0
    4970:	0004c405 	andeq	ip, r4, r5, lsl #8
    4974:	11c20400 	bicne	r0, r2, r0, lsl #8
    4978:	00000077 	andeq	r0, r0, r7, ror r0
    497c:	00081005 	andeq	r1, r8, r5
    4980:	11c30400 	bicne	r0, r3, r0, lsl #8
    4984:	00000077 	andeq	r0, r0, r7, ror r0
    4988:	0003e605 	andeq	lr, r3, r5, lsl #12
    498c:	11c40400 	bicne	r0, r4, r0, lsl #8
    4990:	00000077 	andeq	r0, r0, r7, ror r0
    4994:	00146e06 	andseq	r6, r4, r6, lsl #28
    4998:	2f040100 	svccs	0x00040100
    499c:	70f40000 	rscsvc	r0, r4, r0
    49a0:	00000078 	andeq	r0, r0, r8, ror r0
    49a4:	69079c01 	stmdbvs	r7, {r0, sl, fp, ip, pc}
    49a8:	09060100 	stmdbeq	r6, {r8}
    49ac:	00000025 	andeq	r0, r0, r5, lsr #32
    49b0:	00749102 	rsbseq	r9, r4, r2, lsl #2
    49b4:	00061a00 	andeq	r1, r6, r0, lsl #20
    49b8:	a1000400 	tstge	r0, r0, lsl #8
    49bc:	0400000a 	streq	r0, [r0], #-10
    49c0:	00028701 	andeq	r8, r2, r1, lsl #14
    49c4:	14850c00 	strne	r0, [r5], #3072	; 0xc00
    49c8:	095f0000 	ldmdbeq	pc, {}^	; <UNPREDICTABLE>
    49cc:	01600000 	cmneq	r0, r0
    49d0:	00000000 	andeq	r0, r0, r0
    49d4:	118e0000 	orrne	r0, lr, r0
    49d8:	04020000 	streq	r0, [r2], #-0
    49dc:	746e6905 	strbtvc	r6, [lr], #-2309	; 0xfffff6fb
    49e0:	07040300 	streq	r0, [r4, -r0, lsl #6]
    49e4:	00000599 	muleq	r0, r9, r5
    49e8:	29060103 	stmdbcs	r6, {r0, r1, r8}
    49ec:	03000005 	movweq	r0, #5
    49f0:	05270801 	streq	r0, [r7, #-2049]!	; 0xfffff7ff
    49f4:	02030000 	andeq	r0, r3, #0
    49f8:	0000a705 	andeq	sl, r0, r5, lsl #14
    49fc:	07020300 	streq	r0, [r2, -r0, lsl #6]
    4a00:	000005fe 	strdeq	r0, [r0], -lr
    4a04:	9a050403 	bls	145a18 <__kernel_size__+0x1444e4>
    4a08:	04000003 	streq	r0, [r0], #-3
    4a0c:	00000164 	andeq	r0, r0, r4, ror #2
    4a10:	62194f02 	andsvs	r4, r9, #2, 30
    4a14:	03000000 	movweq	r0, #0
    4a18:	05940704 	ldreq	r0, [r4, #1796]	; 0x704
    4a1c:	08030000 	stmdaeq	r3, {}	; <UNPREDICTABLE>
    4a20:	00039505 	andeq	r9, r3, r5, lsl #10
    4a24:	07080300 	streq	r0, [r8, -r0, lsl #6]
    4a28:	0000058f 	andeq	r0, r0, pc, lsl #11
    4a2c:	00016604 	andeq	r6, r1, r4, lsl #12
    4a30:	14300300 	ldrtne	r0, [r0], #-768	; 0xfffffd00
    4a34:	00000056 	andeq	r0, r0, r6, asr r0
    4a38:	0006ea05 	andeq	lr, r6, r5, lsl #20
    4a3c:	11080400 	tstne	r8, r0, lsl #8
    4a40:	00000077 	andeq	r0, r0, r7, ror r0
    4a44:	00010905 	andeq	r0, r1, r5, lsl #18
    4a48:	11090400 	tstne	r9, r0, lsl #8
    4a4c:	00000077 	andeq	r0, r0, r7, ror r0
    4a50:	00012f05 	andeq	r2, r1, r5, lsl #30
    4a54:	110a0400 	tstne	sl, r0, lsl #8
    4a58:	00000077 	andeq	r0, r0, r7, ror r0
    4a5c:	00079d05 	andeq	r9, r7, r5, lsl #26
    4a60:	110b0400 	tstne	fp, r0, lsl #8
    4a64:	00000077 	andeq	r0, r0, r7, ror r0
    4a68:	00015505 	andeq	r5, r1, r5, lsl #10
    4a6c:	110d0400 	tstne	sp, r0, lsl #8
    4a70:	00000077 	andeq	r0, r0, r7, ror r0
    4a74:	0006c805 	andeq	ip, r6, r5, lsl #16
    4a78:	110e0400 	tstne	lr, r0, lsl #8
    4a7c:	00000077 	andeq	r0, r0, r7, ror r0
    4a80:	0002d905 	andeq	sp, r2, r5, lsl #18
    4a84:	110f0400 	tstne	pc, r0, lsl #8
    4a88:	00000077 	andeq	r0, r0, r7, ror r0
    4a8c:	00067605 	andeq	r7, r6, r5, lsl #12
    4a90:	11100400 	tstne	r0, r0, lsl #8
    4a94:	00000077 	andeq	r0, r0, r7, ror r0
    4a98:	0008f705 	andeq	pc, r8, r5, lsl #14
    4a9c:	11110400 	tstne	r1, r0, lsl #8
    4aa0:	00000077 	andeq	r0, r0, r7, ror r0
    4aa4:	00062705 	andeq	r2, r6, r5, lsl #14
    4aa8:	11120400 	tstne	r2, r0, lsl #8
    4aac:	00000077 	andeq	r0, r0, r7, ror r0
    4ab0:	00023605 	andeq	r3, r2, r5, lsl #12
    4ab4:	11140400 	tstne	r4, r0, lsl #8
    4ab8:	00000077 	andeq	r0, r0, r7, ror r0
    4abc:	00051505 	andeq	r1, r5, r5, lsl #10
    4ac0:	11150400 	tstne	r5, r0, lsl #8
    4ac4:	00000077 	andeq	r0, r0, r7, ror r0
    4ac8:	00057d05 	andeq	r7, r5, r5, lsl #26
    4acc:	11160400 	tstne	r6, r0, lsl #8
    4ad0:	00000077 	andeq	r0, r0, r7, ror r0
    4ad4:	0002db05 	andeq	sp, r2, r5, lsl #22
    4ad8:	111b0400 	tstne	fp, r0, lsl #8
    4adc:	00000077 	andeq	r0, r0, r7, ror r0
    4ae0:	00004b05 	andeq	r4, r0, r5, lsl #22
    4ae4:	11200400 			; <UNDEFINED> instruction: 0x11200400
    4ae8:	00000077 	andeq	r0, r0, r7, ror r0
    4aec:	0004ac05 	andeq	sl, r4, r5, lsl #24
    4af0:	11220400 			; <UNDEFINED> instruction: 0x11220400
    4af4:	00000077 	andeq	r0, r0, r7, ror r0
    4af8:	00036e05 	andeq	r6, r3, r5, lsl #28
    4afc:	11240400 			; <UNDEFINED> instruction: 0x11240400
    4b00:	00000077 	andeq	r0, r0, r7, ror r0
    4b04:	00069c05 	andeq	r9, r6, r5, lsl #24
    4b08:	11270400 			; <UNDEFINED> instruction: 0x11270400
    4b0c:	00000077 	andeq	r0, r0, r7, ror r0
    4b10:	00032405 	andeq	r2, r3, r5, lsl #8
    4b14:	11280400 			; <UNDEFINED> instruction: 0x11280400
    4b18:	00000077 	andeq	r0, r0, r7, ror r0
    4b1c:	00093105 	andeq	r3, r9, r5, lsl #2
    4b20:	11290400 			; <UNDEFINED> instruction: 0x11290400
    4b24:	00000077 	andeq	r0, r0, r7, ror r0
    4b28:	00035505 	andeq	r5, r3, r5, lsl #10
    4b2c:	112a0400 			; <UNDEFINED> instruction: 0x112a0400
    4b30:	00000077 	andeq	r0, r0, r7, ror r0
    4b34:	00007705 	andeq	r7, r0, r5, lsl #14
    4b38:	112c0400 			; <UNDEFINED> instruction: 0x112c0400
    4b3c:	00000077 	andeq	r0, r0, r7, ror r0
    4b40:	0008b405 	andeq	fp, r8, r5, lsl #8
    4b44:	112e0400 			; <UNDEFINED> instruction: 0x112e0400
    4b48:	00000077 	andeq	r0, r0, r7, ror r0
    4b4c:	0009a605 	andeq	sl, r9, r5, lsl #12
    4b50:	112f0400 			; <UNDEFINED> instruction: 0x112f0400
    4b54:	00000077 	andeq	r0, r0, r7, ror r0
    4b58:	0003d005 	andeq	sp, r3, r5
    4b5c:	11300400 	teqne	r0, r0, lsl #8
    4b60:	00000077 	andeq	r0, r0, r7, ror r0
    4b64:	0003a305 	andeq	sl, r3, r5, lsl #6
    4b68:	11310400 	teqne	r1, r0, lsl #8
    4b6c:	00000077 	andeq	r0, r0, r7, ror r0
    4b70:	0006b205 	andeq	fp, r6, r5, lsl #4
    4b74:	11320400 	teqne	r2, r0, lsl #8
    4b78:	00000077 	andeq	r0, r0, r7, ror r0
    4b7c:	00000805 	andeq	r0, r0, r5, lsl #16
    4b80:	11360400 	teqne	r6, r0, lsl #8
    4b84:	00000077 	andeq	r0, r0, r7, ror r0
    4b88:	00049405 	andeq	r9, r4, r5, lsl #8
    4b8c:	11370400 	teqne	r7, r0, lsl #8
    4b90:	00000077 	andeq	r0, r0, r7, ror r0
    4b94:	0007ac05 	andeq	sl, r7, r5, lsl #24
    4b98:	11380400 	teqne	r8, r0, lsl #8
    4b9c:	00000077 	andeq	r0, r0, r7, ror r0
    4ba0:	00005c05 	andeq	r5, r0, r5, lsl #24
    4ba4:	113c0400 	teqne	ip, r0, lsl #8
    4ba8:	00000077 	andeq	r0, r0, r7, ror r0
    4bac:	00072a05 	andeq	r2, r7, r5, lsl #20
    4bb0:	113e0400 	teqne	lr, r0, lsl #8
    4bb4:	00000077 	andeq	r0, r0, r7, ror r0
    4bb8:	00063605 	andeq	r3, r6, r5, lsl #12
    4bbc:	113f0400 	teqne	pc, r0, lsl #8
    4bc0:	00000077 	andeq	r0, r0, r7, ror r0
    4bc4:	00027405 	andeq	r7, r2, r5, lsl #8
    4bc8:	11400400 	cmpne	r0, r0, lsl #8
    4bcc:	00000077 	andeq	r0, r0, r7, ror r0
    4bd0:	00011a05 	andeq	r1, r1, r5, lsl #20
    4bd4:	11410400 	cmpne	r1, r0, lsl #8
    4bd8:	00000077 	andeq	r0, r0, r7, ror r0
    4bdc:	00075105 	andeq	r5, r7, r5, lsl #2
    4be0:	11430400 	cmpne	r3, r0, lsl #8
    4be4:	00000077 	andeq	r0, r0, r7, ror r0
    4be8:	0001bc05 	andeq	fp, r1, r5, lsl #24
    4bec:	11440400 	cmpne	r4, r0, lsl #8
    4bf0:	00000077 	andeq	r0, r0, r7, ror r0
    4bf4:	00091e05 	andeq	r1, r9, r5, lsl #28
    4bf8:	11450400 	cmpne	r5, r0, lsl #8
    4bfc:	00000077 	andeq	r0, r0, r7, ror r0
    4c00:	00078805 	andeq	r8, r7, r5, lsl #16
    4c04:	11460400 	cmpne	r6, r0, lsl #8
    4c08:	00000077 	andeq	r0, r0, r7, ror r0
    4c0c:	0002e805 	andeq	lr, r2, r5, lsl #16
    4c10:	11480400 	cmpne	r8, r0, lsl #8
    4c14:	00000077 	andeq	r0, r0, r7, ror r0
    4c18:	0006d705 	andeq	sp, r6, r5, lsl #14
    4c1c:	11490400 	cmpne	r9, r0, lsl #8
    4c20:	00000077 	andeq	r0, r0, r7, ror r0
    4c24:	00084b05 	andeq	r4, r8, r5, lsl #22
    4c28:	114b0400 	cmpne	fp, r0, lsl #8
    4c2c:	00000077 	andeq	r0, r0, r7, ror r0
    4c30:	00094805 	andeq	r4, r9, r5, lsl #16
    4c34:	114c0400 	cmpne	ip, r0, lsl #8
    4c38:	00000077 	andeq	r0, r0, r7, ror r0
    4c3c:	0003b905 	andeq	fp, r3, r5, lsl #18
    4c40:	114d0400 	cmpne	sp, r0, lsl #8
    4c44:	00000077 	andeq	r0, r0, r7, ror r0
    4c48:	00030d05 	andeq	r0, r3, r5, lsl #26
    4c4c:	114e0400 	cmpne	lr, r0, lsl #8
    4c50:	00000077 	andeq	r0, r0, r7, ror r0
    4c54:	00065f05 	andeq	r5, r6, r5, lsl #30
    4c58:	114f0400 	cmpne	pc, r0, lsl #8
    4c5c:	00000077 	andeq	r0, r0, r7, ror r0
    4c60:	00064805 	andeq	r4, r6, r5, lsl #16
    4c64:	11510400 	cmpne	r1, r0, lsl #8
    4c68:	00000077 	andeq	r0, r0, r7, ror r0
    4c6c:	00024b05 	andeq	r4, r2, r5, lsl #22
    4c70:	11520400 	cmpne	r2, r0, lsl #8
    4c74:	00000077 	andeq	r0, r0, r7, ror r0
    4c78:	00068505 	andeq	r8, r6, r5, lsl #10
    4c7c:	11530400 	cmpne	r3, r0, lsl #8
    4c80:	00000077 	andeq	r0, r0, r7, ror r0
    4c84:	00016f05 	andeq	r6, r1, r5, lsl #30
    4c88:	11540400 	cmpne	r4, r0, lsl #8
    4c8c:	00000077 	andeq	r0, r0, r7, ror r0
    4c90:	00054b05 	andeq	r4, r5, r5, lsl #22
    4c94:	11550400 	cmpne	r5, r0, lsl #8
    4c98:	00000077 	andeq	r0, r0, r7, ror r0
    4c9c:	00056205 	andeq	r6, r5, r5, lsl #4
    4ca0:	11570400 	cmpne	r7, r0, lsl #8
    4ca4:	00000077 	andeq	r0, r0, r7, ror r0
    4ca8:	0009fa05 	andeq	pc, r9, r5, lsl #20
    4cac:	11580400 	cmpne	r8, r0, lsl #8
    4cb0:	00000077 	andeq	r0, r0, r7, ror r0
    4cb4:	0007ff05 	andeq	pc, r7, r5, lsl #30
    4cb8:	115c0400 	cmpne	ip, r0, lsl #8
    4cbc:	00000077 	andeq	r0, r0, r7, ror r0
    4cc0:	00083b05 	andeq	r3, r8, r5, lsl #22
    4cc4:	115d0400 	cmpne	sp, r0, lsl #8
    4cc8:	00000077 	andeq	r0, r0, r7, ror r0
    4ccc:	00020d05 	andeq	r0, r2, r5, lsl #26
    4cd0:	115f0400 	cmpne	pc, r0, lsl #8
    4cd4:	00000077 	andeq	r0, r0, r7, ror r0
    4cd8:	0000e105 	andeq	lr, r0, r5, lsl #2
    4cdc:	11600400 	cmnne	r0, r0, lsl #8
    4ce0:	00000077 	andeq	r0, r0, r7, ror r0
    4ce4:	0001aa05 	andeq	sl, r1, r5, lsl #20
    4ce8:	11620400 	cmnne	r2, r0, lsl #8
    4cec:	00000077 	andeq	r0, r0, r7, ror r0
    4cf0:	0004d405 	andeq	sp, r4, r5, lsl #8
    4cf4:	11630400 	cmnne	r3, r0, lsl #8
    4cf8:	00000077 	andeq	r0, r0, r7, ror r0
    4cfc:	0000f505 	andeq	pc, r0, r5, lsl #10
    4d00:	11650400 	cmnne	r5, r0, lsl #8
    4d04:	00000077 	andeq	r0, r0, r7, ror r0
    4d08:	0004e905 	andeq	lr, r4, r5, lsl #18
    4d0c:	11660400 	cmnne	r6, r0, lsl #8
    4d10:	00000077 	andeq	r0, r0, r7, ror r0
    4d14:	00077905 	andeq	r7, r7, r5, lsl #18
    4d18:	11680400 	cmnne	r8, r0, lsl #8
    4d1c:	00000077 	andeq	r0, r0, r7, ror r0
    4d20:	0005db05 	andeq	sp, r5, r5, lsl #22
    4d24:	11690400 	cmnne	r9, r0, lsl #8
    4d28:	00000077 	andeq	r0, r0, r7, ror r0
    4d2c:	00048205 	andeq	r8, r4, r5, lsl #4
    4d30:	116b0400 	cmnne	fp, r0, lsl #8
    4d34:	00000077 	andeq	r0, r0, r7, ror r0
    4d38:	00086205 	andeq	r6, r8, r5, lsl #4
    4d3c:	116c0400 	cmnne	ip, r0, lsl #8
    4d40:	00000077 	andeq	r0, r0, r7, ror r0
    4d44:	00018605 	andeq	r8, r1, r5, lsl #12
    4d48:	116e0400 	cmnne	lr, r0, lsl #8
    4d4c:	00000077 	andeq	r0, r0, r7, ror r0
    4d50:	00050005 	andeq	r0, r5, r5
    4d54:	116f0400 	cmnne	pc, r0, lsl #8
    4d58:	00000077 	andeq	r0, r0, r7, ror r0
    4d5c:	000a1505 	andeq	r1, sl, r5, lsl #10
    4d60:	11710400 	cmnne	r1, r0, lsl #8
    4d64:	00000077 	andeq	r0, r0, r7, ror r0
    4d68:	00061105 	andeq	r1, r6, r5, lsl #2
    4d6c:	11720400 	cmnne	r2, r0, lsl #8
    4d70:	00000077 	andeq	r0, r0, r7, ror r0
    4d74:	0009bc05 	andeq	fp, r9, r5, lsl #24
    4d78:	11740400 	cmnne	r4, r0, lsl #8
    4d7c:	00000077 	andeq	r0, r0, r7, ror r0
    4d80:	00090605 	andeq	r0, r9, r5, lsl #12
    4d84:	11750400 	cmnne	r5, r0, lsl #8
    4d88:	00000077 	andeq	r0, r0, r7, ror r0
    4d8c:	0001e505 	andeq	lr, r1, r5, lsl #10
    4d90:	11770400 	cmnne	r7, r0, lsl #8
    4d94:	00000077 	andeq	r0, r0, r7, ror r0
    4d98:	00071505 	andeq	r1, r7, r5, lsl #10
    4d9c:	11780400 	cmnne	r8, r0, lsl #8
    4da0:	00000077 	andeq	r0, r0, r7, ror r0
    4da4:	0003fe05 	andeq	pc, r3, r5, lsl #28
    4da8:	117a0400 	cmnne	sl, r0, lsl #8
    4dac:	00000077 	andeq	r0, r0, r7, ror r0
    4db0:	0005e905 	andeq	lr, r5, r5, lsl #18
    4db4:	117b0400 	cmnne	fp, r0, lsl #8
    4db8:	00000077 	andeq	r0, r0, r7, ror r0
    4dbc:	00042705 	andeq	r2, r4, r5, lsl #14
    4dc0:	117d0400 	cmnne	sp, r0, lsl #8
    4dc4:	00000077 	andeq	r0, r0, r7, ror r0
    4dc8:	0000cb05 	andeq	ip, r0, r5, lsl #22
    4dcc:	117e0400 	cmnne	lr, r0, lsl #8
    4dd0:	00000077 	andeq	r0, r0, r7, ror r0
    4dd4:	000a3f05 	andeq	r3, sl, r5, lsl #30
    4dd8:	11800400 	orrne	r0, r0, r0, lsl #8
    4ddc:	00000077 	andeq	r0, r0, r7, ror r0
    4de0:	00021e05 	andeq	r1, r2, r5, lsl #28
    4de4:	11810400 	orrne	r0, r1, r0, lsl #8
    4de8:	00000077 	andeq	r0, r0, r7, ror r0
    4dec:	00006b05 	andeq	r6, r0, r5, lsl #22
    4df0:	11870400 	orrne	r0, r7, r0, lsl #8
    4df4:	00000077 	andeq	r0, r0, r7, ror r0
    4df8:	00044205 	andeq	r4, r4, r5, lsl #4
    4dfc:	118a0400 	orrne	r0, sl, r0, lsl #8
    4e00:	00000077 	andeq	r0, r0, r7, ror r0
    4e04:	0005a605 	andeq	sl, r5, r5, lsl #12
    4e08:	118d0400 	orrne	r0, sp, r0, lsl #8
    4e0c:	00000077 	andeq	r0, r0, r7, ror r0
    4e10:	0005b605 	andeq	fp, r5, r5, lsl #12
    4e14:	11910400 	orrsne	r0, r1, r0, lsl #8
    4e18:	00000077 	andeq	r0, r0, r7, ror r0
    4e1c:	00008905 	andeq	r8, r0, r5, lsl #18
    4e20:	11920400 	orrsne	r0, r2, r0, lsl #8
    4e24:	00000077 	andeq	r0, r0, r7, ror r0
    4e28:	00038305 	andeq	r8, r3, r5, lsl #6
    4e2c:	11930400 	orrsne	r0, r3, r0, lsl #8
    4e30:	00000077 	andeq	r0, r0, r7, ror r0
    4e34:	0005c705 	andeq	ip, r5, r5, lsl #14
    4e38:	11940400 	orrsne	r0, r4, r0, lsl #8
    4e3c:	00000077 	andeq	r0, r0, r7, ror r0
    4e40:	0009e805 	andeq	lr, r9, r5, lsl #16
    4e44:	11960400 	orrsne	r0, r6, r0, lsl #8
    4e48:	00000077 	andeq	r0, r0, r7, ror r0
    4e4c:	00045505 	andeq	r5, r4, r5, lsl #10
    4e50:	11980400 	orrsne	r0, r8, r0, lsl #8
    4e54:	00000077 	andeq	r0, r0, r7, ror r0
    4e58:	00053505 	andeq	r3, r5, r5, lsl #10
    4e5c:	11990400 	orrsne	r0, r9, r0, lsl #8
    4e60:	00000077 	andeq	r0, r0, r7, ror r0
    4e64:	00076305 	andeq	r6, r7, r5, lsl #6
    4e68:	119a0400 	orrsne	r0, sl, r0, lsl #8
    4e6c:	00000077 	andeq	r0, r0, r7, ror r0
    4e70:	0008e105 	andeq	lr, r8, r5, lsl #2
    4e74:	119b0400 	orrsne	r0, fp, r0, lsl #8
    4e78:	00000077 	andeq	r0, r0, r7, ror r0
    4e7c:	0001f705 	andeq	pc, r1, r5, lsl #14
    4e80:	119c0400 	orrsne	r0, ip, r0, lsl #8
    4e84:	00000077 	andeq	r0, r0, r7, ror r0
    4e88:	0008a505 	andeq	sl, r8, r5, lsl #10
    4e8c:	11a10400 			; <UNDEFINED> instruction: 0x11a10400
    4e90:	00000077 	andeq	r0, r0, r7, ror r0
    4e94:	00026205 	andeq	r6, r2, r5, lsl #4
    4e98:	11a30400 			; <UNDEFINED> instruction: 0x11a30400
    4e9c:	00000077 	andeq	r0, r0, r7, ror r0
    4ea0:	00019805 	andeq	r9, r1, r5, lsl #16
    4ea4:	11a40400 			; <UNDEFINED> instruction: 0x11a40400
    4ea8:	00000077 	andeq	r0, r0, r7, ror r0
    4eac:	00082805 	andeq	r2, r8, r5, lsl #16
    4eb0:	11a50400 			; <UNDEFINED> instruction: 0x11a50400
    4eb4:	00000077 	andeq	r0, r0, r7, ror r0
    4eb8:	0007c405 	andeq	ip, r7, r5, lsl #8
    4ebc:	11a60400 			; <UNDEFINED> instruction: 0x11a60400
    4ec0:	00000077 	andeq	r0, r0, r7, ror r0
    4ec4:	0002fb05 	andeq	pc, r2, r5, lsl #22
    4ec8:	11a80400 			; <UNDEFINED> instruction: 0x11a80400
    4ecc:	00000077 	andeq	r0, r0, r7, ror r0
    4ed0:	0000b905 	andeq	fp, r0, r5, lsl #18
    4ed4:	11a90400 			; <UNDEFINED> instruction: 0x11a90400
    4ed8:	00000077 	andeq	r0, r0, r7, ror r0
    4edc:	0007ec05 	andeq	lr, r7, r5, lsl #24
    4ee0:	11aa0400 			; <UNDEFINED> instruction: 0x11aa0400
    4ee4:	00000077 	andeq	r0, r0, r7, ror r0
    4ee8:	00073c05 	andeq	r3, r7, r5, lsl #24
    4eec:	11ab0400 			; <UNDEFINED> instruction: 0x11ab0400
    4ef0:	00000077 	andeq	r0, r0, r7, ror r0
    4ef4:	00014205 	andeq	r4, r1, r5, lsl #4
    4ef8:	11ad0400 			; <UNDEFINED> instruction: 0x11ad0400
    4efc:	00000077 	andeq	r0, r0, r7, ror r0
    4f00:	0007d905 	andeq	sp, r7, r5, lsl #18
    4f04:	11ae0400 			; <UNDEFINED> instruction: 0x11ae0400
    4f08:	00000077 	andeq	r0, r0, r7, ror r0
    4f0c:	00041005 	andeq	r1, r4, r5
    4f10:	11b00400 	lslsne	r0, r0, #8
    4f14:	00000077 	andeq	r0, r0, r7, ror r0
    4f18:	0009d105 	andeq	sp, r9, r5, lsl #2
    4f1c:	11b10400 			; <UNDEFINED> instruction: 0x11b10400
    4f20:	00000077 	andeq	r0, r0, r7, ror r0
    4f24:	0008ca05 	andeq	ip, r8, r5, lsl #20
    4f28:	11b20400 			; <UNDEFINED> instruction: 0x11b20400
    4f2c:	00000077 	andeq	r0, r0, r7, ror r0
    4f30:	00088e05 	andeq	r8, r8, r5, lsl #28
    4f34:	11b30400 			; <UNDEFINED> instruction: 0x11b30400
    4f38:	00000077 	andeq	r0, r0, r7, ror r0
    4f3c:	00087705 	andeq	r7, r8, r5, lsl #14
    4f40:	11b40400 			; <UNDEFINED> instruction: 0x11b40400
    4f44:	00000077 	andeq	r0, r0, r7, ror r0
    4f48:	000a2805 	andeq	r2, sl, r5, lsl #16
    4f4c:	11b60400 			; <UNDEFINED> instruction: 0x11b60400
    4f50:	00000077 	andeq	r0, r0, r7, ror r0
    4f54:	00046b05 	andeq	r6, r4, r5, lsl #22
    4f58:	11b70400 			; <UNDEFINED> instruction: 0x11b70400
    4f5c:	00000077 	andeq	r0, r0, r7, ror r0
    4f60:	0001ce05 	andeq	ip, r1, r5, lsl #28
    4f64:	11b80400 			; <UNDEFINED> instruction: 0x11b80400
    4f68:	00000077 	andeq	r0, r0, r7, ror r0
    4f6c:	00001d05 	andeq	r1, r0, r5, lsl #26
    4f70:	11b90400 			; <UNDEFINED> instruction: 0x11b90400
    4f74:	00000077 	andeq	r0, r0, r7, ror r0
    4f78:	00003405 	andeq	r3, r0, r5, lsl #8
    4f7c:	11ba0400 			; <UNDEFINED> instruction: 0x11ba0400
    4f80:	00000077 	andeq	r0, r0, r7, ror r0
    4f84:	00033a05 	andeq	r3, r3, r5, lsl #20
    4f88:	11bc0400 			; <UNDEFINED> instruction: 0x11bc0400
    4f8c:	00000077 	andeq	r0, r0, r7, ror r0
    4f90:	0006fa05 	andeq	pc, r6, r5, lsl #20
    4f94:	11bd0400 			; <UNDEFINED> instruction: 0x11bd0400
    4f98:	00000077 	andeq	r0, r0, r7, ror r0
    4f9c:	0004c405 	andeq	ip, r4, r5, lsl #8
    4fa0:	11c20400 	bicne	r0, r2, r0, lsl #8
    4fa4:	00000077 	andeq	r0, r0, r7, ror r0
    4fa8:	00081005 	andeq	r1, r8, r5
    4fac:	11c30400 	bicne	r0, r3, r0, lsl #8
    4fb0:	00000077 	andeq	r0, r0, r7, ror r0
    4fb4:	0003e605 	andeq	lr, r3, r5, lsl #12
    4fb8:	11c40400 	bicne	r0, r4, r0, lsl #8
    4fbc:	00000077 	andeq	r0, r0, r7, ror r0
    4fc0:	00147806 	andseq	r7, r4, r6, lsl #16
    4fc4:	2d030100 	stfcss	f0, [r3, #-0]
    4fc8:	70034000 	andvc	r4, r3, r0
    4fcc:	00000010 	andeq	r0, r0, r0, lsl r0
    4fd0:	Address 0x0000000000004fd0 is out of bounds.


Disassembly of section .debug_abbrev:

00000000 <.debug_abbrev>:
   0:	25011101 	strcs	r1, [r1, #-257]	; 0xfffffeff
   4:	030b130e 	movweq	r1, #45838	; 0xb30e
   8:	550e1b0e 	strpl	r1, [lr, #-2830]	; 0xfffff4f2
   c:	10011117 	andne	r1, r1, r7, lsl r1
  10:	02000017 	andeq	r0, r0, #23
  14:	0b0b0024 	bleq	2c00ac <__kernel_size__+0x2beb78>
  18:	08030b3e 	stmdaeq	r3, {r1, r2, r3, r4, r5, r8, r9, fp}
  1c:	24030000 	strcs	r0, [r3], #-0
  20:	3e0b0b00 	vmlacc.f64	d0, d11, d0
  24:	000e030b 	andeq	r0, lr, fp, lsl #6
  28:	00160400 	andseq	r0, r6, r0, lsl #8
  2c:	0b3a0e03 	bleq	e83840 <__kernel_size__+0xe8230c>
  30:	0b390b3b 	bleq	e42d24 <__kernel_size__+0xe417f0>
  34:	00001349 	andeq	r1, r0, r9, asr #6
  38:	03003405 	movweq	r3, #1029	; 0x405
  3c:	3b0b3a0e 	blcc	2ce87c <__kernel_size__+0x2cd348>
  40:	490b390b 	stmdbmi	fp, {r0, r1, r3, r8, fp, ip, sp}
  44:	3c193f13 	ldccc	15, cr3, [r9], {19}
  48:	06000019 			; <UNDEFINED> instruction: 0x06000019
  4c:	193f002e 	ldmdbne	pc!, {r1, r2, r3, r5}	; <UNPREDICTABLE>
  50:	0b3a0e03 	bleq	e83864 <__kernel_size__+0xe82330>
  54:	0b390b3b 	bleq	e42d48 <__kernel_size__+0xe41814>
  58:	01111927 	tsteq	r1, r7, lsr #18
  5c:	18400612 	stmdane	r0, {r1, r4, r9, sl}^
  60:	00194296 	mulseq	r9, r6, r2
  64:	012e0700 			; <UNDEFINED> instruction: 0x012e0700
  68:	0e03193f 			; <UNDEFINED> instruction: 0x0e03193f
  6c:	0b3b0b3a 	bleq	ec2d5c <__kernel_size__+0xec1828>
  70:	19270b39 	stmdbne	r7!, {r0, r3, r4, r5, r8, r9, fp}
  74:	06120111 			; <UNDEFINED> instruction: 0x06120111
  78:	42971840 	addsmi	r1, r7, #64, 16	; 0x400000
  7c:	00130119 	andseq	r0, r3, r9, lsl r1
  80:	00050800 	andeq	r0, r5, r0, lsl #16
  84:	0b3a0e03 	bleq	e83898 <__kernel_size__+0xe82364>
  88:	0b390b3b 	bleq	e42d7c <__kernel_size__+0xe41848>
  8c:	18021349 	stmdane	r2, {r0, r3, r6, r8, r9, ip}
  90:	34090000 	strcc	r0, [r9], #-0
  94:	3a080300 	bcc	200c9c <__kernel_size__+0x1ff768>
  98:	390b3b0b 	stmdbcc	fp, {r0, r1, r3, r8, r9, fp, ip, sp}
  9c:	0213490b 	andseq	r4, r3, #180224	; 0x2c000
  a0:	0a000018 	beq	108 <TASK_1_STACK_SIZE+0x8>
  a4:	0b0b000f 	bleq	2c00e8 <__kernel_size__+0x2bebb4>
  a8:	00001349 	andeq	r1, r0, r9, asr #6
  ac:	01110100 	tsteq	r1, r0, lsl #2
  b0:	0b130e25 	bleq	4c394c <__kernel_size__+0x4c2418>
  b4:	0e1b0e03 	cdpeq	14, 1, cr0, cr11, cr3, {0}
  b8:	01111755 	tsteq	r1, r5, asr r7
  bc:	00001710 	andeq	r1, r0, r0, lsl r7
  c0:	0b002402 	bleq	90d0 <__kernel_size__+0x7b9c>
  c4:	030b3e0b 	movweq	r3, #48651	; 0xbe0b
  c8:	0300000e 	movweq	r0, #14
  cc:	0e030016 	mcreq	0, 0, r0, cr3, cr6, {0}
  d0:	0b3b0b3a 	bleq	ec2dc0 <__kernel_size__+0xec188c>
  d4:	13490b39 	movtne	r0, #39737	; 0x9b39
  d8:	24040000 	strcs	r0, [r4], #-0
  dc:	3e0b0b00 	vmlacc.f64	d0, d11, d0
  e0:	0008030b 	andeq	r0, r8, fp, lsl #6
  e4:	01040500 	tsteq	r4, r0, lsl #10
  e8:	0b0b0b3e 	bleq	2c2de8 <__kernel_size__+0x2c18b4>
  ec:	0b3a1349 	bleq	e84e18 <__kernel_size__+0xe838e4>
  f0:	0b390b3b 	bleq	e42de4 <__kernel_size__+0xe418b0>
  f4:	00001301 	andeq	r1, r0, r1, lsl #6
  f8:	03002806 	movweq	r2, #2054	; 0x806
  fc:	000b1c0e 	andeq	r1, fp, lr, lsl #24
 100:	01130700 	tsteq	r3, r0, lsl #14
 104:	0b3a0b0b 	bleq	e82d38 <__kernel_size__+0xe81804>
 108:	0b390b3b 	bleq	e42dfc <__kernel_size__+0xe418c8>
 10c:	00001301 	andeq	r1, r0, r1, lsl #6
 110:	03000d08 	movweq	r0, #3336	; 0xd08
 114:	3b0b3a0e 	blcc	2ce954 <__kernel_size__+0x2cd420>
 118:	490b390b 	stmdbmi	fp, {r0, r1, r3, r8, fp, ip, sp}
 11c:	0d0b0b13 	vstreq	d0, [fp, #-76]	; 0xffffffb4
 120:	380b0c0b 	stmdacc	fp, {r0, r1, r3, sl, fp}
 124:	0900000b 	stmdbeq	r0, {r0, r1, r3}
 128:	0b0b0117 	bleq	2c058c <__kernel_size__+0x2bf058>
 12c:	0b3b0b3a 	bleq	ec2e1c <__kernel_size__+0xec18e8>
 130:	13010b39 	movwne	r0, #6969	; 0x1b39
 134:	0d0a0000 	stceq	0, cr0, [sl, #-0]
 138:	3a0e0300 	bcc	380d40 <__kernel_size__+0x37f80c>
 13c:	390b3b0b 	stmdbcc	fp, {r0, r1, r3, r8, r9, fp, ip, sp}
 140:	0013490b 	andseq	r4, r3, fp, lsl #18
 144:	000d0b00 	andeq	r0, sp, r0, lsl #22
 148:	00001349 	andeq	r1, r0, r9, asr #6
 14c:	03000d0c 	movweq	r0, #3340	; 0xd0c
 150:	3b0b3a08 	blcc	2ce978 <__kernel_size__+0x2cd444>
 154:	490b3905 	stmdbmi	fp, {r0, r2, r8, fp, ip, sp}
 158:	0d0b0b13 	vstreq	d0, [fp, #-76]	; 0xffffffb4
 15c:	380b0c0b 	stmdacc	fp, {r0, r1, r3, sl, fp}
 160:	0d00000b 	stceq	0, cr0, [r0, #-44]	; 0xffffffd4
 164:	0e03000d 	cdpeq	0, 0, cr0, cr3, cr13, {0}
 168:	053b0b3a 	ldreq	r0, [fp, #-2874]!	; 0xfffff4c6
 16c:	13490b39 	movtne	r0, #39737	; 0x9b39
 170:	0b0d0b0b 	bleq	342da4 <__kernel_size__+0x341870>
 174:	0b380b0c 	bleq	e02dac <__kernel_size__+0xe01878>
 178:	160e0000 	strne	r0, [lr], -r0
 17c:	3a0e0300 	bcc	380d84 <__kernel_size__+0x37f850>
 180:	39053b0b 	stmdbcc	r5, {r0, r1, r3, r8, r9, fp, ip, sp}
 184:	0013490b 	andseq	r4, r3, fp, lsl #18
 188:	01130f00 	tsteq	r3, r0, lsl #30
 18c:	0b3a0b0b 	bleq	e82dc0 <__kernel_size__+0xe8188c>
 190:	0b39053b 	bleq	e41684 <__kernel_size__+0xe40150>
 194:	00001301 	andeq	r1, r0, r1, lsl #6
 198:	0b011710 	bleq	45de0 <__kernel_size__+0x448ac>
 19c:	3b0b3a0b 	blcc	2ce9d0 <__kernel_size__+0x2cd49c>
 1a0:	010b3905 	tsteq	fp, r5, lsl #18
 1a4:	11000013 	tstne	r0, r3, lsl r0
 1a8:	0e03000d 	cdpeq	0, 0, cr0, cr3, cr13, {0}
 1ac:	053b0b3a 	ldreq	r0, [fp, #-2874]!	; 0xfffff4c6
 1b0:	13490b39 	movtne	r0, #39737	; 0x9b39
 1b4:	2e120000 	cdpcs	0, 1, cr0, cr2, cr0, {0}
 1b8:	03193f00 	tsteq	r9, #0, 30
 1bc:	3b0b3a0e 	blcc	2ce9fc <__kernel_size__+0x2cd4c8>
 1c0:	270b3905 	strcs	r3, [fp, -r5, lsl #18]
 1c4:	12011119 	andne	r1, r1, #1073741830	; 0x40000006
 1c8:	97184006 	ldrls	r4, [r8, -r6]
 1cc:	00001942 	andeq	r1, r0, r2, asr #18
 1d0:	3f012e13 	svccc	0x00012e13
 1d4:	3a0e0319 	bcc	380e40 <__kernel_size__+0x37f90c>
 1d8:	39053b0b 	stmdbcc	r5, {r0, r1, r3, r8, r9, fp, ip, sp}
 1dc:	1119270b 	tstne	r9, fp, lsl #14
 1e0:	40061201 	andmi	r1, r6, r1, lsl #4
 1e4:	19429618 	stmdbne	r2, {r3, r4, r9, sl, ip, pc}^
 1e8:	00001301 	andeq	r1, r0, r1, lsl #6
 1ec:	03000514 	movweq	r0, #1300	; 0x514
 1f0:	3b0b3a0e 	blcc	2cea30 <__kernel_size__+0x2cd4fc>
 1f4:	490b3905 	stmdbmi	fp, {r0, r2, r8, fp, ip, sp}
 1f8:	00180213 	andseq	r0, r8, r3, lsl r2
 1fc:	00341500 	eorseq	r1, r4, r0, lsl #10
 200:	0b3a0e03 	bleq	e83a14 <__kernel_size__+0xe824e0>
 204:	0b39053b 	bleq	e416f8 <__kernel_size__+0xe401c4>
 208:	18021349 	stmdane	r2, {r0, r3, r6, r8, r9, ip}
 20c:	05160000 	ldreq	r0, [r6, #-0]
 210:	3a080300 	bcc	200e18 <__kernel_size__+0x1ff8e4>
 214:	39053b0b 	stmdbcc	r5, {r0, r1, r3, r8, r9, fp, ip, sp}
 218:	0213490b 	andseq	r4, r3, #180224	; 0x2c000
 21c:	17000018 	smladne	r0, r8, r0, r0
 220:	193f012e 	ldmdbne	pc!, {r1, r2, r3, r5, r8}	; <UNPREDICTABLE>
 224:	0b3a0e03 	bleq	e83a38 <__kernel_size__+0xe82504>
 228:	0b390b3b 	bleq	e42f1c <__kernel_size__+0xe419e8>
 22c:	01111927 	tsteq	r1, r7, lsr #18
 230:	18400612 	stmdane	r0, {r1, r4, r9, sl}^
 234:	01194296 			; <UNDEFINED> instruction: 0x01194296
 238:	18000013 	stmdane	r0, {r0, r1, r4}
 23c:	0e030005 	cdpeq	0, 0, cr0, cr3, cr5, {0}
 240:	0b3b0b3a 	bleq	ec2f30 <__kernel_size__+0xec19fc>
 244:	13490b39 	movtne	r0, #39737	; 0x9b39
 248:	00001802 	andeq	r1, r0, r2, lsl #16
 24c:	03003419 	movweq	r3, #1049	; 0x419
 250:	3b0b3a0e 	blcc	2cea90 <__kernel_size__+0x2cd55c>
 254:	490b390b 	stmdbmi	fp, {r0, r1, r3, r8, fp, ip, sp}
 258:	00180213 	andseq	r0, r8, r3, lsl r2
 25c:	012e1a00 			; <UNDEFINED> instruction: 0x012e1a00
 260:	0e03193f 			; <UNDEFINED> instruction: 0x0e03193f
 264:	0b3b0b3a 	bleq	ec2f54 <__kernel_size__+0xec1a20>
 268:	19270b39 	stmdbne	r7!, {r0, r3, r4, r5, r8, r9, fp}
 26c:	01111349 	tsteq	r1, r9, asr #6
 270:	18400612 	stmdane	r0, {r1, r4, r9, sl}^
 274:	01194296 			; <UNDEFINED> instruction: 0x01194296
 278:	1b000013 	blne	2cc <TASK_1_STACK_SIZE+0x1cc>
 27c:	193f012e 	ldmdbne	pc!, {r1, r2, r3, r5, r8}	; <UNPREDICTABLE>
 280:	0b3a0e03 	bleq	e83a94 <__kernel_size__+0xe82560>
 284:	0b390b3b 	bleq	e42f78 <__kernel_size__+0xe41a44>
 288:	01111927 	tsteq	r1, r7, lsr #18
 28c:	18400612 	stmdane	r0, {r1, r4, r9, sl}^
 290:	01194297 			; <UNDEFINED> instruction: 0x01194297
 294:	1c000013 	stcne	0, cr0, [r0], {19}
 298:	193f012e 	ldmdbne	pc!, {r1, r2, r3, r5, r8}	; <UNPREDICTABLE>
 29c:	0b3a0e03 	bleq	e83ab0 <__kernel_size__+0xe8257c>
 2a0:	0b390b3b 	bleq	e42f94 <__kernel_size__+0xe41a60>
 2a4:	01111349 	tsteq	r1, r9, asr #6
 2a8:	18400612 	stmdane	r0, {r1, r4, r9, sl}^
 2ac:	01194297 			; <UNDEFINED> instruction: 0x01194297
 2b0:	1d000013 	stcne	0, cr0, [r0, #-76]	; 0xffffffb4
 2b4:	193f012e 	ldmdbne	pc!, {r1, r2, r3, r5, r8}	; <UNPREDICTABLE>
 2b8:	0b3a0e03 	bleq	e83acc <__kernel_size__+0xe82598>
 2bc:	0b390b3b 	bleq	e42fb0 <__kernel_size__+0xe41a7c>
 2c0:	13491927 	movtne	r1, #39207	; 0x9927
 2c4:	06120111 			; <UNDEFINED> instruction: 0x06120111
 2c8:	42971840 	addsmi	r1, r7, #64, 16	; 0x400000
 2cc:	00130119 	andseq	r0, r3, r9, lsl r1
 2d0:	012e1e00 			; <UNDEFINED> instruction: 0x012e1e00
 2d4:	0e03193f 			; <UNDEFINED> instruction: 0x0e03193f
 2d8:	0b3b0b3a 	bleq	ec2fc8 <__kernel_size__+0xec1a94>
 2dc:	19270b39 	stmdbne	r7!, {r0, r3, r4, r5, r8, r9, fp}
 2e0:	01111349 	tsteq	r1, r9, asr #6
 2e4:	18400612 	stmdane	r0, {r1, r4, r9, sl}^
 2e8:	00194297 	mulseq	r9, r7, r2
 2ec:	11010000 	mrsne	r0, (UNDEF: 1)
 2f0:	130e2501 	movwne	r2, #58625	; 0xe501
 2f4:	1b0e030b 	blne	380f28 <__kernel_size__+0x37f9f4>
 2f8:	1117550e 	tstne	r7, lr, lsl #10
 2fc:	00171001 	andseq	r1, r7, r1
 300:	00240200 	eoreq	r0, r4, r0, lsl #4
 304:	0b3e0b0b 	bleq	f82f38 <__kernel_size__+0xf81a04>
 308:	00000803 	andeq	r0, r0, r3, lsl #16
 30c:	0b002403 	bleq	9320 <__kernel_size__+0x7dec>
 310:	030b3e0b 	movweq	r3, #48651	; 0xbe0b
 314:	0400000e 	streq	r0, [r0], #-14
 318:	0e030016 	mcreq	0, 0, r0, cr3, cr6, {0}
 31c:	0b3b0b3a 	bleq	ec300c <__kernel_size__+0xec1ad8>
 320:	13490b39 	movtne	r0, #39737	; 0x9b39
 324:	04050000 	streq	r0, [r5], #-0
 328:	0b0b3e01 	bleq	2cfb34 <__kernel_size__+0x2ce600>
 32c:	3a13490b 	bcc	4d2760 <__kernel_size__+0x4d122c>
 330:	390b3b0b 	stmdbcc	fp, {r0, r1, r3, r8, r9, fp, ip, sp}
 334:	0013010b 	andseq	r0, r3, fp, lsl #2
 338:	00280600 	eoreq	r0, r8, r0, lsl #12
 33c:	0b1c0e03 	bleq	703b50 <__kernel_size__+0x70261c>
 340:	13070000 	movwne	r0, #28672	; 0x7000
 344:	3a0b0b01 	bcc	2c2f50 <__kernel_size__+0x2c1a1c>
 348:	39053b0b 	stmdbcc	r5, {r0, r1, r3, r8, r9, fp, ip, sp}
 34c:	0013010b 	andseq	r0, r3, fp, lsl #2
 350:	000d0800 	andeq	r0, sp, r0, lsl #16
 354:	0b3a0e03 	bleq	e83b68 <__kernel_size__+0xe82634>
 358:	0b39053b 	bleq	e4184c <__kernel_size__+0xe40318>
 35c:	0b0b1349 	bleq	2c5088 <__kernel_size__+0x2c3b54>
 360:	0b0c0b0d 	bleq	302f9c <__kernel_size__+0x301a68>
 364:	00000b38 	andeq	r0, r0, r8, lsr fp
 368:	03000d09 	movweq	r0, #3337	; 0xd09
 36c:	3b0b3a08 	blcc	2ceb94 <__kernel_size__+0x2cd660>
 370:	490b3905 	stmdbmi	fp, {r0, r2, r8, fp, ip, sp}
 374:	0d0b0b13 	vstreq	d0, [fp, #-76]	; 0xffffffb4
 378:	380b0c0b 	stmdacc	fp, {r0, r1, r3, sl, fp}
 37c:	0a00000b 	beq	3b0 <TASK_1_STACK_SIZE+0x2b0>
 380:	0b0b0117 	bleq	2c07e4 <__kernel_size__+0x2bf2b0>
 384:	053b0b3a 	ldreq	r0, [fp, #-2874]!	; 0xfffff4c6
 388:	13010b39 	movwne	r0, #6969	; 0x1b39
 38c:	0d0b0000 	stceq	0, cr0, [fp, #-0]
 390:	3a0e0300 	bcc	380f98 <__kernel_size__+0x37fa64>
 394:	39053b0b 	stmdbcc	r5, {r0, r1, r3, r8, r9, fp, ip, sp}
 398:	0013490b 	andseq	r4, r3, fp, lsl #18
 39c:	000d0c00 	andeq	r0, sp, r0, lsl #24
 3a0:	00001349 	andeq	r1, r0, r9, asr #6
 3a4:	0300160d 	movweq	r1, #1549	; 0x60d
 3a8:	3b0b3a0e 	blcc	2cebe8 <__kernel_size__+0x2cd6b4>
 3ac:	490b3905 	stmdbmi	fp, {r0, r2, r8, fp, ip, sp}
 3b0:	0e000013 	mcreq	0, 0, r0, cr0, cr3, {0}
 3b4:	0e030034 	mcreq	0, 0, r0, cr3, cr4, {1}
 3b8:	0b3b0b3a 	bleq	ec30a8 <__kernel_size__+0xec1b74>
 3bc:	13490b39 	movtne	r0, #39737	; 0x9b39
 3c0:	193c193f 	ldmdbne	ip!, {r0, r1, r2, r3, r4, r5, r8, fp, ip}
 3c4:	2e0f0000 	cdpcs	0, 0, cr0, cr15, cr0, {0}
 3c8:	03193f01 	tsteq	r9, #1, 30
 3cc:	3b0b3a0e 	blcc	2cec0c <__kernel_size__+0x2cd6d8>
 3d0:	110b390b 	tstne	fp, fp, lsl #18
 3d4:	40061201 	andmi	r1, r6, r1, lsl #4
 3d8:	19429618 	stmdbne	r2, {r3, r4, r9, sl, ip, pc}^
 3dc:	00001301 	andeq	r1, r0, r1, lsl #6
 3e0:	03003410 	movweq	r3, #1040	; 0x410
 3e4:	3b0b3a08 	blcc	2cec0c <__kernel_size__+0x2cd6d8>
 3e8:	490b390b 	stmdbmi	fp, {r0, r1, r3, r8, fp, ip, sp}
 3ec:	00180213 	andseq	r0, r8, r3, lsl r2
 3f0:	010b1100 	mrseq	r1, (UNDEF: 27)
 3f4:	06120111 			; <UNDEFINED> instruction: 0x06120111
 3f8:	00001301 	andeq	r1, r0, r1, lsl #6
 3fc:	11010b12 	tstne	r1, r2, lsl fp
 400:	00061201 	andeq	r1, r6, r1, lsl #4
 404:	012e1300 			; <UNDEFINED> instruction: 0x012e1300
 408:	0e03193f 			; <UNDEFINED> instruction: 0x0e03193f
 40c:	0b3b0b3a 	bleq	ec30fc <__kernel_size__+0xec1bc8>
 410:	19270b39 	stmdbne	r7!, {r0, r3, r4, r5, r8, r9, fp}
 414:	06120111 			; <UNDEFINED> instruction: 0x06120111
 418:	42971840 	addsmi	r1, r7, #64, 16	; 0x400000
 41c:	00130119 	andseq	r0, r3, r9, lsl r1
 420:	00051400 	andeq	r1, r5, r0, lsl #8
 424:	0b3a0e03 	bleq	e83c38 <__kernel_size__+0xe82704>
 428:	0b390b3b 	bleq	e4311c <__kernel_size__+0xe41be8>
 42c:	18021349 	stmdane	r2, {r0, r3, r6, r8, r9, ip}
 430:	05150000 	ldreq	r0, [r5, #-0]
 434:	3a080300 	bcc	20103c <__kernel_size__+0x1ffb08>
 438:	390b3b0b 	stmdbcc	fp, {r0, r1, r3, r8, r9, fp, ip, sp}
 43c:	0213490b 	andseq	r4, r3, #180224	; 0x2c000
 440:	16000018 			; <UNDEFINED> instruction: 0x16000018
 444:	0e030034 	mcreq	0, 0, r0, cr3, cr4, {1}
 448:	0b3b0b3a 	bleq	ec3138 <__kernel_size__+0xec1c04>
 44c:	13490b39 	movtne	r0, #39737	; 0x9b39
 450:	00001802 	andeq	r1, r0, r2, lsl #16
 454:	0b000f17 	bleq	40b8 <__kernel_size__+0x2b84>
 458:	0013490b 	andseq	r4, r3, fp, lsl #18
 45c:	012e1800 			; <UNDEFINED> instruction: 0x012e1800
 460:	0e03193f 			; <UNDEFINED> instruction: 0x0e03193f
 464:	0b3b0b3a 	bleq	ec3154 <__kernel_size__+0xec1c20>
 468:	19270b39 	stmdbne	r7!, {r0, r3, r4, r5, r8, r9, fp}
 46c:	06120111 			; <UNDEFINED> instruction: 0x06120111
 470:	42971840 	addsmi	r1, r7, #64, 16	; 0x400000
 474:	00000019 	andeq	r0, r0, r9, lsl r0
 478:	25011101 	strcs	r1, [r1, #-257]	; 0xfffffeff
 47c:	030b130e 	movweq	r1, #45838	; 0xb30e
 480:	550e1b0e 	strpl	r1, [lr, #-2830]	; 0xfffff4f2
 484:	10011117 	andne	r1, r1, r7, lsl r1
 488:	02000017 	andeq	r0, r0, #23
 48c:	0b0b0024 	bleq	2c0524 <__kernel_size__+0x2beff0>
 490:	08030b3e 	stmdaeq	r3, {r1, r2, r3, r4, r5, r8, r9, fp}
 494:	24030000 	strcs	r0, [r3], #-0
 498:	3e0b0b00 	vmlacc.f64	d0, d11, d0
 49c:	000e030b 	andeq	r0, lr, fp, lsl #6
 4a0:	00160400 	andseq	r0, r6, r0, lsl #8
 4a4:	0b3a0e03 	bleq	e83cb8 <__kernel_size__+0xe82784>
 4a8:	0b390b3b 	bleq	e4319c <__kernel_size__+0xe41c68>
 4ac:	00001349 	andeq	r1, r0, r9, asr #6
 4b0:	0b011305 	bleq	450cc <__kernel_size__+0x43b98>
 4b4:	3b0b3a0b 	blcc	2cece8 <__kernel_size__+0x2cd7b4>
 4b8:	010b390b 	tsteq	fp, fp, lsl #18
 4bc:	06000013 			; <UNDEFINED> instruction: 0x06000013
 4c0:	0e03000d 	cdpeq	0, 0, cr0, cr3, cr13, {0}
 4c4:	0b3b0b3a 	bleq	ec31b4 <__kernel_size__+0xec1c80>
 4c8:	13490b39 	movtne	r0, #39737	; 0x9b39
 4cc:	00000b38 	andeq	r0, r0, r8, lsr fp
 4d0:	03000d07 	movweq	r0, #3335	; 0xd07
 4d4:	3b0b3a08 	blcc	2cecfc <__kernel_size__+0x2cd7c8>
 4d8:	490b390b 	stmdbmi	fp, {r0, r1, r3, r8, fp, ip, sp}
 4dc:	000b3813 	andeq	r3, fp, r3, lsl r8
 4e0:	00350800 	eorseq	r0, r5, r0, lsl #16
 4e4:	00001349 	andeq	r1, r0, r9, asr #6
 4e8:	0b011309 	bleq	45114 <__kernel_size__+0x43be0>
 4ec:	3b0b3a05 	blcc	2ced08 <__kernel_size__+0x2cd7d4>
 4f0:	010b390b 	tsteq	fp, fp, lsl #18
 4f4:	0a000013 	beq	548 <SYS_STACK_SIZE+0x148>
 4f8:	0e03000d 	cdpeq	0, 0, cr0, cr3, cr13, {0}
 4fc:	0b3b0b3a 	bleq	ec31ec <__kernel_size__+0xec1cb8>
 500:	13490b39 	movtne	r0, #39737	; 0x9b39
 504:	00000538 	andeq	r0, r0, r8, lsr r5
 508:	4901010b 	stmdbmi	r1, {r0, r1, r3, r8}
 50c:	00130113 	andseq	r0, r3, r3, lsl r1
 510:	00210c00 	eoreq	r0, r1, r0, lsl #24
 514:	0b2f1349 	bleq	bc5240 <__kernel_size__+0xbc3d0c>
 518:	210d0000 	mrscs	r0, (UNDEF: 13)
 51c:	2f134900 	svccs	0x00134900
 520:	0e000005 	cdpeq	0, 0, cr0, cr0, cr5, {0}
 524:	193f012e 	ldmdbne	pc!, {r1, r2, r3, r5, r8}	; <UNPREDICTABLE>
 528:	0b3a0e03 	bleq	e83d3c <__kernel_size__+0xe82808>
 52c:	0b390b3b 	bleq	e43220 <__kernel_size__+0xe41cec>
 530:	06120111 			; <UNDEFINED> instruction: 0x06120111
 534:	42971840 	addsmi	r1, r7, #64, 16	; 0x400000
 538:	00130119 	andseq	r0, r3, r9, lsl r1
 53c:	00340f00 	eorseq	r0, r4, r0, lsl #30
 540:	0b3a0e03 	bleq	e83d54 <__kernel_size__+0xe82820>
 544:	0b390b3b 	bleq	e43238 <__kernel_size__+0xe41d04>
 548:	18021349 	stmdane	r2, {r0, r3, r6, r8, r9, ip}
 54c:	0f100000 	svceq	0x00100000
 550:	490b0b00 	stmdbmi	fp, {r8, r9, fp}
 554:	11000013 	tstne	r0, r3, lsl r0
 558:	13490026 	movtne	r0, #36902	; 0x9026
 55c:	01000000 	mrseq	r0, (UNDEF: 0)
 560:	0e250111 	mcreq	1, 1, r0, cr5, cr1, {0}
 564:	0e030b13 	vmoveq.32	d3[0], r0
 568:	17550e1b 	smmlane	r5, fp, lr, r0
 56c:	17100111 			; <UNDEFINED> instruction: 0x17100111
 570:	24020000 	strcs	r0, [r2], #-0
 574:	3e0b0b00 	vmlacc.f64	d0, d11, d0
 578:	0008030b 	andeq	r0, r8, fp, lsl #6
 57c:	00240300 	eoreq	r0, r4, r0, lsl #6
 580:	0b3e0b0b 	bleq	f831b4 <__kernel_size__+0xf81c80>
 584:	00000e03 	andeq	r0, r0, r3, lsl #28
 588:	03001604 	movweq	r1, #1540	; 0x604
 58c:	3b0b3a0e 	blcc	2cedcc <__kernel_size__+0x2cd898>
 590:	490b390b 	stmdbmi	fp, {r0, r1, r3, r8, fp, ip, sp}
 594:	05000013 	streq	r0, [r0, #-19]	; 0xffffffed
 598:	050b0113 	streq	r0, [fp, #-275]	; 0xfffffeed
 59c:	0b3b0b3a 	bleq	ec328c <__kernel_size__+0xec1d58>
 5a0:	13010b39 	movwne	r0, #6969	; 0x1b39
 5a4:	0d060000 	stceq	0, cr0, [r6, #-0]
 5a8:	3a0e0300 	bcc	3811b0 <__kernel_size__+0x37fc7c>
 5ac:	390b3b0b 	stmdbcc	fp, {r0, r1, r3, r8, r9, fp, ip, sp}
 5b0:	3813490b 	ldmdacc	r3, {r0, r1, r3, r8, fp, lr}
 5b4:	0700000b 	streq	r0, [r0, -fp]
 5b8:	0e03000d 	cdpeq	0, 0, cr0, cr3, cr13, {0}
 5bc:	0b3b0b3a 	bleq	ec32ac <__kernel_size__+0xec1d78>
 5c0:	13490b39 	movtne	r0, #39737	; 0x9b39
 5c4:	00000538 	andeq	r0, r0, r8, lsr r5
 5c8:	49003508 	stmdbmi	r0, {r3, r8, sl, ip, sp}
 5cc:	09000013 	stmdbeq	r0, {r0, r1, r4}
 5d0:	13490101 	movtne	r0, #37121	; 0x9101
 5d4:	00001301 	andeq	r1, r0, r1, lsl #6
 5d8:	4900210a 	stmdbmi	r0, {r1, r3, r8, sp}
 5dc:	000b2f13 	andeq	r2, fp, r3, lsl pc
 5e0:	00210b00 	eoreq	r0, r1, r0, lsl #22
 5e4:	052f1349 	streq	r1, [pc, #-841]!	; 2a3 <TASK_1_STACK_SIZE+0x1a3>
 5e8:	2e0c0000 	cdpcs	0, 0, cr0, cr12, cr0, {0}
 5ec:	03193f01 	tsteq	r9, #1, 30
 5f0:	3b0b3a0e 	blcc	2cee30 <__kernel_size__+0x2cd8fc>
 5f4:	110b390b 	tstne	fp, fp, lsl #18
 5f8:	40061201 	andmi	r1, r6, r1, lsl #4
 5fc:	19429718 	stmdbne	r2, {r3, r4, r8, r9, sl, ip, pc}^
 600:	00001301 	andeq	r1, r0, r1, lsl #6
 604:	0300340d 	movweq	r3, #1037	; 0x40d
 608:	3b0b3a0e 	blcc	2cee48 <__kernel_size__+0x2cd914>
 60c:	490b390b 	stmdbmi	fp, {r0, r1, r3, r8, fp, ip, sp}
 610:	00180213 	andseq	r0, r8, r3, lsl r2
 614:	000f0e00 	andeq	r0, pc, r0, lsl #28
 618:	13490b0b 	movtne	r0, #39691	; 0x9b0b
 61c:	260f0000 	strcs	r0, [pc], -r0
 620:	00134900 	andseq	r4, r3, r0, lsl #18
 624:	11010000 	mrsne	r0, (UNDEF: 1)
 628:	130e2501 	movwne	r2, #58625	; 0xe501
 62c:	1b0e030b 	blne	381260 <__kernel_size__+0x37fd2c>
 630:	1117550e 	tstne	r7, lr, lsl #10
 634:	00171001 	andseq	r1, r7, r1
 638:	00240200 	eoreq	r0, r4, r0, lsl #4
 63c:	0b3e0b0b 	bleq	f83270 <__kernel_size__+0xf81d3c>
 640:	00000803 	andeq	r0, r0, r3, lsl #16
 644:	0b002403 	bleq	9658 <__kernel_size__+0x8124>
 648:	030b3e0b 	movweq	r3, #48651	; 0xbe0b
 64c:	0400000e 	streq	r0, [r0], #-14
 650:	0e030016 	mcreq	0, 0, r0, cr3, cr6, {0}
 654:	0b3b0b3a 	bleq	ec3344 <__kernel_size__+0xec1e10>
 658:	13490b39 	movtne	r0, #39737	; 0x9b39
 65c:	34050000 	strcc	r0, [r5], #-0
 660:	3a0e0300 	bcc	381268 <__kernel_size__+0x37fd34>
 664:	390b3b0b 	stmdbcc	fp, {r0, r1, r3, r8, r9, fp, ip, sp}
 668:	3f13490b 	svccc	0x0013490b
 66c:	00193c19 	andseq	r3, r9, r9, lsl ip
 670:	01130600 	tsteq	r3, r0, lsl #12
 674:	0b0b0803 	bleq	2c2688 <__kernel_size__+0x2c1154>
 678:	0b3b0b3a 	bleq	ec3368 <__kernel_size__+0xec1e34>
 67c:	13010b39 	movwne	r0, #6969	; 0x1b39
 680:	0d070000 	stceq	0, cr0, [r7, #-0]
 684:	3a0e0300 	bcc	38128c <__kernel_size__+0x37fd58>
 688:	390b3b0b 	stmdbcc	fp, {r0, r1, r3, r8, r9, fp, ip, sp}
 68c:	3813490b 	ldmdacc	r3, {r0, r1, r3, r8, fp, lr}
 690:	0800000b 	stmdaeq	r0, {r0, r1, r3}
 694:	0803000d 	stmdaeq	r3, {r0, r2, r3}
 698:	0b3b0b3a 	bleq	ec3388 <__kernel_size__+0xec1e54>
 69c:	13490b39 	movtne	r0, #39737	; 0x9b39
 6a0:	00000b38 	andeq	r0, r0, r8, lsr fp
 6a4:	49010109 	stmdbmi	r1, {r0, r3, r8}
 6a8:	00130113 	andseq	r0, r3, r3, lsl r1
 6ac:	00210a00 	eoreq	r0, r1, r0, lsl #20
 6b0:	0b2f1349 	bleq	bc53dc <__kernel_size__+0xbc3ea8>
 6b4:	2e0b0000 	cdpcs	0, 0, cr0, cr11, cr0, {0}
 6b8:	03193f00 	tsteq	r9, #0, 30
 6bc:	3b0b3a0e 	blcc	2ceefc <__kernel_size__+0x2cd9c8>
 6c0:	270b390b 	strcs	r3, [fp, -fp, lsl #18]
 6c4:	12011119 	andne	r1, r1, #1073741830	; 0x40000006
 6c8:	96184006 	ldrls	r4, [r8], -r6
 6cc:	00001942 	andeq	r1, r0, r2, asr #18
 6d0:	01110100 	tsteq	r1, r0, lsl #2
 6d4:	0b130e25 	bleq	4c3f70 <__kernel_size__+0x4c2a3c>
 6d8:	0e1b0e03 	cdpeq	14, 1, cr0, cr11, cr3, {0}
 6dc:	01111755 	tsteq	r1, r5, asr r7
 6e0:	00001710 	andeq	r1, r0, r0, lsl r7
 6e4:	0b002402 	bleq	96f4 <__kernel_size__+0x81c0>
 6e8:	030b3e0b 	movweq	r3, #48651	; 0xbe0b
 6ec:	03000008 	movweq	r0, #8
 6f0:	0b0b0024 	bleq	2c0788 <__kernel_size__+0x2bf254>
 6f4:	0e030b3e 	vmoveq.16	d3[0], r0
 6f8:	16040000 	strne	r0, [r4], -r0
 6fc:	3a0e0300 	bcc	381304 <__kernel_size__+0x37fdd0>
 700:	390b3b0b 	stmdbcc	fp, {r0, r1, r3, r8, r9, fp, ip, sp}
 704:	0013490b 	andseq	r4, r3, fp, lsl #18
 708:	01130500 	tsteq	r3, r0, lsl #10
 70c:	0b3a0b0b 	bleq	e83340 <__kernel_size__+0xe81e0c>
 710:	0b390b3b 	bleq	e43404 <__kernel_size__+0xe41ed0>
 714:	00001301 	andeq	r1, r0, r1, lsl #6
 718:	03000d06 	movweq	r0, #3334	; 0xd06
 71c:	3b0b3a0e 	blcc	2cef5c <__kernel_size__+0x2cda28>
 720:	490b390b 	stmdbmi	fp, {r0, r1, r3, r8, fp, ip, sp}
 724:	000b3813 	andeq	r3, fp, r3, lsl r8
 728:	000d0700 	andeq	r0, sp, r0, lsl #14
 72c:	0b3a0803 	bleq	e82740 <__kernel_size__+0xe8120c>
 730:	0b390b3b 	bleq	e43424 <__kernel_size__+0xe41ef0>
 734:	0b381349 	bleq	e05460 <__kernel_size__+0xe03f2c>
 738:	35080000 	strcc	r0, [r8, #-0]
 73c:	00134900 	andseq	r4, r3, r0, lsl #18
 740:	01130900 	tsteq	r3, r0, lsl #18
 744:	0b3a050b 	bleq	e81b78 <__kernel_size__+0xe80644>
 748:	0b390b3b 	bleq	e4343c <__kernel_size__+0xe41f08>
 74c:	00001301 	andeq	r1, r0, r1, lsl #6
 750:	03000d0a 	movweq	r0, #3338	; 0xd0a
 754:	3b0b3a0e 	blcc	2cef94 <__kernel_size__+0x2cda60>
 758:	490b390b 	stmdbmi	fp, {r0, r1, r3, r8, fp, ip, sp}
 75c:	00053813 	andeq	r3, r5, r3, lsl r8
 760:	01010b00 	tsteq	r1, r0, lsl #22
 764:	13011349 	movwne	r1, #4937	; 0x1349
 768:	210c0000 	mrscs	r0, (UNDEF: 12)
 76c:	2f134900 	svccs	0x00134900
 770:	0d00000b 	stceq	0, cr0, [r0, #-44]	; 0xffffffd4
 774:	13490021 	movtne	r0, #36897	; 0x9021
 778:	0000052f 	andeq	r0, r0, pc, lsr #10
 77c:	0300340e 	movweq	r3, #1038	; 0x40e
 780:	3b0b3a0e 	blcc	2cefc0 <__kernel_size__+0x2cda8c>
 784:	490b390b 	stmdbmi	fp, {r0, r1, r3, r8, fp, ip, sp}
 788:	3c193f13 	ldccc	15, cr3, [r9], {19}
 78c:	0f000019 	svceq	0x00000019
 790:	08030113 	stmdaeq	r3, {r0, r1, r4, r8}
 794:	0b3a0b0b 	bleq	e833c8 <__kernel_size__+0xe81e94>
 798:	0b390b3b 	bleq	e4348c <__kernel_size__+0xe41f58>
 79c:	00001301 	andeq	r1, r0, r1, lsl #6
 7a0:	03011310 	movweq	r1, #4880	; 0x1310
 7a4:	3a0b0b0e 	bcc	2c33e4 <__kernel_size__+0x2c1eb0>
 7a8:	390b3b0b 	stmdbcc	fp, {r0, r1, r3, r8, r9, fp, ip, sp}
 7ac:	0013010b 	andseq	r0, r3, fp, lsl #2
 7b0:	012e1100 			; <UNDEFINED> instruction: 0x012e1100
 7b4:	0e03193f 			; <UNDEFINED> instruction: 0x0e03193f
 7b8:	0b3b0b3a 	bleq	ec34a8 <__kernel_size__+0xec1f74>
 7bc:	19270b39 	stmdbne	r7!, {r0, r3, r4, r5, r8, r9, fp}
 7c0:	01111349 	tsteq	r1, r9, asr #6
 7c4:	18400612 	stmdane	r0, {r1, r4, r9, sl}^
 7c8:	01194296 			; <UNDEFINED> instruction: 0x01194296
 7cc:	12000013 	andne	r0, r0, #19
 7d0:	0e030005 	cdpeq	0, 0, cr0, cr3, cr5, {0}
 7d4:	0b3b0b3a 	bleq	ec34c4 <__kernel_size__+0xec1f90>
 7d8:	13490b39 	movtne	r0, #39737	; 0x9b39
 7dc:	00001802 	andeq	r1, r0, r2, lsl #16
 7e0:	03003413 	movweq	r3, #1043	; 0x413
 7e4:	3b0b3a0e 	blcc	2cf024 <__kernel_size__+0x2cdaf0>
 7e8:	490b390b 	stmdbmi	fp, {r0, r1, r3, r8, fp, ip, sp}
 7ec:	00180213 	andseq	r0, r8, r3, lsl r2
 7f0:	00341400 	eorseq	r1, r4, r0, lsl #8
 7f4:	0b3a0803 	bleq	e82808 <__kernel_size__+0xe812d4>
 7f8:	0b390b3b 	bleq	e434ec <__kernel_size__+0xe41fb8>
 7fc:	18021349 	stmdane	r2, {r0, r3, r6, r8, r9, ip}
 800:	0f150000 	svceq	0x00150000
 804:	490b0b00 	stmdbmi	fp, {r8, r9, fp}
 808:	16000013 			; <UNDEFINED> instruction: 0x16000013
 80c:	13490026 	movtne	r0, #36902	; 0x9026
 810:	01000000 	mrseq	r0, (UNDEF: 0)
 814:	0e250111 	mcreq	1, 1, r0, cr5, cr1, {0}
 818:	0e030b13 	vmoveq.32	d3[0], r0
 81c:	17550e1b 	smmlane	r5, fp, lr, r0
 820:	17100111 			; <UNDEFINED> instruction: 0x17100111
 824:	24020000 	strcs	r0, [r2], #-0
 828:	3e0b0b00 	vmlacc.f64	d0, d11, d0
 82c:	0008030b 	andeq	r0, r8, fp, lsl #6
 830:	00240300 	eoreq	r0, r4, r0, lsl #6
 834:	0b3e0b0b 	bleq	f83468 <__kernel_size__+0xf81f34>
 838:	00000e03 	andeq	r0, r0, r3, lsl #28
 83c:	03001604 	movweq	r1, #1540	; 0x604
 840:	3b0b3a0e 	blcc	2cf080 <__kernel_size__+0x2cdb4c>
 844:	490b390b 	stmdbmi	fp, {r0, r1, r3, r8, fp, ip, sp}
 848:	05000013 	streq	r0, [r0, #-19]	; 0xffffffed
 84c:	0b0b0113 	bleq	2c0ca0 <__kernel_size__+0x2bf76c>
 850:	053b0b3a 	ldreq	r0, [fp, #-2874]!	; 0xfffff4c6
 854:	13010b39 	movwne	r0, #6969	; 0x1b39
 858:	0d060000 	stceq	0, cr0, [r6, #-0]
 85c:	3a0e0300 	bcc	381464 <__kernel_size__+0x37ff30>
 860:	39053b0b 	stmdbcc	r5, {r0, r1, r3, r8, r9, fp, ip, sp}
 864:	0b13490b 	bleq	4d2c98 <__kernel_size__+0x4d1764>
 868:	0c0b0d0b 	stceq	13, cr0, [fp], {11}
 86c:	000b380b 	andeq	r3, fp, fp, lsl #16
 870:	000d0700 	andeq	r0, sp, r0, lsl #14
 874:	0b3a0803 	bleq	e82888 <__kernel_size__+0xe81354>
 878:	0b39053b 	bleq	e41d6c <__kernel_size__+0xe40838>
 87c:	0b0b1349 	bleq	2c55a8 <__kernel_size__+0x2c4074>
 880:	0b0c0b0d 	bleq	3034bc <__kernel_size__+0x301f88>
 884:	00000b38 	andeq	r0, r0, r8, lsr fp
 888:	0b011708 	bleq	464b0 <__kernel_size__+0x44f7c>
 88c:	3b0b3a0b 	blcc	2cf0c0 <__kernel_size__+0x2cdb8c>
 890:	010b3905 	tsteq	fp, r5, lsl #18
 894:	09000013 	stmdbeq	r0, {r0, r1, r4}
 898:	0e03000d 	cdpeq	0, 0, cr0, cr3, cr13, {0}
 89c:	053b0b3a 	ldreq	r0, [fp, #-2874]!	; 0xfffff4c6
 8a0:	13490b39 	movtne	r0, #39737	; 0x9b39
 8a4:	0d0a0000 	stceq	0, cr0, [sl, #-0]
 8a8:	00134900 	andseq	r4, r3, r0, lsl #18
 8ac:	00160b00 	andseq	r0, r6, r0, lsl #22
 8b0:	0b3a0e03 	bleq	e840c4 <__kernel_size__+0xe82b90>
 8b4:	0b39053b 	bleq	e41da8 <__kernel_size__+0xe40874>
 8b8:	00001349 	andeq	r1, r0, r9, asr #6
 8bc:	0300340c 	movweq	r3, #1036	; 0x40c
 8c0:	3b0b3a0e 	blcc	2cf100 <__kernel_size__+0x2cdbcc>
 8c4:	490b390b 	stmdbmi	fp, {r0, r1, r3, r8, fp, ip, sp}
 8c8:	3c193f13 	ldccc	15, cr3, [r9], {19}
 8cc:	0d000019 	stceq	0, cr0, [r0, #-100]	; 0xffffff9c
 8d0:	08030113 	stmdaeq	r3, {r0, r1, r4, r8}
 8d4:	0b3a0b0b 	bleq	e83508 <__kernel_size__+0xe81fd4>
 8d8:	0b390b3b 	bleq	e435cc <__kernel_size__+0xe42098>
 8dc:	00001301 	andeq	r1, r0, r1, lsl #6
 8e0:	03000d0e 	movweq	r0, #3342	; 0xd0e
 8e4:	3b0b3a0e 	blcc	2cf124 <__kernel_size__+0x2cdbf0>
 8e8:	490b390b 	stmdbmi	fp, {r0, r1, r3, r8, fp, ip, sp}
 8ec:	000b3813 	andeq	r3, fp, r3, lsl r8
 8f0:	000d0f00 	andeq	r0, sp, r0, lsl #30
 8f4:	0b3a0803 	bleq	e82908 <__kernel_size__+0xe813d4>
 8f8:	0b390b3b 	bleq	e435ec <__kernel_size__+0xe420b8>
 8fc:	0b381349 	bleq	e05628 <__kernel_size__+0xe040f4>
 900:	01100000 	tsteq	r0, r0
 904:	01134901 	tsteq	r3, r1, lsl #18
 908:	11000013 	tstne	r0, r3, lsl r0
 90c:	13490021 	movtne	r0, #36897	; 0x9021
 910:	00000b2f 	andeq	r0, r0, pc, lsr #22
 914:	47003412 	smladmi	r0, r2, r4, r3
 918:	3b0b3a13 	blcc	2cf16c <__kernel_size__+0x2cdc38>
 91c:	020b390b 	andeq	r3, fp, #180224	; 0x2c000
 920:	13000018 	movwne	r0, #24
 924:	0e030034 	mcreq	0, 0, r0, cr3, cr4, {1}
 928:	0b3b0b3a 	bleq	ec3618 <__kernel_size__+0xec20e4>
 92c:	13490b39 	movtne	r0, #39737	; 0x9b39
 930:	1802193f 	stmdane	r2, {r0, r1, r2, r3, r4, r5, r8, fp, ip}
 934:	0f140000 	svceq	0x00140000
 938:	490b0b00 	stmdbmi	fp, {r8, r9, fp}
 93c:	15000013 	strne	r0, [r0, #-19]	; 0xffffffed
 940:	19270015 	stmdbne	r7!, {r0, r2, r4}
 944:	2e160000 	cdpcs	0, 1, cr0, cr6, cr0, {0}
 948:	03193f01 	tsteq	r9, #1, 30
 94c:	3b0b3a0e 	blcc	2cf18c <__kernel_size__+0x2cdc58>
 950:	270b390b 	strcs	r3, [fp, -fp, lsl #18]
 954:	12011119 	andne	r1, r1, #1073741830	; 0x40000006
 958:	96184006 	ldrls	r4, [r8], -r6
 95c:	13011942 	movwne	r1, #6466	; 0x1942
 960:	05170000 	ldreq	r0, [r7, #-0]
 964:	3a0e0300 	bcc	38156c <__kernel_size__+0x380038>
 968:	390b3b0b 	stmdbcc	fp, {r0, r1, r3, r8, r9, fp, ip, sp}
 96c:	0213490b 	andseq	r4, r3, #180224	; 0x2c000
 970:	18000018 	stmdane	r0, {r3, r4}
 974:	193f012e 	ldmdbne	pc!, {r1, r2, r3, r5, r8}	; <UNPREDICTABLE>
 978:	0b3a0e03 	bleq	e8418c <__kernel_size__+0xe82c58>
 97c:	0b390b3b 	bleq	e43670 <__kernel_size__+0xe4213c>
 980:	06120111 			; <UNDEFINED> instruction: 0x06120111
 984:	42971840 	addsmi	r1, r7, #64, 16	; 0x400000
 988:	19000019 	stmdbne	r0, {r0, r3, r4}
 98c:	08030034 	stmdaeq	r3, {r2, r4, r5}
 990:	0b3b0b3a 	bleq	ec3680 <__kernel_size__+0xec214c>
 994:	13490b39 	movtne	r0, #39737	; 0x9b39
 998:	00001802 	andeq	r1, r0, r2, lsl #16
 99c:	11010b1a 	tstne	r1, sl, lsl fp
 9a0:	00061201 	andeq	r1, r6, r1, lsl #4
 9a4:	11010000 	mrsne	r0, (UNDEF: 1)
 9a8:	130e2501 	movwne	r2, #58625	; 0xe501
 9ac:	1b0e030b 	blne	3815e0 <__kernel_size__+0x3800ac>
 9b0:	1117550e 	tstne	r7, lr, lsl #10
 9b4:	00171001 	andseq	r1, r7, r1
 9b8:	00240200 	eoreq	r0, r4, r0, lsl #4
 9bc:	0b3e0b0b 	bleq	f835f0 <__kernel_size__+0xf820bc>
 9c0:	00000803 	andeq	r0, r0, r3, lsl #16
 9c4:	0b002403 	bleq	99d8 <__kernel_size__+0x84a4>
 9c8:	030b3e0b 	movweq	r3, #48651	; 0xbe0b
 9cc:	0400000e 	streq	r0, [r0], #-14
 9d0:	0e030016 	mcreq	0, 0, r0, cr3, cr6, {0}
 9d4:	0b3b0b3a 	bleq	ec36c4 <__kernel_size__+0xec2190>
 9d8:	13490b39 	movtne	r0, #39737	; 0x9b39
 9dc:	34050000 	strcc	r0, [r5], #-0
 9e0:	3a0e0300 	bcc	3815e8 <__kernel_size__+0x3800b4>
 9e4:	390b3b0b 	stmdbcc	fp, {r0, r1, r3, r8, r9, fp, ip, sp}
 9e8:	3f13490b 	svccc	0x0013490b
 9ec:	00193c19 	andseq	r3, r9, r9, lsl ip
 9f0:	012e0600 			; <UNDEFINED> instruction: 0x012e0600
 9f4:	0e03193f 			; <UNDEFINED> instruction: 0x0e03193f
 9f8:	0b3b0b3a 	bleq	ec36e8 <__kernel_size__+0xec21b4>
 9fc:	01110b39 	tsteq	r1, r9, lsr fp
 a00:	18400612 	stmdane	r0, {r1, r4, r9, sl}^
 a04:	00194297 	mulseq	r9, r7, r2
 a08:	00340700 	eorseq	r0, r4, r0, lsl #14
 a0c:	0b3a0803 	bleq	e82a20 <__kernel_size__+0xe814ec>
 a10:	0b390b3b 	bleq	e43704 <__kernel_size__+0xe421d0>
 a14:	18021349 	stmdane	r2, {r0, r3, r6, r8, r9, ip}
 a18:	34080000 	strcc	r0, [r8], #-0
 a1c:	3a0e0300 	bcc	381624 <__kernel_size__+0x3800f0>
 a20:	390b3b0b 	stmdbcc	fp, {r0, r1, r3, r8, r9, fp, ip, sp}
 a24:	0213490b 	andseq	r4, r3, #180224	; 0x2c000
 a28:	00000018 	andeq	r0, r0, r8, lsl r0
 a2c:	25011101 	strcs	r1, [r1, #-257]	; 0xfffffeff
 a30:	030b130e 	movweq	r1, #45838	; 0xb30e
 a34:	550e1b0e 	strpl	r1, [lr, #-2830]	; 0xfffff4f2
 a38:	10011117 	andne	r1, r1, r7, lsl r1
 a3c:	02000017 	andeq	r0, r0, #23
 a40:	0b0b0024 	bleq	2c0ad8 <__kernel_size__+0x2bf5a4>
 a44:	08030b3e 	stmdaeq	r3, {r1, r2, r3, r4, r5, r8, r9, fp}
 a48:	24030000 	strcs	r0, [r3], #-0
 a4c:	3e0b0b00 	vmlacc.f64	d0, d11, d0
 a50:	000e030b 	andeq	r0, lr, fp, lsl #6
 a54:	00160400 	andseq	r0, r6, r0, lsl #8
 a58:	0b3a0e03 	bleq	e8426c <__kernel_size__+0xe82d38>
 a5c:	0b390b3b 	bleq	e43750 <__kernel_size__+0xe4221c>
 a60:	00001349 	andeq	r1, r0, r9, asr #6
 a64:	03003405 	movweq	r3, #1029	; 0x405
 a68:	3b0b3a0e 	blcc	2cf2a8 <__kernel_size__+0x2cdd74>
 a6c:	490b390b 	stmdbmi	fp, {r0, r1, r3, r8, fp, ip, sp}
 a70:	3c193f13 	ldccc	15, cr3, [r9], {19}
 a74:	06000019 			; <UNDEFINED> instruction: 0x06000019
 a78:	193f012e 	ldmdbne	pc!, {r1, r2, r3, r5, r8}	; <UNPREDICTABLE>
 a7c:	0b3a0e03 	bleq	e84290 <__kernel_size__+0xe82d5c>
 a80:	0b390b3b 	bleq	e43774 <__kernel_size__+0xe42240>
 a84:	06120111 			; <UNDEFINED> instruction: 0x06120111
 a88:	42971840 	addsmi	r1, r7, #64, 16	; 0x400000
 a8c:	07000019 	smladeq	r0, r9, r0, r0
 a90:	08030034 	stmdaeq	r3, {r2, r4, r5}
 a94:	0b3b0b3a 	bleq	ec3784 <__kernel_size__+0xec2250>
 a98:	13490b39 	movtne	r0, #39737	; 0x9b39
 a9c:	00001802 	andeq	r1, r0, r2, lsl #16
 aa0:	01110100 	tsteq	r1, r0, lsl #2
 aa4:	0b130e25 	bleq	4c4340 <__kernel_size__+0x4c2e0c>
 aa8:	0e1b0e03 	cdpeq	14, 1, cr0, cr11, cr3, {0}
 aac:	01111755 	tsteq	r1, r5, asr r7
 ab0:	00001710 	andeq	r1, r0, r0, lsl r7
 ab4:	0b002402 	bleq	9ac4 <__kernel_size__+0x8590>
 ab8:	030b3e0b 	movweq	r3, #48651	; 0xbe0b
 abc:	03000008 	movweq	r0, #8
 ac0:	0b0b0024 	bleq	2c0b58 <__kernel_size__+0x2bf624>
 ac4:	0e030b3e 	vmoveq.16	d3[0], r0
 ac8:	16040000 	strne	r0, [r4], -r0
 acc:	3a0e0300 	bcc	3816d4 <__kernel_size__+0x3801a0>
 ad0:	390b3b0b 	stmdbcc	fp, {r0, r1, r3, r8, r9, fp, ip, sp}
 ad4:	0013490b 	andseq	r4, r3, fp, lsl #18
 ad8:	00340500 	eorseq	r0, r4, r0, lsl #10
 adc:	0b3a0e03 	bleq	e842f0 <__kernel_size__+0xe82dbc>
 ae0:	0b390b3b 	bleq	e437d4 <__kernel_size__+0xe422a0>
 ae4:	193f1349 	ldmdbne	pc!, {r0, r3, r6, r8, r9, ip}	; <UNPREDICTABLE>
 ae8:	0000193c 	andeq	r1, r0, ip, lsr r9
 aec:	3f002e06 	svccc	0x00002e06
 af0:	3a0e0319 	bcc	38175c <__kernel_size__+0x380228>
 af4:	390b3b0b 	stmdbcc	fp, {r0, r1, r3, r8, r9, fp, ip, sp}
 af8:	1201110b 	andne	r1, r1, #-1073741822	; 0xc0000002
 afc:	97184006 	ldrls	r4, [r8, -r6]
 b00:	00001942 	andeq	r1, r0, r2, asr #18
	...

Disassembly of section .debug_aranges:

00000000 <.debug_aranges>:
   0:	00000024 	andeq	r0, r0, r4, lsr #32
   4:	00000002 	andeq	r0, r0, r2
   8:	00040000 	andeq	r0, r4, r0
   c:	00000000 	andeq	r0, r0, r0
  10:	70010204 	andvc	r0, r1, r4, lsl #4
  14:	00000080 	andeq	r0, r0, r0, lsl #1
  18:	70010284 	andvc	r0, r1, r4, lsl #5
  1c:	000001b0 			; <UNDEFINED> instruction: 0x000001b0
	...
  28:	000000bc 	strheq	r0, [r0], -ip
  2c:	06750002 	ldrbteq	r0, [r5], -r2
  30:	00040000 	andeq	r0, r4, r0
  34:	00000000 	andeq	r0, r0, r0
  38:	70030000 	andvc	r0, r3, r0
  3c:	00000028 	andeq	r0, r0, r8, lsr #32
  40:	70030028 	andvc	r0, r3, r8, lsr #32
  44:	00000028 	andeq	r0, r0, r8, lsr #32
  48:	70030050 	andvc	r0, r3, r0, asr r0
  4c:	00000028 	andeq	r0, r0, r8, lsr #32
  50:	70030078 	andvc	r0, r3, r8, ror r0
  54:	00000028 	andeq	r0, r0, r8, lsr #32
  58:	700300a0 	andvc	r0, r3, r0, lsr #1
  5c:	00000028 	andeq	r0, r0, r8, lsr #32
  60:	700300c8 	andvc	r0, r3, r8, asr #1
  64:	00000030 	andeq	r0, r0, r0, lsr r0
  68:	700300f8 	strdvc	r0, [r3], -r8
  6c:	00000028 	andeq	r0, r0, r8, lsr #32
  70:	70030120 	andvc	r0, r3, r0, lsr #2
  74:	00000030 	andeq	r0, r0, r0, lsr r0
  78:	70030150 	andvc	r0, r3, r0, asr r1
  7c:	00000028 	andeq	r0, r0, r8, lsr #32
  80:	70030178 	andvc	r0, r3, r8, ror r1
  84:	00000030 	andeq	r0, r0, r0, lsr r0
  88:	700301a8 	andvc	r0, r3, r8, lsr #3
  8c:	00000028 	andeq	r0, r0, r8, lsr #32
  90:	700301d0 	ldrdvc	r0, [r3], -r0	; <UNPREDICTABLE>
  94:	00000030 	andeq	r0, r0, r0, lsr r0
  98:	70030200 	andvc	r0, r3, r0, lsl #4
  9c:	00000028 	andeq	r0, r0, r8, lsr #32
  a0:	70030228 	andvc	r0, r3, r8, lsr #4
  a4:	00000030 	andeq	r0, r0, r0, lsr r0
  a8:	70030258 	andvc	r0, r3, r8, asr r2
  ac:	00000028 	andeq	r0, r0, r8, lsr #32
  b0:	70030280 	andvc	r0, r3, r0, lsl #5
  b4:	00000028 	andeq	r0, r0, r8, lsr #32
  b8:	700302a8 	andvc	r0, r3, r8, lsr #5
  bc:	00000068 	andeq	r0, r0, r8, rrx
  c0:	70030310 	andvc	r0, r3, r0, lsl r3
  c4:	00000068 	andeq	r0, r0, r8, rrx
  c8:	70030378 	andvc	r0, r3, r8, ror r3
  cc:	0000004c 	andeq	r0, r0, ip, asr #32
  d0:	700303c4 	andvc	r0, r3, r4, asr #7
  d4:	0000004c 	andeq	r0, r0, ip, asr #32
  d8:	70030410 	andvc	r0, r3, r0, lsl r4
  dc:	00000024 	andeq	r0, r0, r4, lsr #32
	...
  e8:	0000002c 	andeq	r0, r0, ip, lsr #32
  ec:	13f00002 	mvnsne	r0, #2
  f0:	00040000 	andeq	r0, r4, r0
  f4:	00000000 	andeq	r0, r0, r0
  f8:	70030434 	andvc	r0, r3, r4, lsr r4
  fc:	0000005c 	andeq	r0, r0, ip, asr r0
 100:	70030490 	mulvc	r3, r0, r4
 104:	00000060 	andeq	r0, r0, r0, rrx
 108:	700304f0 	strdvc	r0, [r3], -r0	; <UNPREDICTABLE>
 10c:	000009f8 	strdeq	r0, [r0], -r8
	...
 118:	0000001c 	andeq	r0, r0, ip, lsl r0
 11c:	1d060002 	stcne	0, cr0, [r6, #-8]
 120:	00040000 	andeq	r0, r4, r0
 124:	00000000 	andeq	r0, r0, r0
 128:	70030ee8 	andvc	r0, r3, r8, ror #29
 12c:	0000007c 	andeq	r0, r0, ip, ror r0
	...
 138:	0000001c 	andeq	r0, r0, ip, lsl r0
 13c:	20340002 	eorscs	r0, r4, r2
 140:	00040000 	andeq	r0, r4, r0
 144:	00000000 	andeq	r0, r0, r0
 148:	70030f64 	andvc	r0, r3, r4, ror #30
 14c:	0000007c 	andeq	r0, r0, ip, ror r0
	...
 158:	0000001c 	andeq	r0, r0, ip, lsl r0
 15c:	22740002 	rsbscs	r0, r4, #2
 160:	00040000 	andeq	r0, r4, r0
 164:	00000000 	andeq	r0, r0, r0
 168:	70030fe0 	andvc	r0, r3, r0, ror #31
 16c:	00000028 	andeq	r0, r0, r8, lsr #32
	...
 178:	0000001c 	andeq	r0, r0, ip, lsl r0
 17c:	29d60002 	ldmibcs	r6, {r1}^
 180:	00040000 	andeq	r0, r4, r0
 184:	00000000 	andeq	r0, r0, r0
 188:	70031008 	andvc	r1, r3, r8
 18c:	00000118 	andeq	r0, r0, r8, lsl r1
	...
 198:	00000024 	andeq	r0, r0, r4, lsr #32
 19c:	33f50002 	mvnscc	r0, #2
 1a0:	00040000 	andeq	r0, r4, r0
 1a4:	00000000 	andeq	r0, r0, r0
 1a8:	70031120 	andvc	r1, r3, r0, lsr #2
 1ac:	000002b4 			; <UNDEFINED> instruction: 0x000002b4
 1b0:	700313d4 	ldrdvc	r1, [r3], -r4
 1b4:	00000160 	andeq	r0, r0, r0, ror #2
	...
 1c0:	0000001c 	andeq	r0, r0, ip, lsl r0
 1c4:	3d3f0002 	ldccc	0, cr0, [pc, #-8]!	; 1c4 <TASK_1_STACK_SIZE+0xc4>
 1c8:	00040000 	andeq	r0, r4, r0
 1cc:	00000000 	andeq	r0, r0, r0
 1d0:	70f50000 	rscsvc	r0, r5, r0
 1d4:	000000dc 	ldrdeq	r0, [r0], -ip
	...
 1e0:	0000001c 	andeq	r0, r0, ip, lsl r0
 1e4:	43890002 	orrmi	r0, r9, #2
 1e8:	00040000 	andeq	r0, r4, r0
 1ec:	00000000 	andeq	r0, r0, r0
 1f0:	70f40000 	rscsvc	r0, r4, r0
 1f4:	00000078 	andeq	r0, r0, r8, ror r0
	...
 200:	0000001c 	andeq	r0, r0, ip, lsl r0
 204:	49b50002 	ldmibmi	r5!, {r1}
 208:	00040000 	andeq	r0, r4, r0
 20c:	00000000 	andeq	r0, r0, r0
 210:	70034000 	andvc	r4, r3, r0
 214:	00000010 	andeq	r0, r0, r0, lsl r0
	...

Disassembly of section .debug_ranges:

00000000 <.debug_ranges>:
   0:	70010204 	andvc	r0, r1, r4, lsl #4
   4:	70010284 	andvc	r0, r1, r4, lsl #5
   8:	70010284 	andvc	r0, r1, r4, lsl #5
   c:	70010434 	andvc	r0, r1, r4, lsr r4
	...
  18:	70030000 	andvc	r0, r3, r0
  1c:	70030028 	andvc	r0, r3, r8, lsr #32
  20:	70030028 	andvc	r0, r3, r8, lsr #32
  24:	70030050 	andvc	r0, r3, r0, asr r0
  28:	70030050 	andvc	r0, r3, r0, asr r0
  2c:	70030078 	andvc	r0, r3, r8, ror r0
  30:	70030078 	andvc	r0, r3, r8, ror r0
  34:	700300a0 	andvc	r0, r3, r0, lsr #1
  38:	700300a0 	andvc	r0, r3, r0, lsr #1
  3c:	700300c8 	andvc	r0, r3, r8, asr #1
  40:	700300c8 	andvc	r0, r3, r8, asr #1
  44:	700300f8 	strdvc	r0, [r3], -r8
  48:	700300f8 	strdvc	r0, [r3], -r8
  4c:	70030120 	andvc	r0, r3, r0, lsr #2
  50:	70030120 	andvc	r0, r3, r0, lsr #2
  54:	70030150 	andvc	r0, r3, r0, asr r1
  58:	70030150 	andvc	r0, r3, r0, asr r1
  5c:	70030178 	andvc	r0, r3, r8, ror r1
  60:	70030178 	andvc	r0, r3, r8, ror r1
  64:	700301a8 	andvc	r0, r3, r8, lsr #3
  68:	700301a8 	andvc	r0, r3, r8, lsr #3
  6c:	700301d0 	ldrdvc	r0, [r3], -r0	; <UNPREDICTABLE>
  70:	700301d0 	ldrdvc	r0, [r3], -r0	; <UNPREDICTABLE>
  74:	70030200 	andvc	r0, r3, r0, lsl #4
  78:	70030200 	andvc	r0, r3, r0, lsl #4
  7c:	70030228 	andvc	r0, r3, r8, lsr #4
  80:	70030228 	andvc	r0, r3, r8, lsr #4
  84:	70030258 	andvc	r0, r3, r8, asr r2
  88:	70030258 	andvc	r0, r3, r8, asr r2
  8c:	70030280 	andvc	r0, r3, r0, lsl #5
  90:	70030280 	andvc	r0, r3, r0, lsl #5
  94:	700302a8 	andvc	r0, r3, r8, lsr #5
  98:	700302a8 	andvc	r0, r3, r8, lsr #5
  9c:	70030310 	andvc	r0, r3, r0, lsl r3
  a0:	70030310 	andvc	r0, r3, r0, lsl r3
  a4:	70030378 	andvc	r0, r3, r8, ror r3
  a8:	70030378 	andvc	r0, r3, r8, ror r3
  ac:	700303c4 	andvc	r0, r3, r4, asr #7
  b0:	700303c4 	andvc	r0, r3, r4, asr #7
  b4:	70030410 	andvc	r0, r3, r0, lsl r4
  b8:	70030410 	andvc	r0, r3, r0, lsl r4
  bc:	70030434 	andvc	r0, r3, r4, lsr r4
	...
  c8:	70030434 	andvc	r0, r3, r4, lsr r4
  cc:	70030490 	mulvc	r3, r0, r4
  d0:	70030490 	mulvc	r3, r0, r4
  d4:	700304f0 	strdvc	r0, [r3], -r0	; <UNPREDICTABLE>
  d8:	700304f0 	strdvc	r0, [r3], -r0	; <UNPREDICTABLE>
  dc:	70030ee8 	andvc	r0, r3, r8, ror #29
	...
  e8:	70030ee8 	andvc	r0, r3, r8, ror #29
  ec:	70030f64 	andvc	r0, r3, r4, ror #30
	...
  f8:	70030f64 	andvc	r0, r3, r4, ror #30
  fc:	70030fe0 	andvc	r0, r3, r0, ror #31
	...
 108:	70030fe0 	andvc	r0, r3, r0, ror #31
 10c:	70031008 	andvc	r1, r3, r8
	...
 118:	70031008 	andvc	r1, r3, r8
 11c:	70031120 	andvc	r1, r3, r0, lsr #2
	...
 128:	70031120 	andvc	r1, r3, r0, lsr #2
 12c:	700313d4 	ldrdvc	r1, [r3], -r4
 130:	700313d4 	ldrdvc	r1, [r3], -r4
 134:	70031534 	andvc	r1, r3, r4, lsr r5
	...
 140:	70f50000 	rscsvc	r0, r5, r0
 144:	70f500dc 	ldrsbtvc	r0, [r5], #12
	...
 150:	70f40000 	rscsvc	r0, r4, r0
 154:	70f40078 	rscsvc	r0, r4, r8, ror r0
	...
 160:	70034000 	andvc	r4, r3, r0
 164:	70034010 	andvc	r4, r3, r0, lsl r0
	...

Disassembly of section .debug_line:

00000000 <.debug_line>:
       0:	00000184 	andeq	r0, r0, r4, lsl #3
       4:	011f0002 	tsteq	pc, r2
       8:	01020000 	mrseq	r0, (UNDEF: 2)
       c:	000d0efb 	strdeq	r0, [sp], -fp
      10:	01010101 	tsteq	r1, r1, lsl #2
      14:	01000000 	mrseq	r0, (UNDEF: 0)
      18:	73010000 	movwvc	r0, #4096	; 0x1000
      1c:	2f006372 	svccs	0x00006372
      20:	2f74706f 	svccs	0x0074706f
      24:	696c6958 	stmdbvs	ip!, {r3, r4, r6, r8, fp, sp, lr}^
      28:	532f786e 			; <UNDEFINED> instruction: 0x532f786e
      2c:	322f4b44 	eorcc	r4, pc, #68, 22	; 0x11000
      30:	2e393130 	mrccs	1, 1, r3, cr9, cr0, {1}
      34:	6e672f31 	mcrvs	15, 3, r2, cr7, cr1, {1}
      38:	61612f75 	smcvs	4853	; 0x12f5
      3c:	33686372 	cmncc	r8, #-939524095	; 0xc8000001
      40:	696c2f32 	stmdbvs	ip!, {r1, r4, r5, r8, r9, sl, fp, sp}^
      44:	63672f6e 	cmnvs	r7, #440	; 0x1b8
      48:	72612d63 	rsbvc	r2, r1, #6336	; 0x18c0
      4c:	6f6e2d6d 	svcvs	0x006e2d6d
      50:	652d656e 	strvs	r6, [sp, #-1390]!	; 0xfffffa92
      54:	2f696261 	svccs	0x00696261
      58:	2d6d7261 	sfmcs	f7, 2, [sp, #-388]!	; 0xfffffe7c
      5c:	656e6f6e 	strbvs	r6, [lr, #-3950]!	; 0xfffff092
      60:	6261652d 	rsbvs	r6, r1, #188743680	; 0xb400000
      64:	696c2f69 	stmdbvs	ip!, {r0, r3, r5, r6, r8, r9, sl, fp, sp}^
      68:	752f6362 	strvc	r6, [pc, #-866]!	; fffffd0e <__TAREA_1_RODATA_PHY+0x7f8abd0e>
      6c:	692f7273 	stmdbvs	pc!, {r0, r1, r4, r5, r6, r9, ip, sp, lr}	; <UNPREDICTABLE>
      70:	756c636e 	strbvc	r6, [ip, #-878]!	; 0xfffffc92
      74:	6d2f6564 	cfstr32vs	mvfx6, [pc, #-400]!	; fffffeec <__TAREA_1_RODATA_PHY+0x7f8abeec>
      78:	69686361 	stmdbvs	r8!, {r0, r5, r6, r8, r9, sp, lr}^
      7c:	2f00656e 	svccs	0x0000656e
      80:	2f74706f 	svccs	0x0074706f
      84:	696c6958 	stmdbvs	ip!, {r3, r4, r6, r8, fp, sp, lr}^
      88:	532f786e 			; <UNDEFINED> instruction: 0x532f786e
      8c:	322f4b44 	eorcc	r4, pc, #68, 22	; 0x11000
      90:	2e393130 	mrccs	1, 1, r3, cr9, cr0, {1}
      94:	6e672f31 	mcrvs	15, 3, r2, cr7, cr1, {1}
      98:	61612f75 	smcvs	4853	; 0x12f5
      9c:	33686372 	cmncc	r8, #-939524095	; 0xc8000001
      a0:	696c2f32 	stmdbvs	ip!, {r1, r4, r5, r8, r9, sl, fp, sp}^
      a4:	63672f6e 	cmnvs	r7, #440	; 0x1b8
      a8:	72612d63 	rsbvc	r2, r1, #6336	; 0x18c0
      ac:	6f6e2d6d 	svcvs	0x006e2d6d
      b0:	652d656e 	strvs	r6, [sp, #-1390]!	; 0xfffffa92
      b4:	2f696261 	svccs	0x00696261
      b8:	2d6d7261 	sfmcs	f7, 2, [sp, #-388]!	; 0xfffffe7c
      bc:	656e6f6e 	strbvs	r6, [lr, #-3950]!	; 0xfffff092
      c0:	6261652d 	rsbvs	r6, r1, #188743680	; 0xb400000
      c4:	696c2f69 	stmdbvs	ip!, {r0, r3, r5, r6, r8, r9, sl, fp, sp}^
      c8:	752f6362 	strvc	r6, [pc, #-866]!	; fffffd6e <__TAREA_1_RODATA_PHY+0x7f8abd6e>
      cc:	692f7273 	stmdbvs	pc!, {r0, r1, r4, r5, r6, r9, ip, sp, lr}	; <UNPREDICTABLE>
      d0:	756c636e 	strbvc	r6, [ip, #-878]!	; 0xfffffc92
      d4:	732f6564 			; <UNDEFINED> instruction: 0x732f6564
      d8:	73007379 	movwvc	r7, #889	; 0x379
      dc:	2e2f6372 	mcrcs	3, 1, r6, cr15, cr2, {3}
      e0:	6e692f2e 	cdpvs	15, 6, cr2, cr9, cr14, {1}
      e4:	6d000063 	stcvs	0, cr0, [r0, #-396]	; 0xfffffe74
      e8:	70636d65 	rsbvc	r6, r3, r5, ror #26
      ec:	00632e79 	rsbeq	r2, r3, r9, ror lr
      f0:	5f000001 	svcpl	0x00000001
      f4:	61666564 	cmnvs	r6, r4, ror #10
      f8:	5f746c75 	svcpl	0x00746c75
      fc:	65707974 	ldrbvs	r7, [r0, #-2420]!	; 0xfffff68c
     100:	00682e73 	rsbeq	r2, r8, r3, ror lr
     104:	5f000002 	svcpl	0x00000002
     108:	69647473 	stmdbvs	r4!, {r0, r1, r4, r5, r6, sl, ip, sp, lr}^
     10c:	682e746e 	stmdavs	lr!, {r1, r2, r3, r5, r6, sl, ip, sp, lr}
     110:	00000300 	andeq	r0, r0, r0, lsl #6
     114:	6d6d656d 	cfstr64vs	mvdx6, [sp, #-436]!	; 0xfffffe4c
     118:	735f7061 	cmpvc	pc, #97	; 0x61
     11c:	6f626d79 	svcvs	0x00626d79
     120:	682e736c 	stmdavs	lr!, {r2, r3, r5, r6, r8, r9, ip, sp, lr}
     124:	00000400 	andeq	r0, r0, r0, lsl #8
     128:	00010500 	andeq	r0, r1, r0, lsl #10
     12c:	02040205 	andeq	r0, r4, #1342177280	; 0x50000000
     130:	05177001 	ldreq	r7, [r7, #-1]
     134:	0c05bb09 			; <UNDEFINED> instruction: 0x0c05bb09
     138:	4a05054b 	bmi	14166c <__kernel_size__+0x140138>
     13c:	02002405 	andeq	r2, r0, #83886080	; 0x5000000
     140:	05300304 	ldreq	r0, [r0, #-772]!	; 0xfffffcfc
     144:	04020013 	streq	r0, [r2], #-19	; 0xffffffed
     148:	1a058203 	bne	16095c <__kernel_size__+0x15f428>
     14c:	03040200 	movweq	r0, #16896	; 0x4200
     150:	00180582 	andseq	r0, r8, r2, lsl #11
     154:	2e030402 	cdpcs	4, 0, cr0, cr3, cr2, {0}
     158:	02001c05 	andeq	r1, r0, #1280	; 0x500
     15c:	052c0304 	streq	r0, [ip, #-772]!	; 0xfffffcfc
     160:	04020013 	streq	r0, [r2], #-19	; 0xffffffed
     164:	05056601 	streq	r6, [r5, #-1537]	; 0xfffff9ff
     168:	01040200 	mrseq	r0, R12_usr
     16c:	6b01052e 	blvs	4162c <__kernel_size__+0x400f8>
     170:	4d050585 	cfstr32mi	mvfx0, [r5, #-532]	; 0xfffffdec
     174:	f4f3f3f3 			; <UNDEFINED> instruction: 0xf4f3f3f3
     178:	f3f3f3f7 	vrsra.u64	<illegal reg q15.5>, <illegal reg q11.5>, #13
     17c:	f3f3f3f6 	vrsra.u64	<illegal reg q15.5>, q11, #13
     180:	02f40105 	rscseq	r0, r4, #1073741825	; 0x40000001
     184:	01010004 	tsteq	r1, r4
     188:	00000235 	andeq	r0, r0, r5, lsr r2
     18c:	011f0002 	tsteq	pc, r2
     190:	01020000 	mrseq	r0, (UNDEF: 2)
     194:	000d0efb 	strdeq	r0, [sp], -fp
     198:	01010101 	tsteq	r1, r1, lsl #2
     19c:	01000000 	mrseq	r0, (UNDEF: 0)
     1a0:	73010000 	movwvc	r0, #4096	; 0x1000
     1a4:	2f006372 	svccs	0x00006372
     1a8:	2f74706f 	svccs	0x0074706f
     1ac:	696c6958 	stmdbvs	ip!, {r3, r4, r6, r8, fp, sp, lr}^
     1b0:	532f786e 			; <UNDEFINED> instruction: 0x532f786e
     1b4:	322f4b44 	eorcc	r4, pc, #68, 22	; 0x11000
     1b8:	2e393130 	mrccs	1, 1, r3, cr9, cr0, {1}
     1bc:	6e672f31 	mcrvs	15, 3, r2, cr7, cr1, {1}
     1c0:	61612f75 	smcvs	4853	; 0x12f5
     1c4:	33686372 	cmncc	r8, #-939524095	; 0xc8000001
     1c8:	696c2f32 	stmdbvs	ip!, {r1, r4, r5, r8, r9, sl, fp, sp}^
     1cc:	63672f6e 	cmnvs	r7, #440	; 0x1b8
     1d0:	72612d63 	rsbvc	r2, r1, #6336	; 0x18c0
     1d4:	6f6e2d6d 	svcvs	0x006e2d6d
     1d8:	652d656e 	strvs	r6, [sp, #-1390]!	; 0xfffffa92
     1dc:	2f696261 	svccs	0x00696261
     1e0:	2d6d7261 	sfmcs	f7, 2, [sp, #-388]!	; 0xfffffe7c
     1e4:	656e6f6e 	strbvs	r6, [lr, #-3950]!	; 0xfffff092
     1e8:	6261652d 	rsbvs	r6, r1, #188743680	; 0xb400000
     1ec:	696c2f69 	stmdbvs	ip!, {r0, r3, r5, r6, r8, r9, sl, fp, sp}^
     1f0:	752f6362 	strvc	r6, [pc, #-866]!	; fffffe96 <__TAREA_1_RODATA_PHY+0x7f8abe96>
     1f4:	692f7273 	stmdbvs	pc!, {r0, r1, r4, r5, r6, r9, ip, sp, lr}	; <UNPREDICTABLE>
     1f8:	756c636e 	strbvc	r6, [ip, #-878]!	; 0xfffffc92
     1fc:	6d2f6564 	cfstr32vs	mvfx6, [pc, #-400]!	; 74 <table_size+0x34>
     200:	69686361 	stmdbvs	r8!, {r0, r5, r6, r8, r9, sp, lr}^
     204:	2f00656e 	svccs	0x0000656e
     208:	2f74706f 	svccs	0x0074706f
     20c:	696c6958 	stmdbvs	ip!, {r3, r4, r6, r8, fp, sp, lr}^
     210:	532f786e 			; <UNDEFINED> instruction: 0x532f786e
     214:	322f4b44 	eorcc	r4, pc, #68, 22	; 0x11000
     218:	2e393130 	mrccs	1, 1, r3, cr9, cr0, {1}
     21c:	6e672f31 	mcrvs	15, 3, r2, cr7, cr1, {1}
     220:	61612f75 	smcvs	4853	; 0x12f5
     224:	33686372 	cmncc	r8, #-939524095	; 0xc8000001
     228:	696c2f32 	stmdbvs	ip!, {r1, r4, r5, r8, r9, sl, fp, sp}^
     22c:	63672f6e 	cmnvs	r7, #440	; 0x1b8
     230:	72612d63 	rsbvc	r2, r1, #6336	; 0x18c0
     234:	6f6e2d6d 	svcvs	0x006e2d6d
     238:	652d656e 	strvs	r6, [sp, #-1390]!	; 0xfffffa92
     23c:	2f696261 	svccs	0x00696261
     240:	2d6d7261 	sfmcs	f7, 2, [sp, #-388]!	; 0xfffffe7c
     244:	656e6f6e 	strbvs	r6, [lr, #-3950]!	; 0xfffff092
     248:	6261652d 	rsbvs	r6, r1, #188743680	; 0xb400000
     24c:	696c2f69 	stmdbvs	ip!, {r0, r3, r5, r6, r8, r9, sl, fp, sp}^
     250:	752f6362 	strvc	r6, [pc, #-866]!	; fffffef6 <__TAREA_1_RODATA_PHY+0x7f8abef6>
     254:	692f7273 	stmdbvs	pc!, {r0, r1, r4, r5, r6, r9, ip, sp, lr}	; <UNPREDICTABLE>
     258:	756c636e 	strbvc	r6, [ip, #-878]!	; 0xfffffc92
     25c:	732f6564 			; <UNDEFINED> instruction: 0x732f6564
     260:	73007379 	movwvc	r7, #889	; 0x379
     264:	2e2f6372 	mcrcs	3, 1, r6, cr15, cr2, {3}
     268:	6e692f2e 	cdpvs	15, 6, cr2, cr9, cr14, {1}
     26c:	6d000063 	stcvs	0, cr0, [r0, #-396]	; 0xfffffe74
     270:	745f756d 	ldrbvc	r7, [pc], #-1389	; 278 <TASK_1_STACK_SIZE+0x178>
     274:	736c6f6f 	cmnvc	ip, #444	; 0x1bc
     278:	00632e5f 	rsbeq	r2, r3, pc, asr lr
     27c:	5f000001 	svcpl	0x00000001
     280:	61666564 	cmnvs	r6, r4, ror #10
     284:	5f746c75 	svcpl	0x00746c75
     288:	65707974 	ldrbvs	r7, [r0, #-2420]!	; 0xfffff68c
     28c:	00682e73 	rsbeq	r2, r8, r3, ror lr
     290:	5f000002 	svcpl	0x00000002
     294:	69647473 	stmdbvs	r4!, {r0, r1, r4, r5, r6, sl, ip, sp, lr}^
     298:	682e746e 	stmdavs	lr!, {r1, r2, r3, r5, r6, sl, ip, sp, lr}
     29c:	00000300 	andeq	r0, r0, r0, lsl #6
     2a0:	5f756d6d 	svcpl	0x00756d6d
     2a4:	6c6f6f74 	stclvs	15, cr6, [pc], #-464	; dc <__txt_tarea_1_size__>
     2a8:	682e5f73 	stmdavs	lr!, {r0, r1, r4, r5, r6, r8, r9, sl, fp, ip, lr}
     2ac:	00000400 	andeq	r0, r0, r0, lsl #8
     2b0:	00010500 	andeq	r0, r1, r0, lsl #10
     2b4:	00000205 	andeq	r0, r0, r5, lsl #4
     2b8:	051a7003 	ldreq	r7, [sl, #-3]
     2bc:	052f6905 	streq	r6, [pc, #-2309]!	; fffff9bf <__TAREA_1_RODATA_PHY+0x7f8ab9bf>
     2c0:	0105300c 	tsteq	r5, ip
     2c4:	0505892f 	streq	r8, [r5, #-2351]	; 0xfffff6d1
     2c8:	0c052f69 	stceq	15, cr2, [r5], {105}	; 0x69
     2cc:	2f010530 	svccs	0x00010530
     2d0:	69050589 	stmdbvs	r5, {r0, r3, r7, r8, sl}
     2d4:	300c052f 	andcc	r0, ip, pc, lsr #10
     2d8:	892f0105 	stmdbhi	pc!, {r0, r2, r8}	; <UNPREDICTABLE>
     2dc:	2f690505 	svccs	0x00690505
     2e0:	05300c05 	ldreq	r0, [r0, #-3077]!	; 0xfffff3fb
     2e4:	05892f01 	streq	r2, [r9, #3841]	; 0xf01
     2e8:	052f6905 	streq	r6, [pc, #-2309]!	; fffff9eb <__TAREA_1_RODATA_PHY+0x7f8ab9eb>
     2ec:	0105300c 	tsteq	r5, ip
     2f0:	0505892f 	streq	r8, [r5, #-2351]	; 0xfffff6d1
     2f4:	2f2f2f83 	svccs	0x002f2f83
     2f8:	892f0105 	stmdbhi	pc!, {r0, r2, r8}	; <UNPREDICTABLE>
     2fc:	2f690505 	svccs	0x00690505
     300:	05300c05 	ldreq	r0, [r0, #-3077]!	; 0xfffff3fb
     304:	05892f01 	streq	r2, [r9, #3841]	; 0xf01
     308:	2f2f8305 	svccs	0x002f8305
     30c:	2f01052f 	svccs	0x0001052f
     310:	6905058a 	stmdbvs	r5, {r1, r3, r7, r8, sl}
     314:	300c052f 	andcc	r0, ip, pc, lsr #10
     318:	892f0105 	stmdbhi	pc!, {r0, r2, r8}	; <UNPREDICTABLE>
     31c:	2f840505 	svccs	0x00840505
     320:	01052f2f 	tsteq	r5, pc, lsr #30
     324:	05058930 	streq	r8, [r5, #-2352]	; 0xfffff6d0
     328:	0c052f69 	stceq	15, cr2, [r5], {105}	; 0x69
     32c:	2f010530 	svccs	0x00010530
     330:	83050589 	movwhi	r0, #21897	; 0x5589
     334:	052f2f2f 	streq	r2, [pc, #-3887]!	; fffff40d <__TAREA_1_RODATA_PHY+0x7f8ab40d>
     338:	05892f01 	streq	r2, [r9, #3841]	; 0xf01
     33c:	052f6905 	streq	r6, [pc, #-2309]!	; fffffa3f <__TAREA_1_RODATA_PHY+0x7f8aba3f>
     340:	0105300c 	tsteq	r5, ip
     344:	0505892f 	streq	r8, [r5, #-2351]	; 0xfffff6d1
     348:	2f2f2f83 	svccs	0x002f2f83
     34c:	892f0105 	stmdbhi	pc!, {r0, r2, r8}	; <UNPREDICTABLE>
     350:	2f690505 	svccs	0x00690505
     354:	05300c05 	ldreq	r0, [r0, #-3077]!	; 0xfffff3fb
     358:	05892f01 	streq	r2, [r9, #3841]	; 0xf01
     35c:	052f8305 	streq	r8, [pc, #-773]!	; 5f <table_size+0x1f>
     360:	05892f01 	streq	r2, [r9, #3841]	; 0xf01
     364:	05676713 	strbeq	r6, [r7, #-1811]!	; 0xfffff8ed
     368:	0d05681c 	stceq	8, cr6, [r5, #-112]	; 0xffffff90
     36c:	2f0e0566 	svccs	0x000e0566
     370:	054c0705 	strbeq	r0, [ip, #-1797]	; 0xfffff8fb
     374:	1405691b 	strne	r6, [r5], #-2331	; 0xfffff6e5
     378:	690c052e 	stmdbvs	ip, {r1, r2, r3, r5, r8, sl}
     37c:	6d2f0105 	stfvss	f0, [pc, #-20]!	; 370 <TASK_1_STACK_SIZE+0x270>
     380:	67831305 	strvs	r1, [r3, r5, lsl #6]
     384:	05681c05 	strbeq	r1, [r8, #-3077]!	; 0xfffff3fb
     388:	0705660d 	streq	r6, [r5, -sp, lsl #12]
     38c:	69200530 	stmdbvs	r0!, {r4, r5, r8, sl}
     390:	05661505 	strbeq	r1, [r6, #-1285]!	; 0xfffffafb
     394:	01052f09 	tsteq	r5, r9, lsl #30
     398:	13056d4c 	movwne	r6, #23884	; 0x5d4c
     39c:	680f059f 	stmdavs	pc, {r0, r1, r2, r3, r4, r7, r8, sl}	; <UNPREDICTABLE>
     3a0:	05bc0505 	ldreq	r0, [ip, #1285]!	; 0x505
     3a4:	056d4b01 	strbeq	r4, [sp, #-2817]!	; 0xfffff4ff
     3a8:	0d059f13 	stceq	15, cr9, [r5, #-76]	; 0xffffffb4
     3ac:	bd050568 	cfstr32lt	mvfx0, [r5, #-416]	; 0xfffffe60
     3b0:	6d4c0105 	stfvse	f0, [ip, #-20]	; 0xffffffec
     3b4:	2f4b0505 	svccs	0x004b0505
     3b8:	2f01052f 	svccs	0x0001052f
     3bc:	01000802 	tsteq	r0, r2, lsl #16
     3c0:	00030b01 	andeq	r0, r3, r1, lsl #22
     3c4:	2c000200 	sfmcs	f0, 4, [r0], {-0}
     3c8:	02000001 	andeq	r0, r0, #1
     3cc:	0d0efb01 	vstreq	d15, [lr, #-4]
     3d0:	01010100 	mrseq	r0, (UNDEF: 17)
     3d4:	00000001 	andeq	r0, r0, r1
     3d8:	01000001 	tsteq	r0, r1
     3dc:	00637273 	rsbeq	r7, r3, r3, ror r2
     3e0:	74706f2f 	ldrbtvc	r6, [r0], #-3887	; 0xfffff0d1
     3e4:	6c69582f 	stclvs	8, cr5, [r9], #-188	; 0xffffff44
     3e8:	2f786e69 	svccs	0x00786e69
     3ec:	2f4b4453 	svccs	0x004b4453
     3f0:	39313032 	ldmdbcc	r1!, {r1, r4, r5, ip, sp}
     3f4:	672f312e 	strvs	r3, [pc, -lr, lsr #2]!
     3f8:	612f756e 			; <UNDEFINED> instruction: 0x612f756e
     3fc:	68637261 	stmdavs	r3!, {r0, r5, r6, r9, ip, sp, lr}^
     400:	6c2f3233 	sfmvs	f3, 4, [pc], #-204	; 33c <TASK_1_STACK_SIZE+0x23c>
     404:	672f6e69 	strvs	r6, [pc, -r9, ror #28]!
     408:	612d6363 			; <UNDEFINED> instruction: 0x612d6363
     40c:	6e2d6d72 	mcrvs	13, 1, r6, cr13, cr2, {3}
     410:	2d656e6f 	stclcs	14, cr6, [r5, #-444]!	; 0xfffffe44
     414:	69626165 	stmdbvs	r2!, {r0, r2, r5, r6, r8, sp, lr}^
     418:	6d72612f 	ldfvse	f6, [r2, #-188]!	; 0xffffff44
     41c:	6e6f6e2d 	cdpvs	14, 6, cr6, cr15, cr13, {1}
     420:	61652d65 	cmnvs	r5, r5, ror #26
     424:	6c2f6962 			; <UNDEFINED> instruction: 0x6c2f6962
     428:	2f636269 	svccs	0x00636269
     42c:	2f727375 	svccs	0x00727375
     430:	6c636e69 	stclvs	14, cr6, [r3], #-420	; 0xfffffe5c
     434:	2f656475 	svccs	0x00656475
     438:	6863616d 	stmdavs	r3!, {r0, r2, r3, r5, r6, r8, sp, lr}^
     43c:	00656e69 	rsbeq	r6, r5, r9, ror #28
     440:	74706f2f 	ldrbtvc	r6, [r0], #-3887	; 0xfffff0d1
     444:	6c69582f 	stclvs	8, cr5, [r9], #-188	; 0xffffff44
     448:	2f786e69 	svccs	0x00786e69
     44c:	2f4b4453 	svccs	0x004b4453
     450:	39313032 	ldmdbcc	r1!, {r1, r4, r5, ip, sp}
     454:	672f312e 	strvs	r3, [pc, -lr, lsr #2]!
     458:	612f756e 			; <UNDEFINED> instruction: 0x612f756e
     45c:	68637261 	stmdavs	r3!, {r0, r5, r6, r9, ip, sp, lr}^
     460:	6c2f3233 	sfmvs	f3, 4, [pc], #-204	; 39c <TASK_1_STACK_SIZE+0x29c>
     464:	672f6e69 	strvs	r6, [pc, -r9, ror #28]!
     468:	612d6363 			; <UNDEFINED> instruction: 0x612d6363
     46c:	6e2d6d72 	mcrvs	13, 1, r6, cr13, cr2, {3}
     470:	2d656e6f 	stclcs	14, cr6, [r5, #-444]!	; 0xfffffe44
     474:	69626165 	stmdbvs	r2!, {r0, r2, r5, r6, r8, sp, lr}^
     478:	6d72612f 	ldfvse	f6, [r2, #-188]!	; 0xffffff44
     47c:	6e6f6e2d 	cdpvs	14, 6, cr6, cr15, cr13, {1}
     480:	61652d65 	cmnvs	r5, r5, ror #26
     484:	6c2f6962 			; <UNDEFINED> instruction: 0x6c2f6962
     488:	2f636269 	svccs	0x00636269
     48c:	2f727375 	svccs	0x00727375
     490:	6c636e69 	stclvs	14, cr6, [r3], #-420	; 0xfffffe5c
     494:	2f656475 	svccs	0x00656475
     498:	00737973 	rsbseq	r7, r3, r3, ror r9
     49c:	2f637273 	svccs	0x00637273
     4a0:	692f2e2e 	stmdbvs	pc!, {r1, r2, r3, r5, r9, sl, fp, sp}	; <UNPREDICTABLE>
     4a4:	0000636e 	andeq	r6, r0, lr, ror #6
     4a8:	2e756d6d 	cdpcs	13, 7, cr6, cr5, cr13, {3}
     4ac:	00010063 	andeq	r0, r1, r3, rrx
     4b0:	65645f00 	strbvs	r5, [r4, #-3840]!	; 0xfffff100
     4b4:	6c756166 	ldfvse	f6, [r5], #-408	; 0xfffffe68
     4b8:	79745f74 	ldmdbvc	r4!, {r2, r4, r5, r6, r8, r9, sl, fp, ip, lr}^
     4bc:	2e736570 	mrccs	5, 3, r6, cr3, cr0, {3}
     4c0:	00020068 	andeq	r0, r2, r8, rrx
     4c4:	74735f00 	ldrbtvc	r5, [r3], #-3840	; 0xfffff100
     4c8:	746e6964 	strbtvc	r6, [lr], #-2404	; 0xfffff69c
     4cc:	0300682e 	movweq	r6, #2094	; 0x82e
     4d0:	6d6d0000 	stclvs	0, cr0, [sp, #-0]
     4d4:	6f745f75 	svcvs	0x00745f75
     4d8:	5f736c6f 	svcpl	0x00736c6f
     4dc:	0400682e 	streq	r6, [r0], #-2094	; 0xfffff7d2
     4e0:	656d0000 	strbvs	r0, [sp, #-0]!
     4e4:	70616d6d 	rsbvc	r6, r1, sp, ror #26
     4e8:	6d79735f 	ldclvs	3, cr7, [r9, #-380]!	; 0xfffffe84
     4ec:	736c6f62 	cmnvc	ip, #392	; 0x188
     4f0:	0400682e 	streq	r6, [r0], #-2094	; 0xfffff7d2
     4f4:	05000000 	streq	r0, [r0, #-0]
     4f8:	02050001 	andeq	r0, r5, #1
     4fc:	70030434 	andvc	r0, r3, r4, lsr r4
     500:	05010a03 	streq	r0, [r1, #-2563]	; 0xfffff5fd
     504:	0a05bb0c 	beq	16f13c <__kernel_size__+0x16dc08>
     508:	6817054b 	ldmdavs	r7, {r0, r1, r3, r6, r8, sl}
     50c:	052e2105 	streq	r2, [lr, #-261]!	; 0xfffffefb
     510:	21052e0b 	tstcs	r5, fp, lsl #28
     514:	2e150582 	cdpcs	5, 1, cr0, cr5, cr2, {4}
     518:	852f0105 	strhi	r0, [pc, #-261]!	; 41b <SYS_STACK_SIZE+0x1b>
     51c:	05bb0c05 	ldreq	r0, [fp, #3077]!	; 0xc05
     520:	0a054b1e 	beq	1531a0 <__kernel_size__+0x151c6c>
     524:	4b17054a 	blmi	5c1a54 <__kernel_size__+0x5c0520>
     528:	052e2f05 	streq	r2, [lr, #-3845]!	; 0xfffff0fb
     52c:	2f052e0b 	svccs	0x00052e0b
     530:	2e150582 	cdpcs	5, 1, cr0, cr5, cr2, {4}
     534:	862f0105 	strthi	r0, [pc], -r5, lsl #2
     538:	05670705 	strbeq	r0, [r7, #-1797]!	; 0xfffff8fb
     53c:	03054d0a 	movweq	r4, #23818	; 0x5d0a
     540:	0014054a 	andseq	r0, r4, sl, asr #10
     544:	30030402 	andcc	r0, r3, r2, lsl #8
     548:	02001905 	andeq	r1, r0, #81920	; 0x14000
     54c:	059e0304 	ldreq	r0, [lr, #772]	; 0x304
     550:	04020027 	streq	r0, [r2], #-39	; 0xffffffd9
     554:	03054803 	movweq	r4, #22531	; 0x5803
     558:	01040200 	mrseq	r0, R12_usr
     55c:	660c0366 	strvs	r0, [ip], -r6, ror #6
     560:	dabbd7d7 	ble	feef64c4 <__TAREA_1_RODATA_PHY+0x7e7a24c4>
     564:	da9fdada 	ble	fe7f70d4 <__TAREA_1_RODATA_PHY+0x7e0a30d4>
     568:	2f05d7d7 	svccs	0x0005d7d7
     56c:	4a03052e 	bmi	c1a2c <__kernel_size__+0xc04f8>
     570:	052e6905 	streq	r6, [lr, #-2309]!	; 0xfffff6fb
     574:	054a018a 	strbeq	r0, [sl, #-394]	; 0xfffffe76
     578:	d74b2e03 	strble	r2, [fp, -r3, lsl #28]
     57c:	d7d7d8d7 			; <UNDEFINED> instruction: 0xd7d7d8d7
     580:	d9d7d7d7 	ldmible	r7, {r0, r1, r2, r4, r6, r7, r8, r9, sl, ip, lr, pc}^
     584:	05d90a05 	ldrbeq	r0, [r9, #2565]	; 0xa05
     588:	16054a03 	strne	r4, [r5], -r3, lsl #20
     58c:	03040200 	movweq	r0, #16896	; 0x4200
     590:	001b0530 	andseq	r0, fp, r0, lsr r5
     594:	9e030402 	cdpls	4, 0, cr0, cr3, cr2, {0}
     598:	02002805 	andeq	r2, r0, #327680	; 0x50000
     59c:	05480304 	strbeq	r0, [r8, #-772]	; 0xfffffcfc
     5a0:	04020003 	streq	r0, [r2], #-3
     5a4:	0e036601 	cfmadd32eq	mvax0, mvfx6, mvfx3, mvfx1
     5a8:	bbd7d766 	bllt	ff5f6348 <__TAREA_1_RODATA_PHY+0x7eea2348>
     5ac:	dadad7d7 	ble	ff6b6510 <__TAREA_1_RODATA_PHY+0x7ef62510>
     5b0:	d7da9fda 			; <UNDEFINED> instruction: 0xd7da9fda
     5b4:	2e3105d7 	mrccs	5, 1, r0, cr1, cr7, {6}
     5b8:	054a0305 	strbeq	r0, [sl, #-773]	; 0xfffffcfb
     5bc:	8c052e6b 	stchi	14, cr2, [r5], {107}	; 0x6b
     5c0:	03054a01 	movweq	r4, #23041	; 0x5a01
     5c4:	d7d74b2e 	ldrble	r4, [r7, lr, lsr #22]
     5c8:	d7d60c03 	ldrble	r0, [r6, r3, lsl #24]
     5cc:	d7d8d7d7 			; <UNDEFINED> instruction: 0xd7d8d7d7
     5d0:	d7d7d7d7 			; <UNDEFINED> instruction: 0xd7d7d7d7
     5d4:	05da0c05 	ldrbeq	r0, [sl, #3077]	; 0xc05
     5d8:	05054a03 	streq	r4, [r5, #-2563]	; 0xfffff5fd
     5dc:	03040200 	movweq	r0, #16896	; 0x4200
     5e0:	00670530 	rsbeq	r0, r7, r0, lsr r5
     5e4:	2e030402 	cdpcs	4, 0, cr0, cr3, cr2, {0}
     5e8:	02003305 	andeq	r3, r0, #335544320	; 0x14000000
     5ec:	05660304 	strbeq	r0, [r6, #-772]!	; 0xfffffcfc
     5f0:	04020005 	streq	r0, [r2], #-5
     5f4:	af054a03 	svcge	0x00054a03
     5f8:	04020001 	streq	r0, [r2], #-1
     5fc:	7b052e03 	blvc	14be10 <__kernel_size__+0x14a8dc>
     600:	03040200 	movweq	r0, #16896	; 0x4200
     604:	01a60566 			; <UNDEFINED> instruction: 0x01a60566
     608:	03040200 	movweq	r0, #16896	; 0x4200
     60c:	0005054a 	andeq	r0, r5, sl, asr #10
     610:	2e030402 	cdpcs	4, 0, cr0, cr3, cr2, {0}
     614:	02001c05 	andeq	r1, r0, #1280	; 0x500
     618:	05480304 	strbeq	r0, [r8, #-772]	; 0xfffffcfc
     61c:	04020003 	streq	r0, [r2], #-3
     620:	0a056601 	beq	159e2c <__kernel_size__+0x1588f8>
     624:	4a03056e 	bmi	c1be4 <__kernel_size__+0xc06b0>
     628:	02001605 	andeq	r1, r0, #5242880	; 0x500000
     62c:	05300304 	ldreq	r0, [r0, #-772]!	; 0xfffffcfc
     630:	0402001b 	streq	r0, [r2], #-27	; 0xffffffe5
     634:	28059e03 	stmdacs	r5, {r0, r1, r9, sl, fp, ip, pc}
     638:	03040200 	movweq	r0, #16896	; 0x4200
     63c:	00030548 	andeq	r0, r3, r8, asr #10
     640:	66010402 	strvs	r0, [r1], -r2, lsl #8
     644:	d7660e03 	strble	r0, [r6, -r3, lsl #28]!
     648:	d7d7bbd7 			; <UNDEFINED> instruction: 0xd7d7bbd7
     64c:	9fdadada 	svcls	0x00dadada
     650:	05d7d7da 	ldrbeq	sp, [r7, #2010]	; 0x7da
     654:	03052e31 	movweq	r2, #24113	; 0x5e31
     658:	2e6b054a 	cdpcs	5, 6, cr0, cr11, cr10, {2}
     65c:	4a018c05 	bmi	63678 <__kernel_size__+0x62144>
     660:	4b2e0305 	blmi	b8127c <__kernel_size__+0xb7fd48>
     664:	0c03d7d7 	stceq	7, cr13, [r3], {215}	; 0xd7
     668:	d7d7d7d6 			; <UNDEFINED> instruction: 0xd7d7d7d6
     66c:	d7d7d7d8 			; <UNDEFINED> instruction: 0xd7d7d7d8
     670:	0c05d7d7 	stceq	7, cr13, [r5], {215}	; 0xd7
     674:	4a0305da 	bmi	c1de4 <__kernel_size__+0xc08b0>
     678:	02000505 	andeq	r0, r0, #20971520	; 0x1400000
     67c:	05300304 	ldreq	r0, [r0, #-772]!	; 0xfffffcfc
     680:	04020067 	streq	r0, [r2], #-103	; 0xffffff99
     684:	33052e03 	movwcc	r2, #24067	; 0x5e03
     688:	03040200 	movweq	r0, #16896	; 0x4200
     68c:	00050566 	andeq	r0, r5, r6, ror #10
     690:	4a030402 	bmi	c16a0 <__kernel_size__+0xc016c>
     694:	0001af05 	andeq	sl, r1, r5, lsl #30
     698:	2e030402 	cdpcs	4, 0, cr0, cr3, cr2, {0}
     69c:	02007b05 	andeq	r7, r0, #5120	; 0x1400
     6a0:	05660304 	strbeq	r0, [r6, #-772]!	; 0xfffffcfc
     6a4:	020001a6 	andeq	r0, r0, #-2147483607	; 0x80000029
     6a8:	054a0304 	strbeq	r0, [sl, #-772]	; 0xfffffcfc
     6ac:	04020005 	streq	r0, [r2], #-5
     6b0:	1c052e03 	stcne	14, cr2, [r5], {3}
     6b4:	03040200 	movweq	r0, #16896	; 0x4200
     6b8:	00030548 	andeq	r0, r3, r8, asr #10
     6bc:	66010402 	strvs	r0, [r1], -r2, lsl #8
     6c0:	056e1a05 	strbeq	r1, [lr, #-2565]!	; 0xfffff5fb
     6c4:	86524a03 	ldrbhi	r4, [r2], -r3, lsl #20
     6c8:	024e0105 	subeq	r0, lr, #1073741825	; 0x40000001
     6cc:	01010026 	tsteq	r1, r6, lsr #32
     6d0:	00000136 	andeq	r0, r0, r6, lsr r1
     6d4:	01110002 	tsteq	r1, r2
     6d8:	01020000 	mrseq	r0, (UNDEF: 2)
     6dc:	000d0efb 	strdeq	r0, [sp], -fp
     6e0:	01010101 	tsteq	r1, r1, lsl #2
     6e4:	01000000 	mrseq	r0, (UNDEF: 0)
     6e8:	73010000 	movwvc	r0, #4096	; 0x1000
     6ec:	2f006372 	svccs	0x00006372
     6f0:	2f74706f 	svccs	0x0074706f
     6f4:	696c6958 	stmdbvs	ip!, {r3, r4, r6, r8, fp, sp, lr}^
     6f8:	532f786e 			; <UNDEFINED> instruction: 0x532f786e
     6fc:	322f4b44 	eorcc	r4, pc, #68, 22	; 0x11000
     700:	2e393130 	mrccs	1, 1, r3, cr9, cr0, {1}
     704:	6e672f31 	mcrvs	15, 3, r2, cr7, cr1, {1}
     708:	61612f75 	smcvs	4853	; 0x12f5
     70c:	33686372 	cmncc	r8, #-939524095	; 0xc8000001
     710:	696c2f32 	stmdbvs	ip!, {r1, r4, r5, r8, r9, sl, fp, sp}^
     714:	63672f6e 	cmnvs	r7, #440	; 0x1b8
     718:	72612d63 	rsbvc	r2, r1, #6336	; 0x18c0
     71c:	6f6e2d6d 	svcvs	0x006e2d6d
     720:	652d656e 	strvs	r6, [sp, #-1390]!	; 0xfffffa92
     724:	2f696261 	svccs	0x00696261
     728:	2d6d7261 	sfmcs	f7, 2, [sp, #-388]!	; 0xfffffe7c
     72c:	656e6f6e 	strbvs	r6, [lr, #-3950]!	; 0xfffff092
     730:	6261652d 	rsbvs	r6, r1, #188743680	; 0xb400000
     734:	696c2f69 	stmdbvs	ip!, {r0, r3, r5, r6, r8, r9, sl, fp, sp}^
     738:	752f6362 	strvc	r6, [pc, #-866]!	; 3de <TASK_1_STACK_SIZE+0x2de>
     73c:	692f7273 	stmdbvs	pc!, {r0, r1, r4, r5, r6, r9, ip, sp, lr}	; <UNPREDICTABLE>
     740:	756c636e 	strbvc	r6, [ip, #-878]!	; 0xfffffc92
     744:	6d2f6564 	cfstr32vs	mvfx6, [pc, #-400]!	; 5bc <SYS_STACK_SIZE+0x1bc>
     748:	69686361 	stmdbvs	r8!, {r0, r5, r6, r8, r9, sp, lr}^
     74c:	2f00656e 	svccs	0x0000656e
     750:	2f74706f 	svccs	0x0074706f
     754:	696c6958 	stmdbvs	ip!, {r3, r4, r6, r8, fp, sp, lr}^
     758:	532f786e 			; <UNDEFINED> instruction: 0x532f786e
     75c:	322f4b44 	eorcc	r4, pc, #68, 22	; 0x11000
     760:	2e393130 	mrccs	1, 1, r3, cr9, cr0, {1}
     764:	6e672f31 	mcrvs	15, 3, r2, cr7, cr1, {1}
     768:	61612f75 	smcvs	4853	; 0x12f5
     76c:	33686372 	cmncc	r8, #-939524095	; 0xc8000001
     770:	696c2f32 	stmdbvs	ip!, {r1, r4, r5, r8, r9, sl, fp, sp}^
     774:	63672f6e 	cmnvs	r7, #440	; 0x1b8
     778:	72612d63 	rsbvc	r2, r1, #6336	; 0x18c0
     77c:	6f6e2d6d 	svcvs	0x006e2d6d
     780:	652d656e 	strvs	r6, [sp, #-1390]!	; 0xfffffa92
     784:	2f696261 	svccs	0x00696261
     788:	2d6d7261 	sfmcs	f7, 2, [sp, #-388]!	; 0xfffffe7c
     78c:	656e6f6e 	strbvs	r6, [lr, #-3950]!	; 0xfffff092
     790:	6261652d 	rsbvs	r6, r1, #188743680	; 0xb400000
     794:	696c2f69 	stmdbvs	ip!, {r0, r3, r5, r6, r8, r9, sl, fp, sp}^
     798:	752f6362 	strvc	r6, [pc, #-866]!	; 43e <SYS_STACK_SIZE+0x3e>
     79c:	692f7273 	stmdbvs	pc!, {r0, r1, r4, r5, r6, r9, ip, sp, lr}	; <UNPREDICTABLE>
     7a0:	756c636e 	strbvc	r6, [ip, #-878]!	; 0xfffffc92
     7a4:	732f6564 			; <UNDEFINED> instruction: 0x732f6564
     7a8:	73007379 	movwvc	r7, #889	; 0x379
     7ac:	2e2f6372 	mcrcs	3, 1, r6, cr15, cr2, {3}
     7b0:	6e692f2e 	cdpvs	15, 6, cr2, cr9, cr14, {1}
     7b4:	67000063 	strvs	r0, [r0, -r3, rrx]
     7b8:	632e6369 			; <UNDEFINED> instruction: 0x632e6369
     7bc:	00000100 	andeq	r0, r0, r0, lsl #2
     7c0:	6665645f 			; <UNDEFINED> instruction: 0x6665645f
     7c4:	746c7561 	strbtvc	r7, [ip], #-1377	; 0xfffffa9f
     7c8:	7079745f 	rsbsvc	r7, r9, pc, asr r4
     7cc:	682e7365 	stmdavs	lr!, {r0, r2, r5, r6, r8, r9, ip, sp, lr}
     7d0:	00000200 	andeq	r0, r0, r0, lsl #4
     7d4:	6474735f 	ldrbtvs	r7, [r4], #-863	; 0xfffffca1
     7d8:	2e746e69 	cdpcs	14, 7, cr6, cr4, cr9, {3}
     7dc:	00030068 	andeq	r0, r3, r8, rrx
     7e0:	63696700 	cmnvs	r9, #0, 14
     7e4:	0400682e 	streq	r6, [r0], #-2094	; 0xfffff7d2
     7e8:	05000000 	streq	r0, [r0, #-0]
     7ec:	02050005 	andeq	r0, r5, #5
     7f0:	70030ee8 	andvc	r0, r3, r8, ror #29
     7f4:	67180516 			; <UNDEFINED> instruction: 0x67180516
     7f8:	6815054b 	ldmdavs	r5, {r0, r1, r3, r6, r8, sl}
     7fc:	9f671d05 	svcls	0x00671d05
     800:	0505679f 	streq	r6, [r5, #-1951]	; 0xfffff861
     804:	00080268 	andeq	r0, r8, r8, ror #4
     808:	01390101 	teqeq	r9, r1, lsl #2
     80c:	00020000 	andeq	r0, r2, r0
     810:	00000115 	andeq	r0, r0, r5, lsl r1
     814:	0efb0102 	cdpeq	1, 15, cr0, cr11, cr2, {0}
     818:	0101000d 	tsteq	r1, sp
     81c:	00000101 	andeq	r0, r0, r1, lsl #2
     820:	00000100 	andeq	r0, r0, r0, lsl #2
     824:	63727301 	cmnvs	r2, #67108864	; 0x4000000
     828:	706f2f00 	rsbvc	r2, pc, r0, lsl #30
     82c:	69582f74 	ldmdbvs	r8, {r2, r4, r5, r6, r8, r9, sl, fp, sp}^
     830:	786e696c 	stmdavc	lr!, {r2, r3, r5, r6, r8, fp, sp, lr}^
     834:	4b44532f 	blmi	11154f8 <__kernel_size__+0x1113fc4>
     838:	3130322f 	teqcc	r0, pc, lsr #4
     83c:	2f312e39 	svccs	0x00312e39
     840:	2f756e67 	svccs	0x00756e67
     844:	63726161 	cmnvs	r2, #1073741848	; 0x40000018
     848:	2f323368 	svccs	0x00323368
     84c:	2f6e696c 	svccs	0x006e696c
     850:	2d636367 	stclcs	3, cr6, [r3, #-412]!	; 0xfffffe64
     854:	2d6d7261 	sfmcs	f7, 2, [sp, #-388]!	; 0xfffffe7c
     858:	656e6f6e 	strbvs	r6, [lr, #-3950]!	; 0xfffff092
     85c:	6261652d 	rsbvs	r6, r1, #188743680	; 0xb400000
     860:	72612f69 	rsbvc	r2, r1, #420	; 0x1a4
     864:	6f6e2d6d 	svcvs	0x006e2d6d
     868:	652d656e 	strvs	r6, [sp, #-1390]!	; 0xfffffa92
     86c:	2f696261 	svccs	0x00696261
     870:	6362696c 	cmnvs	r2, #108, 18	; 0x1b0000
     874:	7273752f 	rsbsvc	r7, r3, #197132288	; 0xbc00000
     878:	636e692f 	cmnvs	lr, #770048	; 0xbc000
     87c:	6564756c 	strbvs	r7, [r4, #-1388]!	; 0xfffffa94
     880:	63616d2f 	cmnvs	r1, #3008	; 0xbc0
     884:	656e6968 	strbvs	r6, [lr, #-2408]!	; 0xfffff698
     888:	706f2f00 	rsbvc	r2, pc, r0, lsl #30
     88c:	69582f74 	ldmdbvs	r8, {r2, r4, r5, r6, r8, r9, sl, fp, sp}^
     890:	786e696c 	stmdavc	lr!, {r2, r3, r5, r6, r8, fp, sp, lr}^
     894:	4b44532f 	blmi	1115558 <__kernel_size__+0x1114024>
     898:	3130322f 	teqcc	r0, pc, lsr #4
     89c:	2f312e39 	svccs	0x00312e39
     8a0:	2f756e67 	svccs	0x00756e67
     8a4:	63726161 	cmnvs	r2, #1073741848	; 0x40000018
     8a8:	2f323368 	svccs	0x00323368
     8ac:	2f6e696c 	svccs	0x006e696c
     8b0:	2d636367 	stclcs	3, cr6, [r3, #-412]!	; 0xfffffe64
     8b4:	2d6d7261 	sfmcs	f7, 2, [sp, #-388]!	; 0xfffffe7c
     8b8:	656e6f6e 	strbvs	r6, [lr, #-3950]!	; 0xfffff092
     8bc:	6261652d 	rsbvs	r6, r1, #188743680	; 0xb400000
     8c0:	72612f69 	rsbvc	r2, r1, #420	; 0x1a4
     8c4:	6f6e2d6d 	svcvs	0x006e2d6d
     8c8:	652d656e 	strvs	r6, [sp, #-1390]!	; 0xfffffa92
     8cc:	2f696261 	svccs	0x00696261
     8d0:	6362696c 	cmnvs	r2, #108, 18	; 0x1b0000
     8d4:	7273752f 	rsbsvc	r7, r3, #197132288	; 0xbc00000
     8d8:	636e692f 	cmnvs	lr, #770048	; 0xbc000
     8dc:	6564756c 	strbvs	r7, [r4, #-1388]!	; 0xfffffa94
     8e0:	7379732f 	cmnvc	r9, #-1140850688	; 0xbc000000
     8e4:	63727300 	cmnvs	r2, #0, 6
     8e8:	2f2e2e2f 	svccs	0x002e2e2f
     8ec:	00636e69 	rsbeq	r6, r3, r9, ror #28
     8f0:	6d697400 	cfstrdvs	mvd7, [r9, #-0]
     8f4:	632e7265 			; <UNDEFINED> instruction: 0x632e7265
     8f8:	00000100 	andeq	r0, r0, r0, lsl #2
     8fc:	6665645f 			; <UNDEFINED> instruction: 0x6665645f
     900:	746c7561 	strbtvc	r7, [ip], #-1377	; 0xfffffa9f
     904:	7079745f 	rsbsvc	r7, r9, pc, asr r4
     908:	682e7365 	stmdavs	lr!, {r0, r2, r5, r6, r8, r9, ip, sp, lr}
     90c:	00000200 	andeq	r0, r0, r0, lsl #4
     910:	6474735f 	ldrbtvs	r7, [r4], #-863	; 0xfffffca1
     914:	2e746e69 	cdpcs	14, 7, cr6, cr4, cr9, {3}
     918:	00030068 	andeq	r0, r3, r8, rrx
     91c:	6d697400 	cfstrdvs	mvd7, [r9, #-0]
     920:	682e7265 	stmdavs	lr!, {r0, r2, r5, r6, r9, ip, sp, lr}
     924:	00000400 	andeq	r0, r0, r0, lsl #8
     928:	00050500 	andeq	r0, r5, r0, lsl #10
     92c:	0f640205 	svceq	0x00640205
     930:	05167003 	ldreq	r7, [r6, #-3]
     934:	21056719 	tstcs	r5, r9, lsl r7
     938:	20056768 	andcs	r6, r5, r8, ror #14
     93c:	059f9f67 	ldreq	r9, [pc, #3943]	; 18ab <__kernel_size__+0x377>
     940:	0802a005 	stmdaeq	r2, {r0, r2, sp, pc}
     944:	54010100 	strpl	r0, [r1], #-256	; 0xffffff00
     948:	02000001 	andeq	r0, r0, #1
     94c:	00013200 	andeq	r3, r1, r0, lsl #4
     950:	fb010200 	blx	4115a <__kernel_size__+0x3fc26>
     954:	01000d0e 	tsteq	r0, lr, lsl #26
     958:	00010101 	andeq	r0, r1, r1, lsl #2
     95c:	00010000 	andeq	r0, r1, r0
     960:	72730100 	rsbsvc	r0, r3, #0, 2
     964:	6f2f0063 	svcvs	0x002f0063
     968:	582f7470 	stmdapl	pc!, {r4, r5, r6, sl, ip, sp, lr}	; <UNPREDICTABLE>
     96c:	6e696c69 	cdpvs	12, 6, cr6, cr9, cr9, {3}
     970:	44532f78 	ldrbmi	r2, [r3], #-3960	; 0xfffff088
     974:	30322f4b 	eorscc	r2, r2, fp, asr #30
     978:	312e3931 			; <UNDEFINED> instruction: 0x312e3931
     97c:	756e672f 	strbvc	r6, [lr, #-1839]!	; 0xfffff8d1
     980:	7261612f 	rsbvc	r6, r1, #-1073741813	; 0xc000000b
     984:	32336863 	eorscc	r6, r3, #6488064	; 0x630000
     988:	6e696c2f 	cdpvs	12, 6, cr6, cr9, cr15, {1}
     98c:	6363672f 	cmnvs	r3, #12320768	; 0xbc0000
     990:	6d72612d 	ldfvse	f6, [r2, #-180]!	; 0xffffff4c
     994:	6e6f6e2d 	cdpvs	14, 6, cr6, cr15, cr13, {1}
     998:	61652d65 	cmnvs	r5, r5, ror #26
     99c:	612f6962 			; <UNDEFINED> instruction: 0x612f6962
     9a0:	6e2d6d72 	mcrvs	13, 1, r6, cr13, cr2, {3}
     9a4:	2d656e6f 	stclcs	14, cr6, [r5, #-444]!	; 0xfffffe44
     9a8:	69626165 	stmdbvs	r2!, {r0, r2, r5, r6, r8, sp, lr}^
     9ac:	62696c2f 	rsbvs	r6, r9, #12032	; 0x2f00
     9b0:	73752f63 	cmnvc	r5, #396	; 0x18c
     9b4:	6e692f72 	mcrvs	15, 3, r2, cr9, cr2, {3}
     9b8:	64756c63 	ldrbtvs	r6, [r5], #-3171	; 0xfffff39d
     9bc:	616d2f65 	cmnvs	sp, r5, ror #30
     9c0:	6e696863 	cdpvs	8, 6, cr6, cr9, cr3, {3}
     9c4:	6f2f0065 	svcvs	0x002f0065
     9c8:	582f7470 	stmdapl	pc!, {r4, r5, r6, sl, ip, sp, lr}	; <UNPREDICTABLE>
     9cc:	6e696c69 	cdpvs	12, 6, cr6, cr9, cr9, {3}
     9d0:	44532f78 	ldrbmi	r2, [r3], #-3960	; 0xfffff088
     9d4:	30322f4b 	eorscc	r2, r2, fp, asr #30
     9d8:	312e3931 			; <UNDEFINED> instruction: 0x312e3931
     9dc:	756e672f 	strbvc	r6, [lr, #-1839]!	; 0xfffff8d1
     9e0:	7261612f 	rsbvc	r6, r1, #-1073741813	; 0xc000000b
     9e4:	32336863 	eorscc	r6, r3, #6488064	; 0x630000
     9e8:	6e696c2f 	cdpvs	12, 6, cr6, cr9, cr15, {1}
     9ec:	6363672f 	cmnvs	r3, #12320768	; 0xbc0000
     9f0:	6d72612d 	ldfvse	f6, [r2, #-180]!	; 0xffffff4c
     9f4:	6e6f6e2d 	cdpvs	14, 6, cr6, cr15, cr13, {1}
     9f8:	61652d65 	cmnvs	r5, r5, ror #26
     9fc:	612f6962 			; <UNDEFINED> instruction: 0x612f6962
     a00:	6e2d6d72 	mcrvs	13, 1, r6, cr13, cr2, {3}
     a04:	2d656e6f 	stclcs	14, cr6, [r5, #-444]!	; 0xfffffe44
     a08:	69626165 	stmdbvs	r2!, {r0, r2, r5, r6, r8, sp, lr}^
     a0c:	62696c2f 	rsbvs	r6, r9, #12032	; 0x2f00
     a10:	73752f63 	cmnvc	r5, #396	; 0x18c
     a14:	6e692f72 	mcrvs	15, 3, r2, cr9, cr2, {3}
     a18:	64756c63 	ldrbtvs	r6, [r5], #-3171	; 0xfffff39d
     a1c:	79732f65 	ldmdbvc	r3!, {r0, r2, r5, r6, r8, r9, sl, fp, sp}^
     a20:	72730073 	rsbsvc	r0, r3, #115	; 0x73
     a24:	2e2e2f63 	cdpcs	15, 2, cr2, cr14, cr3, {3}
     a28:	636e692f 	cmnvs	lr, #770048	; 0xbc000
     a2c:	6f620000 	svcvs	0x00620000
     a30:	5f647261 	svcpl	0x00647261
     a34:	74696e69 	strbtvc	r6, [r9], #-3689	; 0xfffff197
     a38:	0100632e 	tsteq	r0, lr, lsr #6
     a3c:	645f0000 	ldrbvs	r0, [pc], #-0	; a44 <SYS_STACK_SIZE+0x644>
     a40:	75616665 	strbvc	r6, [r1, #-1637]!	; 0xfffff99b
     a44:	745f746c 	ldrbvc	r7, [pc], #-1132	; a4c <SYS_STACK_SIZE+0x64c>
     a48:	73657079 	cmnvc	r5, #121	; 0x79
     a4c:	0200682e 	andeq	r6, r0, #3014656	; 0x2e0000
     a50:	735f0000 	cmpvc	pc, #0
     a54:	6e696474 	mcrvs	4, 3, r6, cr9, cr4, {3}
     a58:	00682e74 	rsbeq	r2, r8, r4, ror lr
     a5c:	6d000003 	stcvs	0, cr0, [r0, #-12]
     a60:	616d6d65 	cmnvs	sp, r5, ror #26
     a64:	79735f70 	ldmdbvc	r3!, {r4, r5, r6, r8, r9, sl, fp, ip, lr}^
     a68:	6c6f626d 	sfmvs	f6, 2, [pc], #-436	; 8bc <SYS_STACK_SIZE+0x4bc>
     a6c:	00682e73 	rsbeq	r2, r8, r3, ror lr
     a70:	73000004 	movwvc	r0, #4
     a74:	64656863 	strbtvs	r6, [r5], #-2147	; 0xfffff79d
     a78:	72656c75 	rsbvc	r6, r5, #29952	; 0x7500
     a7c:	0400682e 	streq	r6, [r0], #-2094	; 0xfffff7d2
     a80:	05000000 	streq	r0, [r0, #-0]
     a84:	02050001 	andeq	r0, r5, #1
     a88:	70030fe0 	andvc	r0, r3, r0, ror #31
     a8c:	05010b03 	streq	r0, [r1, #-2819]	; 0xfffff4fd
     a90:	2f2f4b05 	svccs	0x002f4b05
     a94:	0530322f 	ldreq	r3, [r0, #-559]!	; 0xfffffdd1
     a98:	04022f01 	streq	r2, [r2], #-3841	; 0xfffff0ff
     a9c:	b5010100 	strlt	r0, [r1, #-256]	; 0xffffff00
     aa0:	02000001 	andeq	r0, r0, #1
     aa4:	00014e00 	andeq	r4, r1, r0, lsl #28
     aa8:	fb010200 	blx	412b2 <__kernel_size__+0x3fd7e>
     aac:	01000d0e 	tsteq	r0, lr, lsl #26
     ab0:	00010101 	andeq	r0, r1, r1, lsl #2
     ab4:	00010000 	andeq	r0, r1, r0
     ab8:	72730100 	rsbsvc	r0, r3, #0, 2
     abc:	6f2f0063 	svcvs	0x002f0063
     ac0:	582f7470 	stmdapl	pc!, {r4, r5, r6, sl, ip, sp, lr}	; <UNPREDICTABLE>
     ac4:	6e696c69 	cdpvs	12, 6, cr6, cr9, cr9, {3}
     ac8:	44532f78 	ldrbmi	r2, [r3], #-3960	; 0xfffff088
     acc:	30322f4b 	eorscc	r2, r2, fp, asr #30
     ad0:	312e3931 			; <UNDEFINED> instruction: 0x312e3931
     ad4:	756e672f 	strbvc	r6, [lr, #-1839]!	; 0xfffff8d1
     ad8:	7261612f 	rsbvc	r6, r1, #-1073741813	; 0xc000000b
     adc:	32336863 	eorscc	r6, r3, #6488064	; 0x630000
     ae0:	6e696c2f 	cdpvs	12, 6, cr6, cr9, cr15, {1}
     ae4:	6363672f 	cmnvs	r3, #12320768	; 0xbc0000
     ae8:	6d72612d 	ldfvse	f6, [r2, #-180]!	; 0xffffff4c
     aec:	6e6f6e2d 	cdpvs	14, 6, cr6, cr15, cr13, {1}
     af0:	61652d65 	cmnvs	r5, r5, ror #26
     af4:	612f6962 			; <UNDEFINED> instruction: 0x612f6962
     af8:	6e2d6d72 	mcrvs	13, 1, r6, cr13, cr2, {3}
     afc:	2d656e6f 	stclcs	14, cr6, [r5, #-444]!	; 0xfffffe44
     b00:	69626165 	stmdbvs	r2!, {r0, r2, r5, r6, r8, sp, lr}^
     b04:	62696c2f 	rsbvs	r6, r9, #12032	; 0x2f00
     b08:	73752f63 	cmnvc	r5, #396	; 0x18c
     b0c:	6e692f72 	mcrvs	15, 3, r2, cr9, cr2, {3}
     b10:	64756c63 	ldrbtvs	r6, [r5], #-3171	; 0xfffff39d
     b14:	616d2f65 	cmnvs	sp, r5, ror #30
     b18:	6e696863 	cdpvs	8, 6, cr6, cr9, cr3, {3}
     b1c:	6f2f0065 	svcvs	0x002f0065
     b20:	582f7470 	stmdapl	pc!, {r4, r5, r6, sl, ip, sp, lr}	; <UNPREDICTABLE>
     b24:	6e696c69 	cdpvs	12, 6, cr6, cr9, cr9, {3}
     b28:	44532f78 	ldrbmi	r2, [r3], #-3960	; 0xfffff088
     b2c:	30322f4b 	eorscc	r2, r2, fp, asr #30
     b30:	312e3931 			; <UNDEFINED> instruction: 0x312e3931
     b34:	756e672f 	strbvc	r6, [lr, #-1839]!	; 0xfffff8d1
     b38:	7261612f 	rsbvc	r6, r1, #-1073741813	; 0xc000000b
     b3c:	32336863 	eorscc	r6, r3, #6488064	; 0x630000
     b40:	6e696c2f 	cdpvs	12, 6, cr6, cr9, cr15, {1}
     b44:	6363672f 	cmnvs	r3, #12320768	; 0xbc0000
     b48:	6d72612d 	ldfvse	f6, [r2, #-180]!	; 0xffffff4c
     b4c:	6e6f6e2d 	cdpvs	14, 6, cr6, cr15, cr13, {1}
     b50:	61652d65 	cmnvs	r5, r5, ror #26
     b54:	612f6962 			; <UNDEFINED> instruction: 0x612f6962
     b58:	6e2d6d72 	mcrvs	13, 1, r6, cr13, cr2, {3}
     b5c:	2d656e6f 	stclcs	14, cr6, [r5, #-444]!	; 0xfffffe44
     b60:	69626165 	stmdbvs	r2!, {r0, r2, r5, r6, r8, sp, lr}^
     b64:	62696c2f 	rsbvs	r6, r9, #12032	; 0x2f00
     b68:	73752f63 	cmnvc	r5, #396	; 0x18c
     b6c:	6e692f72 	mcrvs	15, 3, r2, cr9, cr2, {3}
     b70:	64756c63 	ldrbtvs	r6, [r5], #-3171	; 0xfffff39d
     b74:	79732f65 	ldmdbvc	r3!, {r0, r2, r5, r6, r8, r9, sl, fp, sp}^
     b78:	72730073 	rsbsvc	r0, r3, #115	; 0x73
     b7c:	2e2e2f63 	cdpcs	15, 2, cr2, cr14, cr3, {3}
     b80:	636e692f 	cmnvs	lr, #770048	; 0xbc000
     b84:	656b0000 	strbvs	r0, [fp, #-0]!
     b88:	6c656e72 	stclvs	14, cr6, [r5], #-456	; 0xfffffe38
     b8c:	6e61685f 	mcrvs	8, 3, r6, cr1, cr15, {2}
     b90:	72656c64 	rsbvc	r6, r5, #100, 24	; 0x6400
     b94:	7172695f 	cmnvc	r2, pc, asr r9
     b98:	0100632e 	tsteq	r0, lr, lsr #6
     b9c:	645f0000 	ldrbvs	r0, [pc], #-0	; ba4 <SYS_STACK_SIZE+0x7a4>
     ba0:	75616665 	strbvc	r6, [r1, #-1637]!	; 0xfffff99b
     ba4:	745f746c 	ldrbvc	r7, [pc], #-1132	; bac <SYS_STACK_SIZE+0x7ac>
     ba8:	73657079 	cmnvc	r5, #121	; 0x79
     bac:	0200682e 	andeq	r6, r0, #3014656	; 0x2e0000
     bb0:	735f0000 	cmpvc	pc, #0
     bb4:	6e696474 	mcrvs	4, 3, r6, cr9, cr4, {3}
     bb8:	00682e74 	rsbeq	r2, r8, r4, ror lr
     bbc:	67000003 	strvs	r0, [r0, -r3]
     bc0:	682e6369 	stmdavs	lr!, {r0, r3, r5, r6, r8, r9, sp, lr}
     bc4:	00000400 	andeq	r0, r0, r0, lsl #8
     bc8:	656d6974 	strbvs	r6, [sp, #-2420]!	; 0xfffff68c
     bcc:	00682e72 	rsbeq	r2, r8, r2, ror lr
     bd0:	6d000004 	stcvs	0, cr0, [r0, #-16]
     bd4:	616d6d65 	cmnvs	sp, r5, ror #26
     bd8:	79735f70 	ldmdbvc	r3!, {r4, r5, r6, r8, r9, sl, fp, ip, lr}^
     bdc:	6c6f626d 	sfmvs	f6, 2, [pc], #-436	; a30 <SYS_STACK_SIZE+0x630>
     be0:	00682e73 	rsbeq	r2, r8, r3, ror lr
     be4:	73000004 	movwvc	r0, #4
     be8:	64656863 	strbtvs	r6, [r5], #-2147	; 0xfffff79d
     bec:	72656c75 	rsbvc	r6, r5, #29952	; 0x7500
     bf0:	0400682e 	streq	r6, [r0], #-2094	; 0xfffff7d2
     bf4:	05000000 	streq	r0, [r0, #-0]
     bf8:	02050001 	andeq	r0, r5, #1
     bfc:	70031008 	andvc	r1, r3, r8
     c00:	05010e03 	streq	r0, [r1, #-3587]	; 0xfffff1fd
     c04:	15058314 	strne	r8, [r5, #-788]	; 0xfffffcec
     c08:	680e054b 	stmdavs	lr, {r0, r1, r3, r6, r8, sl}
     c0c:	054c0f05 	strbeq	r0, [ip, #-3845]	; 0xfffff0fb
     c10:	05054a08 	streq	r4, [r5, #-2568]	; 0xfffff5f8
     c14:	6a14054d 	bvs	502150 <__kernel_size__+0x500c1c>
     c18:	054a2005 	strbeq	r2, [sl, #-5]
     c1c:	0d052e0c 	stceq	14, cr2, [r5, #-48]	; 0xffffffd0
     c20:	4b23054c 	blmi	8c2158 <__kernel_size__+0x8c0c24>
     c24:	056d0905 	strbeq	r0, [sp, #-2309]!	; 0xfffff6fb
     c28:	25052919 	strcs	r2, [r5, #-2329]	; 0xfffff6e7
     c2c:	2e11054a 	cfmac32cs	mvfx0, mvfx1, mvfx10
     c30:	054c2305 	strbeq	r2, [ip, #-773]	; 0xfffffcfb
     c34:	47316909 	ldrmi	r6, [r1, -r9, lsl #18]!
     c38:	0d031505 	cfstr32eq	mvfx1, [r3, #-20]	; 0xffffffec
     c3c:	6608052e 	strvs	r0, [r8], -lr, lsr #10
     c40:	054d0905 	strbeq	r0, [sp, #-2309]	; 0xfffff6fb
     c44:	09052f3a 	stmdbeq	r5, {r1, r3, r4, r5, r8, r9, sl, fp, sp}
     c48:	11059f66 	tstne	r5, r6, ror #30
     c4c:	68240531 	stmdavs	r4!, {r0, r4, r5, r8, sl}
     c50:	02f30105 	rscseq	r0, r3, #1073741825	; 0x40000001
     c54:	01010006 	tsteq	r1, r6
     c58:	0000023c 	andeq	r0, r0, ip, lsr r2
     c5c:	01410002 	cmpeq	r1, r2
     c60:	01020000 	mrseq	r0, (UNDEF: 2)
     c64:	000d0efb 	strdeq	r0, [sp], -fp
     c68:	01010101 	tsteq	r1, r1, lsl #2
     c6c:	01000000 	mrseq	r0, (UNDEF: 0)
     c70:	73010000 	movwvc	r0, #4096	; 0x1000
     c74:	2f006372 	svccs	0x00006372
     c78:	2f74706f 	svccs	0x0074706f
     c7c:	696c6958 	stmdbvs	ip!, {r3, r4, r6, r8, fp, sp, lr}^
     c80:	532f786e 			; <UNDEFINED> instruction: 0x532f786e
     c84:	322f4b44 	eorcc	r4, pc, #68, 22	; 0x11000
     c88:	2e393130 	mrccs	1, 1, r3, cr9, cr0, {1}
     c8c:	6e672f31 	mcrvs	15, 3, r2, cr7, cr1, {1}
     c90:	61612f75 	smcvs	4853	; 0x12f5
     c94:	33686372 	cmncc	r8, #-939524095	; 0xc8000001
     c98:	696c2f32 	stmdbvs	ip!, {r1, r4, r5, r8, r9, sl, fp, sp}^
     c9c:	63672f6e 	cmnvs	r7, #440	; 0x1b8
     ca0:	72612d63 	rsbvc	r2, r1, #6336	; 0x18c0
     ca4:	6f6e2d6d 	svcvs	0x006e2d6d
     ca8:	652d656e 	strvs	r6, [sp, #-1390]!	; 0xfffffa92
     cac:	2f696261 	svccs	0x00696261
     cb0:	2d6d7261 	sfmcs	f7, 2, [sp, #-388]!	; 0xfffffe7c
     cb4:	656e6f6e 	strbvs	r6, [lr, #-3950]!	; 0xfffff092
     cb8:	6261652d 	rsbvs	r6, r1, #188743680	; 0xb400000
     cbc:	696c2f69 	stmdbvs	ip!, {r0, r3, r5, r6, r8, r9, sl, fp, sp}^
     cc0:	752f6362 	strvc	r6, [pc, #-866]!	; 966 <SYS_STACK_SIZE+0x566>
     cc4:	692f7273 	stmdbvs	pc!, {r0, r1, r4, r5, r6, r9, ip, sp, lr}	; <UNPREDICTABLE>
     cc8:	756c636e 	strbvc	r6, [ip, #-878]!	; 0xfffffc92
     ccc:	6d2f6564 	cfstr32vs	mvfx6, [pc, #-400]!	; b44 <SYS_STACK_SIZE+0x744>
     cd0:	69686361 	stmdbvs	r8!, {r0, r5, r6, r8, r9, sp, lr}^
     cd4:	2f00656e 	svccs	0x0000656e
     cd8:	2f74706f 	svccs	0x0074706f
     cdc:	696c6958 	stmdbvs	ip!, {r3, r4, r6, r8, fp, sp, lr}^
     ce0:	532f786e 			; <UNDEFINED> instruction: 0x532f786e
     ce4:	322f4b44 	eorcc	r4, pc, #68, 22	; 0x11000
     ce8:	2e393130 	mrccs	1, 1, r3, cr9, cr0, {1}
     cec:	6e672f31 	mcrvs	15, 3, r2, cr7, cr1, {1}
     cf0:	61612f75 	smcvs	4853	; 0x12f5
     cf4:	33686372 	cmncc	r8, #-939524095	; 0xc8000001
     cf8:	696c2f32 	stmdbvs	ip!, {r1, r4, r5, r8, r9, sl, fp, sp}^
     cfc:	63672f6e 	cmnvs	r7, #440	; 0x1b8
     d00:	72612d63 	rsbvc	r2, r1, #6336	; 0x18c0
     d04:	6f6e2d6d 	svcvs	0x006e2d6d
     d08:	652d656e 	strvs	r6, [sp, #-1390]!	; 0xfffffa92
     d0c:	2f696261 	svccs	0x00696261
     d10:	2d6d7261 	sfmcs	f7, 2, [sp, #-388]!	; 0xfffffe7c
     d14:	656e6f6e 	strbvs	r6, [lr, #-3950]!	; 0xfffff092
     d18:	6261652d 	rsbvs	r6, r1, #188743680	; 0xb400000
     d1c:	696c2f69 	stmdbvs	ip!, {r0, r3, r5, r6, r8, r9, sl, fp, sp}^
     d20:	752f6362 	strvc	r6, [pc, #-866]!	; 9c6 <SYS_STACK_SIZE+0x5c6>
     d24:	692f7273 	stmdbvs	pc!, {r0, r1, r4, r5, r6, r9, ip, sp, lr}	; <UNPREDICTABLE>
     d28:	756c636e 	strbvc	r6, [ip, #-878]!	; 0xfffffc92
     d2c:	732f6564 			; <UNDEFINED> instruction: 0x732f6564
     d30:	73007379 	movwvc	r7, #889	; 0x379
     d34:	2e2f6372 	mcrcs	3, 1, r6, cr15, cr2, {3}
     d38:	6e692f2e 	cdpvs	15, 6, cr2, cr9, cr14, {1}
     d3c:	73000063 	movwvc	r0, #99	; 0x63
     d40:	64656863 	strbtvs	r6, [r5], #-2147	; 0xfffff79d
     d44:	72656c75 	rsbvc	r6, r5, #29952	; 0x7500
     d48:	0100632e 	tsteq	r0, lr, lsr #6
     d4c:	645f0000 	ldrbvs	r0, [pc], #-0	; d54 <SYS_STACK_SIZE+0x954>
     d50:	75616665 	strbvc	r6, [r1, #-1637]!	; 0xfffff99b
     d54:	745f746c 	ldrbvc	r7, [pc], #-1132	; d5c <SYS_STACK_SIZE+0x95c>
     d58:	73657079 	cmnvc	r5, #121	; 0x79
     d5c:	0200682e 	andeq	r6, r0, #3014656	; 0x2e0000
     d60:	735f0000 	cmpvc	pc, #0
     d64:	6e696474 	mcrvs	4, 3, r6, cr9, cr4, {3}
     d68:	00682e74 	rsbeq	r2, r8, r4, ror lr
     d6c:	6d000003 	stcvs	0, cr0, [r0, #-12]
     d70:	745f756d 	ldrbvc	r7, [pc], #-1389	; d78 <SYS_STACK_SIZE+0x978>
     d74:	736c6f6f 	cmnvc	ip, #444	; 0x1bc
     d78:	00682e5f 	rsbeq	r2, r8, pc, asr lr
     d7c:	6d000004 	stcvs	0, cr0, [r0, #-16]
     d80:	616d6d65 	cmnvs	sp, r5, ror #26
     d84:	79735f70 	ldmdbvc	r3!, {r4, r5, r6, r8, r9, sl, fp, ip, lr}^
     d88:	6c6f626d 	sfmvs	f6, 2, [pc], #-436	; bdc <SYS_STACK_SIZE+0x7dc>
     d8c:	00682e73 	rsbeq	r2, r8, r3, ror lr
     d90:	73000004 	movwvc	r0, #4
     d94:	64656863 	strbtvs	r6, [r5], #-2147	; 0xfffff79d
     d98:	72656c75 	rsbvc	r6, r5, #29952	; 0x7500
     d9c:	0400682e 	streq	r6, [r0], #-2094	; 0xfffff7d2
     da0:	05000000 	streq	r0, [r0, #-0]
     da4:	02050001 	andeq	r0, r5, #1
     da8:	70031120 	andvc	r1, r3, r0, lsr #2
     dac:	05011e03 	streq	r1, [r1, #-3587]	; 0xfffff1fd
     db0:	05056709 	streq	r6, [r5, #-1801]	; 0xfffff8f7
     db4:	300d054b 	andcc	r0, sp, fp, asr #10
     db8:	054c3a05 	strbeq	r3, [ip, #-2565]	; 0xfffff5fb
     dbc:	1f05821b 	svcne	0x0005821b
     dc0:	82260582 	eorhi	r0, r6, #545259520	; 0x20800000
     dc4:	052e2405 	streq	r2, [lr, #-1029]!	; 0xfffffbfb
     dc8:	09052f0a 	stmdbeq	r5, {r1, r3, r8, r9, sl, fp, sp}
     dcc:	001f0568 	andseq	r0, pc, r8, ror #10
     dd0:	30020402 	andcc	r0, r2, r2, lsl #8
     dd4:	02002305 	andeq	r2, r0, #335544320	; 0x14000000
     dd8:	05820204 	streq	r0, [r2, #516]	; 0x204
     ddc:	04020028 	streq	r0, [r2], #-40	; 0xffffffd8
     de0:	1a058202 	bne	1615f0 <__kernel_size__+0x1600bc>
     de4:	02040200 	andeq	r0, r4, #0, 4
     de8:	00090548 	andeq	r0, r9, r8, asr #10
     dec:	66010402 	strvs	r0, [r1], -r2, lsl #8
     df0:	0a031b05 	beq	c7a0c <__kernel_size__+0xc64d8>
     df4:	821f0566 	andshi	r0, pc, #427819008	; 0x19800000
     df8:	05822405 	streq	r2, [r2, #1029]	; 0x405
     dfc:	43054d3b 	movwmi	r4, #23867	; 0x5d3b
     e00:	9e1b0582 	cdpls	5, 1, cr0, cr11, cr2, {4}
     e04:	05822305 	streq	r2, [r2, #773]	; 0x305
     e08:	29059e28 	stmdbcs	r5, {r3, r5, r9, sl, fp, ip, pc}
     e0c:	821d054c 	andshi	r0, sp, #76, 10	; 0x13000000
     e10:	05831a05 	streq	r1, [r3, #2565]	; 0xa05
     e14:	1c05d730 	stcne	7, cr13, [r5], {48}	; 0x30
     e18:	2e1a0582 	cdpcs	5, 1, cr0, cr10, cr2, {4}
     e1c:	05bb3405 	ldreq	r3, [fp, #1029]!	; 0x405
     e20:	34058222 	strcc	r8, [r5], #-546	; 0xfffffdde
     e24:	822205d7 	eorhi	r0, r2, #901775360	; 0x35c00000
     e28:	05d73505 	ldrbeq	r3, [r7, #1285]	; 0x505
     e2c:	2205823d 	andcs	r8, r5, #-805306365	; 0xd0000003
     e30:	d735059e 			; <UNDEFINED> instruction: 0xd735059e
     e34:	05823d05 	streq	r3, [r2, #3333]	; 0xd05
     e38:	2a059e22 	bcs	1686c8 <__kernel_size__+0x167194>
     e3c:	821d05d7 	andshi	r0, sp, #901775360	; 0x35c00000
     e40:	63031c05 	movwvs	r1, #15365	; 0x3c05
     e44:	000505d6 	ldrdeq	r0, [r5], -r6
     e48:	66010402 	strvs	r0, [r1], -r2, lsl #8
     e4c:	22030105 	andcs	r0, r3, #1073741825	; 0x40000001
     e50:	0a058566 	beq	1623f0 <__kernel_size__+0x160ebc>
     e54:	d8290583 	stmdale	r9!, {r0, r1, r7, r8, sl}
     e58:	05ba0f05 	ldreq	r0, [sl, #3845]!	; 0xf05
     e5c:	21056608 	tstcs	r5, r8, lsl #12
     e60:	662d054c 	strtvs	r0, [sp], -ip, asr #10
     e64:	05bb0905 	ldreq	r0, [fp, #2309]!	; 0x905
     e68:	09052f3a 	stmdbeq	r5, {r1, r3, r4, r5, r8, r9, sl, fp, sp}
     e6c:	15059f66 	strne	r9, [r5, #-3942]	; 0xfffff09a
     e70:	830f0530 	movwhi	r0, #62768	; 0xf530
     e74:	05833105 	streq	r3, [r3, #261]	; 0x105
     e78:	41058236 	tstmi	r5, r6, lsr r2
     e7c:	16052008 	strne	r2, [r5], -r8
     e80:	6720059e 			; <UNDEFINED> instruction: 0x6720059e
     e84:	05664405 	strbeq	r4, [r6, #-1029]!	; 0xfffffbfb
     e88:	01059e09 	tsteq	r5, r9, lsl #28
     e8c:	2b150551 	blcs	5423d8 <__kernel_size__+0x540ea4>
     e90:	02850105 	addeq	r0, r5, #1073741825	; 0x40000001
     e94:	01010006 	tsteq	r1, r6
     e98:	00000179 	andeq	r0, r0, r9, ror r1
     e9c:	01200002 			; <UNDEFINED> instruction: 0x01200002
     ea0:	01020000 	mrseq	r0, (UNDEF: 2)
     ea4:	000d0efb 	strdeq	r0, [sp], -fp
     ea8:	01010101 	tsteq	r1, r1, lsl #2
     eac:	01000000 	mrseq	r0, (UNDEF: 0)
     eb0:	73010000 	movwvc	r0, #4096	; 0x1000
     eb4:	2f006372 	svccs	0x00006372
     eb8:	2f74706f 	svccs	0x0074706f
     ebc:	696c6958 	stmdbvs	ip!, {r3, r4, r6, r8, fp, sp, lr}^
     ec0:	532f786e 			; <UNDEFINED> instruction: 0x532f786e
     ec4:	322f4b44 	eorcc	r4, pc, #68, 22	; 0x11000
     ec8:	2e393130 	mrccs	1, 1, r3, cr9, cr0, {1}
     ecc:	6e672f31 	mcrvs	15, 3, r2, cr7, cr1, {1}
     ed0:	61612f75 	smcvs	4853	; 0x12f5
     ed4:	33686372 	cmncc	r8, #-939524095	; 0xc8000001
     ed8:	696c2f32 	stmdbvs	ip!, {r1, r4, r5, r8, r9, sl, fp, sp}^
     edc:	63672f6e 	cmnvs	r7, #440	; 0x1b8
     ee0:	72612d63 	rsbvc	r2, r1, #6336	; 0x18c0
     ee4:	6f6e2d6d 	svcvs	0x006e2d6d
     ee8:	652d656e 	strvs	r6, [sp, #-1390]!	; 0xfffffa92
     eec:	2f696261 	svccs	0x00696261
     ef0:	2d6d7261 	sfmcs	f7, 2, [sp, #-388]!	; 0xfffffe7c
     ef4:	656e6f6e 	strbvs	r6, [lr, #-3950]!	; 0xfffff092
     ef8:	6261652d 	rsbvs	r6, r1, #188743680	; 0xb400000
     efc:	696c2f69 	stmdbvs	ip!, {r0, r3, r5, r6, r8, r9, sl, fp, sp}^
     f00:	752f6362 	strvc	r6, [pc, #-866]!	; ba6 <SYS_STACK_SIZE+0x7a6>
     f04:	692f7273 	stmdbvs	pc!, {r0, r1, r4, r5, r6, r9, ip, sp, lr}	; <UNPREDICTABLE>
     f08:	756c636e 	strbvc	r6, [ip, #-878]!	; 0xfffffc92
     f0c:	6d2f6564 	cfstr32vs	mvfx6, [pc, #-400]!	; d84 <SYS_STACK_SIZE+0x984>
     f10:	69686361 	stmdbvs	r8!, {r0, r5, r6, r8, r9, sp, lr}^
     f14:	2f00656e 	svccs	0x0000656e
     f18:	2f74706f 	svccs	0x0074706f
     f1c:	696c6958 	stmdbvs	ip!, {r3, r4, r6, r8, fp, sp, lr}^
     f20:	532f786e 			; <UNDEFINED> instruction: 0x532f786e
     f24:	322f4b44 	eorcc	r4, pc, #68, 22	; 0x11000
     f28:	2e393130 	mrccs	1, 1, r3, cr9, cr0, {1}
     f2c:	6e672f31 	mcrvs	15, 3, r2, cr7, cr1, {1}
     f30:	61612f75 	smcvs	4853	; 0x12f5
     f34:	33686372 	cmncc	r8, #-939524095	; 0xc8000001
     f38:	696c2f32 	stmdbvs	ip!, {r1, r4, r5, r8, r9, sl, fp, sp}^
     f3c:	63672f6e 	cmnvs	r7, #440	; 0x1b8
     f40:	72612d63 	rsbvc	r2, r1, #6336	; 0x18c0
     f44:	6f6e2d6d 	svcvs	0x006e2d6d
     f48:	652d656e 	strvs	r6, [sp, #-1390]!	; 0xfffffa92
     f4c:	2f696261 	svccs	0x00696261
     f50:	2d6d7261 	sfmcs	f7, 2, [sp, #-388]!	; 0xfffffe7c
     f54:	656e6f6e 	strbvs	r6, [lr, #-3950]!	; 0xfffff092
     f58:	6261652d 	rsbvs	r6, r1, #188743680	; 0xb400000
     f5c:	696c2f69 	stmdbvs	ip!, {r0, r3, r5, r6, r8, r9, sl, fp, sp}^
     f60:	752f6362 	strvc	r6, [pc, #-866]!	; c06 <SYS_STACK_SIZE+0x806>
     f64:	692f7273 	stmdbvs	pc!, {r0, r1, r4, r5, r6, r9, ip, sp, lr}	; <UNPREDICTABLE>
     f68:	756c636e 	strbvc	r6, [ip, #-878]!	; 0xfffffc92
     f6c:	732f6564 			; <UNDEFINED> instruction: 0x732f6564
     f70:	73007379 	movwvc	r7, #889	; 0x379
     f74:	2e2f6372 	mcrcs	3, 1, r6, cr15, cr2, {3}
     f78:	6e692f2e 	cdpvs	15, 6, cr2, cr9, cr14, {1}
     f7c:	74000063 	strvc	r0, [r0], #-99	; 0xffffff9d
     f80:	61657261 	cmnvs	r5, r1, ror #4
     f84:	632e315f 			; <UNDEFINED> instruction: 0x632e315f
     f88:	00000100 	andeq	r0, r0, r0, lsl #2
     f8c:	6665645f 			; <UNDEFINED> instruction: 0x6665645f
     f90:	746c7561 	strbtvc	r7, [ip], #-1377	; 0xfffffa9f
     f94:	7079745f 	rsbsvc	r7, r9, pc, asr r4
     f98:	682e7365 	stmdavs	lr!, {r0, r2, r5, r6, r8, r9, ip, sp, lr}
     f9c:	00000200 	andeq	r0, r0, r0, lsl #4
     fa0:	6474735f 	ldrbtvs	r7, [r4], #-863	; 0xfffffca1
     fa4:	2e746e69 	cdpcs	14, 7, cr6, cr4, cr9, {3}
     fa8:	00030068 	andeq	r0, r3, r8, rrx
     fac:	6d656d00 	stclvs	13, cr6, [r5, #-0]
     fb0:	5f70616d 	svcpl	0x0070616d
     fb4:	626d7973 	rsbvs	r7, sp, #1884160	; 0x1cc000
     fb8:	2e736c6f 	cdpcs	12, 7, cr6, cr3, cr15, {3}
     fbc:	00040068 	andeq	r0, r4, r8, rrx
     fc0:	01050000 	mrseq	r0, (UNDEF: 5)
     fc4:	00020500 	andeq	r0, r2, r0, lsl #10
     fc8:	1670f500 	ldrbtne	pc, [r0], -r0, lsl #10	; <UNPREDICTABLE>
     fcc:	05670905 	strbeq	r0, [r7, #-2309]!	; 0xfffff6fb
     fd0:	21054b0e 	tstcs	r5, lr, lsl #22
     fd4:	4d10054a 	cfldr32mi	mvfx0, [r0, #-296]	; 0xfffffed8
     fd8:	054a0905 	strbeq	r0, [sl, #-2309]	; 0xfffff6fb
     fdc:	1b053047 	blne	14d100 <__kernel_size__+0x14bbcc>
     fe0:	4b2c059e 	blmi	b02660 <__kernel_size__+0xb0112c>
     fe4:	059e3105 	ldreq	r3, [lr, #261]	; 0x105
     fe8:	2105674d 	tstcs	r5, sp, asr #14
     fec:	4b10059e 	blmi	40266c <__kernel_size__+0x401138>
     ff0:	05a03005 	streq	r3, [r0, #5]!
     ff4:	26059e35 			; <UNDEFINED> instruction: 0x26059e35
     ff8:	02040200 	andeq	r0, r4, #0, 4
     ffc:	054a7903 	strbeq	r7, [sl, #-2307]	; 0xfffff6fd
    1000:	04020009 	streq	r0, [r2], #-9
    1004:	0b056601 	bleq	15a810 <__kernel_size__+0x1592dc>
    1008:	05660a03 	strbeq	r0, [r6, #-2563]!	; 0xfffff5fd
    100c:	4a760310 	bmi	1d81c54 <__kernel_size__+0x1d80720>
    1010:	01000202 	tsteq	r0, r2, lsl #4
    1014:	00017501 	andeq	r7, r1, r1, lsl #10
    1018:	20000200 	andcs	r0, r0, r0, lsl #4
    101c:	02000001 	andeq	r0, r0, #1
    1020:	0d0efb01 	vstreq	d15, [lr, #-4]
    1024:	01010100 	mrseq	r0, (UNDEF: 17)
    1028:	00000001 	andeq	r0, r0, r1
    102c:	01000001 	tsteq	r0, r1
    1030:	00637273 	rsbeq	r7, r3, r3, ror r2
    1034:	74706f2f 	ldrbtvc	r6, [r0], #-3887	; 0xfffff0d1
    1038:	6c69582f 	stclvs	8, cr5, [r9], #-188	; 0xffffff44
    103c:	2f786e69 	svccs	0x00786e69
    1040:	2f4b4453 	svccs	0x004b4453
    1044:	39313032 	ldmdbcc	r1!, {r1, r4, r5, ip, sp}
    1048:	672f312e 	strvs	r3, [pc, -lr, lsr #2]!
    104c:	612f756e 			; <UNDEFINED> instruction: 0x612f756e
    1050:	68637261 	stmdavs	r3!, {r0, r5, r6, r9, ip, sp, lr}^
    1054:	6c2f3233 	sfmvs	f3, 4, [pc], #-204	; f90 <SYS_STACK_SIZE+0xb90>
    1058:	672f6e69 	strvs	r6, [pc, -r9, ror #28]!
    105c:	612d6363 			; <UNDEFINED> instruction: 0x612d6363
    1060:	6e2d6d72 	mcrvs	13, 1, r6, cr13, cr2, {3}
    1064:	2d656e6f 	stclcs	14, cr6, [r5, #-444]!	; 0xfffffe44
    1068:	69626165 	stmdbvs	r2!, {r0, r2, r5, r6, r8, sp, lr}^
    106c:	6d72612f 	ldfvse	f6, [r2, #-188]!	; 0xffffff44
    1070:	6e6f6e2d 	cdpvs	14, 6, cr6, cr15, cr13, {1}
    1074:	61652d65 	cmnvs	r5, r5, ror #26
    1078:	6c2f6962 			; <UNDEFINED> instruction: 0x6c2f6962
    107c:	2f636269 	svccs	0x00636269
    1080:	2f727375 	svccs	0x00727375
    1084:	6c636e69 	stclvs	14, cr6, [r3], #-420	; 0xfffffe5c
    1088:	2f656475 	svccs	0x00656475
    108c:	6863616d 	stmdavs	r3!, {r0, r2, r3, r5, r6, r8, sp, lr}^
    1090:	00656e69 	rsbeq	r6, r5, r9, ror #28
    1094:	74706f2f 	ldrbtvc	r6, [r0], #-3887	; 0xfffff0d1
    1098:	6c69582f 	stclvs	8, cr5, [r9], #-188	; 0xffffff44
    109c:	2f786e69 	svccs	0x00786e69
    10a0:	2f4b4453 	svccs	0x004b4453
    10a4:	39313032 	ldmdbcc	r1!, {r1, r4, r5, ip, sp}
    10a8:	672f312e 	strvs	r3, [pc, -lr, lsr #2]!
    10ac:	612f756e 			; <UNDEFINED> instruction: 0x612f756e
    10b0:	68637261 	stmdavs	r3!, {r0, r5, r6, r9, ip, sp, lr}^
    10b4:	6c2f3233 	sfmvs	f3, 4, [pc], #-204	; ff0 <SYS_STACK_SIZE+0xbf0>
    10b8:	672f6e69 	strvs	r6, [pc, -r9, ror #28]!
    10bc:	612d6363 			; <UNDEFINED> instruction: 0x612d6363
    10c0:	6e2d6d72 	mcrvs	13, 1, r6, cr13, cr2, {3}
    10c4:	2d656e6f 	stclcs	14, cr6, [r5, #-444]!	; 0xfffffe44
    10c8:	69626165 	stmdbvs	r2!, {r0, r2, r5, r6, r8, sp, lr}^
    10cc:	6d72612f 	ldfvse	f6, [r2, #-188]!	; 0xffffff44
    10d0:	6e6f6e2d 	cdpvs	14, 6, cr6, cr15, cr13, {1}
    10d4:	61652d65 	cmnvs	r5, r5, ror #26
    10d8:	6c2f6962 			; <UNDEFINED> instruction: 0x6c2f6962
    10dc:	2f636269 	svccs	0x00636269
    10e0:	2f727375 	svccs	0x00727375
    10e4:	6c636e69 	stclvs	14, cr6, [r3], #-420	; 0xfffffe5c
    10e8:	2f656475 	svccs	0x00656475
    10ec:	00737973 	rsbseq	r7, r3, r3, ror r9
    10f0:	2f637273 	svccs	0x00637273
    10f4:	692f2e2e 	stmdbvs	pc!, {r1, r2, r3, r5, r9, sl, fp, sp}	; <UNPREDICTABLE>
    10f8:	0000636e 	andeq	r6, r0, lr, ror #6
    10fc:	65726174 	ldrbvs	r6, [r2, #-372]!	; 0xfffffe8c
    1100:	2e325f61 	cdpcs	15, 3, cr5, cr2, cr1, {3}
    1104:	00010063 	andeq	r0, r1, r3, rrx
    1108:	65645f00 	strbvs	r5, [r4, #-3840]!	; 0xfffff100
    110c:	6c756166 	ldfvse	f6, [r5], #-408	; 0xfffffe68
    1110:	79745f74 	ldmdbvc	r4!, {r2, r4, r5, r6, r8, r9, sl, fp, ip, lr}^
    1114:	2e736570 	mrccs	5, 3, r6, cr3, cr0, {3}
    1118:	00020068 	andeq	r0, r2, r8, rrx
    111c:	74735f00 	ldrbtvc	r5, [r3], #-3840	; 0xfffff100
    1120:	746e6964 	strbtvc	r6, [lr], #-2404	; 0xfffff69c
    1124:	0300682e 	movweq	r6, #2094	; 0x82e
    1128:	656d0000 	strbvs	r0, [sp, #-0]!
    112c:	70616d6d 	rsbvc	r6, r1, sp, ror #26
    1130:	6d79735f 	ldclvs	3, cr7, [r9, #-380]!	; 0xfffffe84
    1134:	736c6f62 	cmnvc	ip, #392	; 0x188
    1138:	0400682e 	streq	r6, [r0], #-2094	; 0xfffff7d2
    113c:	05000000 	streq	r0, [r0, #-0]
    1140:	02050001 	andeq	r0, r5, #1
    1144:	70f40000 	rscsvc	r0, r4, r0
    1148:	67090516 	smladvs	r9, r6, r5, r0
    114c:	054d1005 	strbeq	r1, [sp, #-5]
    1150:	60054a09 	andvs	r4, r5, r9, lsl #20
    1154:	03040200 	movweq	r0, #16896	; 0x4200
    1158:	00360530 	eorseq	r0, r6, r0, lsr r5
    115c:	9e030402 	cdpls	4, 0, cr0, cr3, cr2, {0}
    1160:	02002c05 	andeq	r2, r0, #1280	; 0x500
    1164:	052e0304 	streq	r0, [lr, #-772]!	; 0xfffffcfc
    1168:	04020033 	streq	r0, [r2], #-51	; 0xffffffcd
    116c:	31059e03 	tstcc	r5, r3, lsl #28
    1170:	03040200 	movweq	r0, #16896	; 0x4200
    1174:	0026052e 	eoreq	r0, r6, lr, lsr #10
    1178:	2c030402 	cfstrscs	mvf0, [r3], {2}
    117c:	02000905 	andeq	r0, r0, #81920	; 0x14000
    1180:	05660104 	strbeq	r0, [r6, #-260]!	; 0xfffffefc
    1184:	10056a0b 	andne	r6, r5, fp, lsl #20
    1188:	00020246 	andeq	r0, r2, r6, asr #4
    118c:	013f0101 	teqeq	pc, r1, lsl #2
    1190:	00020000 	andeq	r0, r2, r0
    1194:	00000123 	andeq	r0, r0, r3, lsr #2
    1198:	0efb0102 	cdpeq	1, 15, cr0, cr11, cr2, {0}
    119c:	0101000d 	tsteq	r1, sp
    11a0:	00000101 	andeq	r0, r0, r1, lsl #2
    11a4:	00000100 	andeq	r0, r0, r0, lsl #2
    11a8:	63727301 	cmnvs	r2, #67108864	; 0x4000000
    11ac:	706f2f00 	rsbvc	r2, pc, r0, lsl #30
    11b0:	69582f74 	ldmdbvs	r8, {r2, r4, r5, r6, r8, r9, sl, fp, sp}^
    11b4:	786e696c 	stmdavc	lr!, {r2, r3, r5, r6, r8, fp, sp, lr}^
    11b8:	4b44532f 	blmi	1115e7c <__kernel_size__+0x1114948>
    11bc:	3130322f 	teqcc	r0, pc, lsr #4
    11c0:	2f312e39 	svccs	0x00312e39
    11c4:	2f756e67 	svccs	0x00756e67
    11c8:	63726161 	cmnvs	r2, #1073741848	; 0x40000018
    11cc:	2f323368 	svccs	0x00323368
    11d0:	2f6e696c 	svccs	0x006e696c
    11d4:	2d636367 	stclcs	3, cr6, [r3, #-412]!	; 0xfffffe64
    11d8:	2d6d7261 	sfmcs	f7, 2, [sp, #-388]!	; 0xfffffe7c
    11dc:	656e6f6e 	strbvs	r6, [lr, #-3950]!	; 0xfffff092
    11e0:	6261652d 	rsbvs	r6, r1, #188743680	; 0xb400000
    11e4:	72612f69 	rsbvc	r2, r1, #420	; 0x1a4
    11e8:	6f6e2d6d 	svcvs	0x006e2d6d
    11ec:	652d656e 	strvs	r6, [sp, #-1390]!	; 0xfffffa92
    11f0:	2f696261 	svccs	0x00696261
    11f4:	6362696c 	cmnvs	r2, #108, 18	; 0x1b0000
    11f8:	7273752f 	rsbsvc	r7, r3, #197132288	; 0xbc00000
    11fc:	636e692f 	cmnvs	lr, #770048	; 0xbc000
    1200:	6564756c 	strbvs	r7, [r4, #-1388]!	; 0xfffffa94
    1204:	63616d2f 	cmnvs	r1, #3008	; 0xbc0
    1208:	656e6968 	strbvs	r6, [lr, #-2408]!	; 0xfffff698
    120c:	706f2f00 	rsbvc	r2, pc, r0, lsl #30
    1210:	69582f74 	ldmdbvs	r8, {r2, r4, r5, r6, r8, r9, sl, fp, sp}^
    1214:	786e696c 	stmdavc	lr!, {r2, r3, r5, r6, r8, fp, sp, lr}^
    1218:	4b44532f 	blmi	1115edc <__kernel_size__+0x11149a8>
    121c:	3130322f 	teqcc	r0, pc, lsr #4
    1220:	2f312e39 	svccs	0x00312e39
    1224:	2f756e67 	svccs	0x00756e67
    1228:	63726161 	cmnvs	r2, #1073741848	; 0x40000018
    122c:	2f323368 	svccs	0x00323368
    1230:	2f6e696c 	svccs	0x006e696c
    1234:	2d636367 	stclcs	3, cr6, [r3, #-412]!	; 0xfffffe64
    1238:	2d6d7261 	sfmcs	f7, 2, [sp, #-388]!	; 0xfffffe7c
    123c:	656e6f6e 	strbvs	r6, [lr, #-3950]!	; 0xfffff092
    1240:	6261652d 	rsbvs	r6, r1, #188743680	; 0xb400000
    1244:	72612f69 	rsbvc	r2, r1, #420	; 0x1a4
    1248:	6f6e2d6d 	svcvs	0x006e2d6d
    124c:	652d656e 	strvs	r6, [sp, #-1390]!	; 0xfffffa92
    1250:	2f696261 	svccs	0x00696261
    1254:	6362696c 	cmnvs	r2, #108, 18	; 0x1b0000
    1258:	7273752f 	rsbsvc	r7, r3, #197132288	; 0xbc00000
    125c:	636e692f 	cmnvs	lr, #770048	; 0xbc000
    1260:	6564756c 	strbvs	r7, [r4, #-1388]!	; 0xfffffa94
    1264:	7379732f 	cmnvc	r9, #-1140850688	; 0xbc000000
    1268:	63727300 	cmnvs	r2, #0, 6
    126c:	2f2e2e2f 	svccs	0x002e2e2f
    1270:	00636e69 	rsbeq	r6, r3, r9, ror #28
    1274:	72617400 	rsbvc	r7, r1, #0, 8
    1278:	695f6165 	ldmdbvs	pc, {r0, r2, r5, r6, r8, sp, lr}^	; <UNPREDICTABLE>
    127c:	2e656c64 	cdpcs	12, 6, cr6, cr5, cr4, {3}
    1280:	00010063 	andeq	r0, r1, r3, rrx
    1284:	65645f00 	strbvs	r5, [r4, #-3840]!	; 0xfffff100
    1288:	6c756166 	ldfvse	f6, [r5], #-408	; 0xfffffe68
    128c:	79745f74 	ldmdbvc	r4!, {r2, r4, r5, r6, r8, r9, sl, fp, ip, lr}^
    1290:	2e736570 	mrccs	5, 3, r6, cr3, cr0, {3}
    1294:	00020068 	andeq	r0, r2, r8, rrx
    1298:	74735f00 	ldrbtvc	r5, [r3], #-3840	; 0xfffff100
    129c:	746e6964 	strbtvc	r6, [lr], #-2404	; 0xfffff69c
    12a0:	0300682e 	movweq	r6, #2094	; 0x82e
    12a4:	656d0000 	strbvs	r0, [sp, #-0]!
    12a8:	70616d6d 	rsbvc	r6, r1, sp, ror #26
    12ac:	6d79735f 	ldclvs	3, cr7, [r9, #-380]!	; 0xfffffe84
    12b0:	736c6f62 	cmnvc	ip, #392	; 0x188
    12b4:	0400682e 	streq	r6, [r0], #-2094	; 0xfffff7d2
    12b8:	05000000 	streq	r0, [r0, #-0]
    12bc:	02050001 	andeq	r0, r5, #1
    12c0:	70034000 	andvc	r4, r3, r0
    12c4:	00090515 	andeq	r0, r9, r5, lsl r5
    12c8:	4d010402 	cfstrsmi	mvf0, [r1, #-8]
    12cc:	01000402 	tsteq	r0, r2, lsl #8
    12d0:	Address 0x00000000000012d0 is out of bounds.


Disassembly of section .debug_str:

00000000 <.debug_str>:
       0:	5f524944 	svcpl	0x00524944
       4:	00414d4c 	subeq	r4, r1, ip, asr #26
       8:	59535f5f 	ldmdbpl	r3, {r0, r1, r2, r3, r4, r6, r8, r9, sl, fp, ip, lr}^
       c:	42415453 	submi	r5, r1, #1392508928	; 0x53000000
      10:	5f53454c 	svcpl	0x0053454c
      14:	53594850 	cmppl	r9, #80, 16	; 0x500000
      18:	4c414349 	mcrrmi	3, 4, r4, r1, cr9
      1c:	545f5f00 	ldrbpl	r5, [pc], #-3840	; 24 <SYS_MODE+0x5>
      20:	41455241 	cmpmi	r5, r1, asr #4
      24:	505f325f 	subspl	r3, pc, pc, asr r2	; <UNPREDICTABLE>
      28:	5f414c49 	svcpl	0x00414c49
      2c:	5f444e55 	svcpl	0x00444e55
      30:	00414d56 	subeq	r4, r1, r6, asr sp
      34:	41545f5f 	cmpmi	r4, pc, asr pc
      38:	5f414552 	svcpl	0x00414552
      3c:	49505f32 	ldmdbmi	r0, {r1, r4, r5, r8, r9, sl, fp, ip, lr}^
      40:	415f414c 	cmpmi	pc, ip, asr #2
      44:	565f5442 	ldrbpl	r5, [pc], -r2, asr #8
      48:	5f00414d 	svcpl	0x0000414d
      4c:	5345525f 	movtpl	r5, #21087	; 0x525f
      50:	505f5445 	subspl	r5, pc, r5, asr #8
      54:	49535948 	ldmdbmi	r3, {r3, r6, r8, fp, ip, lr}^
      58:	004c4143 	subeq	r4, ip, r3, asr #2
      5c:	44495f5f 	strbmi	r5, [r9], #-3935	; 0xfffff0a1
      60:	545f454c 	ldrbpl	r4, [pc], #-1356	; 68 <table_size+0x28>
      64:	505f5458 	subspl	r5, pc, r8, asr r4	; <UNPREDICTABLE>
      68:	5f005948 	svcpl	0x00005948
      6c:	5345525f 	movtpl	r5, #21087	; 0x525f
      70:	565f5445 	ldrbpl	r5, [pc], -r5, asr #8
      74:	5f00414d 	svcpl	0x0000414d
      78:	52454b5f 	subpl	r4, r5, #97280	; 0x17c00
      7c:	5f4c454e 	svcpl	0x004c454e
      80:	414c4950 	cmpmi	ip, r0, asr r9
      84:	5948505f 	stmdbpl	r8, {r0, r1, r2, r3, r4, r6, ip, lr}^
      88:	4b5f5f00 	blmi	17d7c90 <__kernel_size__+0x17d675c>
      8c:	454e5245 	strbmi	r5, [lr, #-581]	; 0xfffffdbb
      90:	53425f4c 	movtpl	r5, #12108	; 0x2f4c
      94:	4d565f53 	ldclmi	15, cr5, [r6, #-332]	; 0xfffffeb4
      98:	72730041 	rsbsvc	r0, r3, #65	; 0x41
      9c:	656d2f63 	strbvs	r2, [sp, #-3939]!	; 0xfffff09d
      a0:	7970636d 	ldmdbvc	r0!, {r0, r2, r3, r5, r6, r8, r9, sp, lr}^
      a4:	7300632e 	movwvc	r6, #814	; 0x32e
      a8:	74726f68 	ldrbtvc	r6, [r2], #-3944	; 0xfffff098
      ac:	746e6920 	strbtvc	r6, [lr], #-2336	; 0xfffff6e0
      b0:	52494400 	subpl	r4, r9, #0, 8
      b4:	5948505f 	stmdbpl	r8, {r0, r1, r2, r3, r4, r6, ip, lr}^
      b8:	545f5f00 	ldrbpl	r5, [pc], #-3840	; c0 <__kernel_data_size__>
      bc:	41455241 	cmpmi	r5, r1, asr #4
      c0:	425f325f 	subsmi	r3, pc, #-268435451	; 0xf0000005
      c4:	565f5353 			; <UNDEFINED> instruction: 0x565f5353
      c8:	5f00414d 	svcpl	0x0000414d
      cc:	7461645f 	strbtvc	r6, [r1], #-1119	; 0xfffffba1
      d0:	61745f61 	cmnvs	r4, r1, ror #30
      d4:	5f616572 	svcpl	0x00616572
      d8:	69735f32 	ldmdbvs	r3!, {r1, r4, r5, r8, r9, sl, fp, ip, lr}^
      dc:	5f5f657a 	svcpl	0x005f657a
      e0:	6b5f5f00 	blvs	17d7ce8 <__kernel_size__+0x17d67b4>
      e4:	656e7265 	strbvs	r7, [lr, #-613]!	; 0xfffffd9b
      e8:	73625f6c 	cmnvc	r2, #108, 30	; 0x1b0
      ec:	69735f73 	ldmdbvs	r3!, {r0, r1, r4, r5, r6, r8, r9, sl, fp, ip, lr}^
      f0:	5f5f657a 	svcpl	0x005f657a
      f4:	4b5f5f00 	blmi	17d7cfc <__kernel_size__+0x17d67c8>
      f8:	454e5245 	strbmi	r5, [lr, #-581]	; 0xfffffdbb
      fc:	4f525f4c 	svcmi	0x00525f4c
     100:	41544144 	cmpmi	r4, r4, asr #2
     104:	414d4c5f 	cmpmi	sp, pc, asr ip
     108:	55505f00 	ldrbpl	r5, [r0, #-3840]	; 0xfffff100
     10c:	43494c42 	movtmi	r4, #40002	; 0x9c42
     110:	4d41525f 	sfmmi	f5, 2, [r1, #-380]	; 0xfffffe84
     114:	494e495f 	stmdbmi	lr, {r0, r1, r2, r3, r4, r6, r8, fp, lr}^
     118:	5f5f0054 	svcpl	0x005f0054
     11c:	45524154 	ldrbmi	r4, [r2, #-340]	; 0xfffffeac
     120:	5f315f41 	svcpl	0x00315f41
     124:	41444f52 	cmpmi	r4, r2, asr pc
     128:	505f4154 	subspl	r4, pc, r4, asr r1	; <UNPREDICTABLE>
     12c:	5f005948 	svcpl	0x00005948
     130:	4c425550 	cfstr64mi	mvdx5, [r2], {80}	; 0x50
     134:	535f4349 	cmppl	pc, #603979777	; 0x24000001
     138:	4b434154 	blmi	10d0690 <__kernel_size__+0x10cf15c>
     13c:	494e495f 	stmdbmi	lr, {r0, r1, r2, r3, r4, r6, r8, fp, lr}^
     140:	5f5f0054 	svcpl	0x005f0054
     144:	45524154 	ldrbmi	r4, [r2, #-340]	; 0xfffffeac
     148:	5f315f41 	svcpl	0x00315f41
     14c:	414c4950 	cmpmi	ip, r0, asr r9
     150:	414d565f 	cmpmi	sp, pc, asr r6
     154:	51524900 	cmppl	r2, r0, lsl #18
     158:	4154535f 	cmpmi	r4, pc, asr r3
     15c:	535f4b43 	cmppl	pc, #68608	; 0x10c00
     160:	00455a49 	subeq	r5, r5, r9, asr #20
     164:	69755f5f 	ldmdbvs	r5!, {r0, r1, r2, r3, r4, r6, r8, r9, sl, fp, ip, lr}^
     168:	3233746e 	eorscc	r7, r3, #1845493760	; 0x6e000000
     16c:	5f00745f 	svcpl	0x0000745f
     170:	5241545f 	subpl	r5, r1, #1593835520	; 0x5f000000
     174:	325f4145 	subscc	r4, pc, #1073741841	; 0x40000011
     178:	4c49505f 	mcrrmi	0, 5, r5, r9, cr15
     17c:	4e555f41 	cdpmi	15, 5, cr5, cr5, cr1, {2}
     180:	48505f44 	ldmdami	r0, {r2, r6, r8, r9, sl, fp, ip, lr}^
     184:	5f5f0059 	svcpl	0x005f0059
     188:	45524154 	ldrbmi	r4, [r2, #-340]	; 0xfffffeac
     18c:	5f315f41 	svcpl	0x00315f41
     190:	5f535342 	svcpl	0x00535342
     194:	00414d4c 	subeq	r4, r1, ip, asr #26
     198:	41545f5f 	cmpmi	r4, pc, asr pc
     19c:	5f414552 	svcpl	0x00414552
     1a0:	53425f31 	movtpl	r5, #12081	; 0x2f31
     1a4:	4d565f53 	ldclmi	15, cr5, [r6, #-332]	; 0xfffffeb4
     1a8:	5f5f0041 	svcpl	0x005f0041
     1ac:	4e52454b 	cdpmi	5, 5, cr4, cr2, cr11, {2}
     1b0:	445f4c45 	ldrbmi	r4, [pc], #-3141	; 1b8 <TASK_1_STACK_SIZE+0xb8>
     1b4:	5f415441 	svcpl	0x00415441
     1b8:	00414d4c 	subeq	r4, r1, ip, asr #26
     1bc:	41545f5f 	cmpmi	r4, pc, asr pc
     1c0:	5f414552 	svcpl	0x00414552
     1c4:	53425f32 	movtpl	r5, #12082	; 0x2f32
     1c8:	48505f53 	ldmdami	r0, {r0, r1, r4, r6, r8, r9, sl, fp, ip, lr}^
     1cc:	5f5f0059 	svcpl	0x005f0059
     1d0:	45524154 	ldrbmi	r4, [r2, #-340]	; 0xfffffeac
     1d4:	5f325f41 	svcpl	0x00325f41
     1d8:	414c4950 	cmpmi	ip, r0, asr r9
     1dc:	4356535f 	cmpmi	r6, #2080374785	; 0x7c000001
     1e0:	414d565f 	cmpmi	sp, pc, asr r6
     1e4:	545f5f00 	ldrbpl	r5, [pc], #-3840	; 1ec <TASK_1_STACK_SIZE+0xec>
     1e8:	41455241 	cmpmi	r5, r1, asr #4
     1ec:	545f325f 	ldrbpl	r3, [pc], #-607	; 1f4 <TASK_1_STACK_SIZE+0xf4>
     1f0:	4c5f5458 	cfldrdmi	mvd5, [pc], {88}	; 0x58
     1f4:	5f00414d 	svcpl	0x0000414d
     1f8:	52454b5f 	subpl	r4, r5, #97280	; 0x17c00
     1fc:	5f4c454e 	svcpl	0x004c454e
     200:	414c4950 	cmpmi	ip, r0, asr r9
     204:	5442415f 	strbpl	r4, [r2], #-351	; 0xfffffea1
     208:	414d565f 	cmpmi	sp, pc, asr r6
     20c:	4b5f5f00 	blmi	17d7e14 <__kernel_size__+0x17d68e0>
     210:	454e5245 	strbmi	r5, [lr, #-581]	; 0xfffffdbb
     214:	53425f4c 	movtpl	r5, #12108	; 0x2f4c
     218:	4d4c5f53 	stclmi	15, cr5, [ip, #-332]	; 0xfffffeb4
     21c:	5f5f0041 	svcpl	0x005f0041
     220:	61646f72 	smcvs	18162	; 0x46f2
     224:	745f6174 	ldrbvc	r6, [pc], #-372	; 22c <TASK_1_STACK_SIZE+0x12c>
     228:	61657261 	cmnvs	r5, r1, ror #4
     22c:	735f325f 	cmpvc	pc, #-268435451	; 0xf0000005
     230:	5f657a69 	svcpl	0x00657a69
     234:	4154005f 	cmpmi	r4, pc, asr r0
     238:	495f4b53 	ldmdbmi	pc, {r0, r1, r4, r6, r8, r9, fp, lr}^	; <UNPREDICTABLE>
     23c:	5f454c44 	svcpl	0x00454c44
     240:	43415453 	movtmi	r5, #5203	; 0x1453
     244:	49535f4b 	ldmdbmi	r3, {r0, r1, r3, r6, r8, r9, sl, fp, ip, lr}^
     248:	5f00455a 	svcpl	0x0000455a
     24c:	5241545f 	subpl	r5, r1, #1593835520	; 0x5f000000
     250:	325f4145 	subscc	r4, pc, #1073741841	; 0x40000011
     254:	4c49505f 	mcrrmi	0, 5, r5, r9, cr15
     258:	59535f41 	ldmdbpl	r3, {r0, r6, r8, r9, sl, fp, ip, lr}^
     25c:	48505f53 	ldmdami	r0, {r0, r1, r4, r6, r8, r9, sl, fp, ip, lr}^
     260:	5f5f0059 	svcpl	0x005f0059
     264:	45524154 	ldrbmi	r4, [r2, #-340]	; 0xfffffeac
     268:	5f315f41 	svcpl	0x00315f41
     26c:	5f545854 	svcpl	0x00545854
     270:	00414d56 	subeq	r4, r1, r6, asr sp
     274:	41545f5f 	cmpmi	r4, pc, asr pc
     278:	5f414552 	svcpl	0x00414552
     27c:	41445f31 	cmpmi	r4, r1, lsr pc
     280:	505f4154 	subspl	r4, pc, r4, asr r1	; <UNPREDICTABLE>
     284:	47005948 	strmi	r5, [r0, -r8, asr #18]
     288:	4320554e 			; <UNDEFINED> instruction: 0x4320554e
     28c:	38203939 	stmdacc	r0!, {r0, r3, r4, r5, r8, fp, ip, sp}
     290:	302e322e 	eorcc	r3, lr, lr, lsr #4
     294:	616d2d20 	cmnvs	sp, r0, lsr #26
     298:	2d206d72 	stccs	13, cr6, [r0, #-456]!	; 0xfffffe38
     29c:	7570636d 	ldrbvc	r6, [r0, #-877]!	; 0xfffffc93
     2a0:	726f633d 	rsbvc	r6, pc, #-201326592	; 0xf4000000
     2a4:	2d786574 	cfldr64cs	mvdx6, [r8, #-464]!	; 0xfffffe30
     2a8:	2d203861 	stccs	8, cr3, [r0, #-388]!	; 0xfffffe7c
     2ac:	6f6c666d 	svcvs	0x006c666d
     2b0:	612d7461 			; <UNDEFINED> instruction: 0x612d7461
     2b4:	733d6962 	teqvc	sp, #1605632	; 0x188000
     2b8:	2074666f 	rsbscs	r6, r4, pc, ror #12
     2bc:	72616d2d 	rsbvc	r6, r1, #2880	; 0xb40
     2c0:	613d6863 	teqvs	sp, r3, ror #16
     2c4:	37766d72 			; <UNDEFINED> instruction: 0x37766d72
     2c8:	2d20612d 	stfcss	f6, [r0, #-180]!	; 0xffffff4c
     2cc:	732d2067 			; <UNDEFINED> instruction: 0x732d2067
     2d0:	673d6474 			; <UNDEFINED> instruction: 0x673d6474
     2d4:	3939756e 	ldmdbcc	r9!, {r1, r2, r3, r5, r6, r8, sl, ip, sp, lr}
     2d8:	43565300 	cmpmi	r6, #0, 6
     2dc:	4154535f 	cmpmi	r4, pc, asr r3
     2e0:	535f4b43 	cmppl	pc, #68608	; 0x10c00
     2e4:	00455a49 	subeq	r5, r5, r9, asr #20
     2e8:	41545f5f 	cmpmi	r4, pc, asr pc
     2ec:	5f414552 	svcpl	0x00414552
     2f0:	49505f31 	ldmdbmi	r0, {r0, r4, r5, r8, r9, sl, fp, ip, lr}^
     2f4:	505f414c 	subspl	r4, pc, ip, asr #2
     2f8:	5f005948 	svcpl	0x00005948
     2fc:	5241545f 	subpl	r5, r1, #1593835520	; 0x5f000000
     300:	325f4145 	subscc	r4, pc, #1073741841	; 0x40000011
     304:	5458545f 	ldrbpl	r5, [r8], #-1119	; 0xfffffba1
     308:	414d565f 	cmpmi	sp, pc, asr r6
     30c:	545f5f00 	ldrbpl	r5, [pc], #-3840	; 314 <TASK_1_STACK_SIZE+0x214>
     310:	41455241 	cmpmi	r5, r1, asr #4
     314:	505f315f 	subspl	r3, pc, pc, asr r1	; <UNPREDICTABLE>
     318:	5f414c49 	svcpl	0x00414c49
     31c:	5f444e55 	svcpl	0x00444e55
     320:	00594850 	subseq	r4, r9, r0, asr r8
     324:	454b5f5f 	strbmi	r5, [fp, #-3935]	; 0xfffff0a1
     328:	4c454e52 	mcrrmi	14, 5, r4, r5, cr2
     32c:	5353425f 	cmppl	r3, #-268435451	; 0xf0000005
     330:	5948505f 	stmdbpl	r8, {r0, r1, r2, r3, r4, r6, ip, lr}^
     334:	41434953 	cmpmi	r3, r3, asr r9
     338:	5f5f004c 	svcpl	0x005f004c
     33c:	45524154 	ldrbmi	r4, [r2, #-340]	; 0xfffffeac
     340:	5f315f41 	svcpl	0x00315f41
     344:	44414552 	strbmi	r4, [r1], #-1362	; 0xfffffaae
     348:	5f474e49 	svcpl	0x00474e49
     34c:	41455241 	cmpmi	r5, r1, asr #4
     350:	414d565f 	cmpmi	sp, pc, asr r6
     354:	4b5f5f00 	blmi	17d7f5c <__kernel_size__+0x17d6a28>
     358:	454e5245 	strbmi	r5, [lr, #-581]	; 0xfffffdbb
     35c:	4f525f4c 	svcmi	0x00525f4c
     360:	41544144 	cmpmi	r4, r4, asr #2
     364:	5948505f 	stmdbpl	r8, {r0, r1, r2, r3, r4, r6, ip, lr}^
     368:	41434953 	cmpmi	r3, r3, asr r9
     36c:	5f5f004c 	svcpl	0x005f004c
     370:	5f525349 	svcpl	0x00525349
     374:	4c424154 	stfmie	f4, [r2], {84}	; 0x54
     378:	48505f45 	ldmdami	r0, {r0, r2, r6, r8, r9, sl, fp, ip, lr}^
     37c:	43495359 	movtmi	r5, #37721	; 0x9359
     380:	5f004c41 	svcpl	0x00004c41
     384:	52454b5f 	subpl	r4, r5, #97280	; 0x17c00
     388:	5f4c454e 	svcpl	0x004c454e
     38c:	41544144 	cmpmi	r4, r4, asr #2
     390:	414d565f 	cmpmi	sp, pc, asr r6
     394:	6e6f6c00 	cdpvs	12, 6, cr6, cr15, cr0, {0}
     398:	6f6c2067 	svcvs	0x006c2067
     39c:	6920676e 	stmdbvs	r0!, {r1, r2, r3, r5, r6, r8, r9, sl, sp, lr}
     3a0:	5f00746e 	svcpl	0x0000746e
     3a4:	52454b5f 	subpl	r4, r5, #97280	; 0x17c00
     3a8:	5f4c454e 	svcpl	0x004c454e
     3ac:	414c4950 	cmpmi	ip, r0, asr r9
     3b0:	444e555f 	strbmi	r5, [lr], #-1375	; 0xfffffaa1
     3b4:	5948505f 	stmdbpl	r8, {r0, r1, r2, r3, r4, r6, ip, lr}^
     3b8:	545f5f00 	ldrbpl	r5, [pc], #-3840	; 3c0 <TASK_1_STACK_SIZE+0x2c0>
     3bc:	41455241 	cmpmi	r5, r1, asr #4
     3c0:	505f315f 	subspl	r3, pc, pc, asr r1	; <UNPREDICTABLE>
     3c4:	5f414c49 	svcpl	0x00414c49
     3c8:	5f435653 	svcpl	0x00435653
     3cc:	00594850 	subseq	r4, r9, r0, asr r8
     3d0:	454b5f5f 	strbmi	r5, [fp, #-3935]	; 0xfffff0a1
     3d4:	4c454e52 	mcrrmi	14, 5, r4, r5, cr2
     3d8:	4c49505f 	mcrrmi	0, 5, r5, r9, cr15
     3dc:	56535f41 	ldrbpl	r5, [r3], -r1, asr #30
     3e0:	48505f43 	ldmdami	r0, {r0, r1, r6, r8, r9, sl, fp, ip, lr}^
     3e4:	5f5f0059 	svcpl	0x005f0059
     3e8:	54535953 	ldrbpl	r5, [r3], #-2387	; 0xfffff6ad
     3ec:	454c4241 	strbmi	r4, [ip, #-577]	; 0xfffffdbf
     3f0:	41545f53 	cmpmi	r4, r3, asr pc
     3f4:	5f414552 	svcpl	0x00414552
     3f8:	4d565f32 	ldclmi	15, cr5, [r6, #-200]	; 0xffffff38
     3fc:	5f5f0041 	svcpl	0x005f0041
     400:	45524154 	ldrbmi	r4, [r2, #-340]	; 0xfffffeac
     404:	5f325f41 	svcpl	0x00325f41
     408:	5f535342 	svcpl	0x00535342
     40c:	00414d4c 	subeq	r4, r1, ip, asr #26
     410:	41545f5f 	cmpmi	r4, pc, asr pc
     414:	5f414552 	svcpl	0x00414552
     418:	49505f31 	ldmdbmi	r0, {r0, r4, r5, r8, r9, sl, fp, ip, lr}^
     41c:	495f414c 	ldmdbmi	pc, {r2, r3, r6, r8, lr}^	; <UNPREDICTABLE>
     420:	565f5152 			; <UNDEFINED> instruction: 0x565f5152
     424:	5f00414d 	svcpl	0x0000414d
     428:	5241545f 	subpl	r5, r1, #1593835520	; 0x5f000000
     42c:	325f4145 	subscc	r4, pc, #1073741841	; 0x40000011
     430:	5441445f 	strbpl	r4, [r1], #-1119	; 0xfffffba1
     434:	4d4c5f41 	stclmi	15, cr5, [ip, #-260]	; 0xfffffefc
     438:	656d0041 	strbvs	r0, [sp, #-65]!	; 0xffffffbf
     43c:	706f636d 	rsbvc	r6, pc, sp, ror #6
     440:	5f5f0079 	svcpl	0x005f0079
     444:	4c425550 	cfstr64mi	mvdx5, [r2], {80}	; 0x50
     448:	535f4349 	cmppl	pc, #603979777	; 0x24000001
     44c:	4b434154 	blmi	10d09a4 <__kernel_size__+0x10cf470>
     450:	414d565f 	cmpmi	sp, pc, asr r6
     454:	4b5f5f00 	blmi	17d805c <__kernel_size__+0x17d6b28>
     458:	454e5245 	strbmi	r5, [lr, #-581]	; 0xfffffdbb
     45c:	49505f4c 	ldmdbmi	r0, {r2, r3, r6, r8, r9, sl, fp, ip, lr}^
     460:	495f414c 	ldmdbmi	pc, {r2, r3, r6, r8, lr}^	; <UNPREDICTABLE>
     464:	565f5152 			; <UNDEFINED> instruction: 0x565f5152
     468:	5f00414d 	svcpl	0x0000414d
     46c:	5241545f 	subpl	r5, r1, #1593835520	; 0x5f000000
     470:	325f4145 	subscc	r4, pc, #1073741841	; 0x40000011
     474:	4c49505f 	mcrrmi	0, 5, r5, r9, cr15
     478:	59535f41 	ldmdbpl	r3, {r0, r6, r8, r9, sl, fp, ip, lr}^
     47c:	4d565f53 	ldclmi	15, cr5, [r6, #-332]	; 0xfffffeb4
     480:	5f5f0041 	svcpl	0x005f0041
     484:	45524154 	ldrbmi	r4, [r2, #-340]	; 0xfffffeac
     488:	5f315f41 	svcpl	0x00315f41
     48c:	5f545854 	svcpl	0x00545854
     490:	00414d4c 	subeq	r4, r1, ip, asr #26
     494:	59535f5f 	ldmdbpl	r3, {r0, r1, r2, r3, r4, r6, r8, r9, sl, fp, ip, lr}^
     498:	42415453 	submi	r5, r1, #1392508928	; 0x53000000
     49c:	5f53454c 	svcpl	0x0053454c
     4a0:	45524154 	ldrbmi	r4, [r2, #-340]	; 0xfffffeac
     4a4:	5f315f41 	svcpl	0x00315f41
     4a8:	00594850 	subseq	r4, r9, r0, asr r8
     4ac:	55505f5f 	ldrbpl	r5, [r0, #-3935]	; 0xfffff0a1
     4b0:	43494c42 	movtmi	r4, #40002	; 0x9c42
     4b4:	4154535f 	cmpmi	r4, pc, asr r3
     4b8:	505f4b43 	subspl	r4, pc, r3, asr #22
     4bc:	49535948 	ldmdbmi	r3, {r3, r6, r8, fp, ip, lr}^
     4c0:	004c4143 	subeq	r4, ip, r3, asr #2
     4c4:	59535f5f 	ldmdbpl	r3, {r0, r1, r2, r3, r4, r6, r8, r9, sl, fp, ip, lr}^
     4c8:	42415453 	submi	r5, r1, #1392508928	; 0x53000000
     4cc:	5f53454c 	svcpl	0x0053454c
     4d0:	00414d56 	subeq	r4, r1, r6, asr sp
     4d4:	656b5f5f 	strbvs	r5, [fp, #-3935]!	; 0xfffff0a1
     4d8:	6c656e72 	stclvs	14, cr6, [r5], #-456	; 0xfffffe38
     4dc:	7461645f 	strbtvc	r6, [r1], #-1119	; 0xfffffba1
     4e0:	69735f61 	ldmdbvs	r3!, {r0, r5, r6, r8, r9, sl, fp, ip, lr}^
     4e4:	5f5f657a 	svcpl	0x005f657a
     4e8:	6b5f5f00 	blvs	17d80f0 <__kernel_size__+0x17d6bbc>
     4ec:	656e7265 	strbvs	r7, [lr, #-613]!	; 0xfffffd9b
     4f0:	6f725f6c 	svcvs	0x00725f6c
     4f4:	61746164 	cmnvs	r4, r4, ror #2
     4f8:	7a69735f 	bvc	1a5d27c <__kernel_size__+0x1a5bd48>
     4fc:	005f5f65 	subseq	r5, pc, r5, ror #30
     500:	73625f5f 	cmnvc	r2, #380	; 0x17c
     504:	61745f73 	cmnvs	r4, r3, ror pc
     508:	5f616572 	svcpl	0x00616572
     50c:	69735f31 	ldmdbvs	r3!, {r0, r4, r5, r8, r9, sl, fp, ip, lr}^
     510:	5f5f657a 	svcpl	0x005f657a
     514:	53415400 	movtpl	r5, #5120	; 0x1400
     518:	5f315f4b 	svcpl	0x00315f4b
     51c:	43415453 	movtmi	r5, #5203	; 0x1453
     520:	49535f4b 	ldmdbmi	r3, {r0, r1, r3, r6, r8, r9, sl, fp, ip, lr}^
     524:	7500455a 	strvc	r4, [r0, #-1370]	; 0xfffffaa6
     528:	6769736e 	strbvs	r7, [r9, -lr, ror #6]!
     52c:	2064656e 	rsbcs	r6, r4, lr, ror #10
     530:	72616863 	rsbvc	r6, r1, #6488064	; 0x630000
     534:	4b5f5f00 	blmi	17d813c <__kernel_size__+0x17d6c08>
     538:	454e5245 	strbmi	r5, [lr, #-581]	; 0xfffffdbb
     53c:	49505f4c 	ldmdbmi	r0, {r2, r3, r6, r8, r9, sl, fp, ip, lr}^
     540:	535f414c 	cmppl	pc, #76, 2
     544:	565f5359 			; <UNDEFINED> instruction: 0x565f5359
     548:	5f00414d 	svcpl	0x0000414d
     54c:	5241545f 	subpl	r5, r1, #1593835520	; 0x5f000000
     550:	325f4145 	subscc	r4, pc, #1073741841	; 0x40000011
     554:	4c49505f 	mcrrmi	0, 5, r5, r9, cr15
     558:	42415f41 	submi	r5, r1, #260	; 0x104
     55c:	48505f54 	ldmdami	r0, {r2, r4, r6, r8, r9, sl, fp, ip, lr}^
     560:	5f5f0059 	svcpl	0x005f0059
     564:	45524154 	ldrbmi	r4, [r2, #-340]	; 0xfffffeac
     568:	5f315f41 	svcpl	0x00315f41
     56c:	44414552 	strbmi	r4, [r1], #-1362	; 0xfffffaae
     570:	5f474e49 	svcpl	0x00474e49
     574:	41455241 	cmpmi	r5, r1, asr #4
     578:	5948505f 	stmdbpl	r8, {r0, r1, r2, r3, r4, r6, ip, lr}^
     57c:	53415400 	movtpl	r5, #5120	; 0x1400
     580:	5f325f4b 	svcpl	0x00325f4b
     584:	43415453 	movtmi	r5, #5203	; 0x1453
     588:	49535f4b 	ldmdbmi	r3, {r0, r1, r3, r6, r8, r9, sl, fp, ip, lr}^
     58c:	6c00455a 	cfstr32vs	mvfx4, [r0], {90}	; 0x5a
     590:	20676e6f 	rsbcs	r6, r7, pc, ror #28
     594:	676e6f6c 	strbvs	r6, [lr, -ip, ror #30]!
     598:	736e7520 	cmnvc	lr, #32, 10	; 0x8000000
     59c:	656e6769 	strbvs	r6, [lr, #-1897]!	; 0xfffff897
     5a0:	6e692064 	cdpvs	0, 6, cr2, cr9, cr4, {3}
     5a4:	5f5f0074 	svcpl	0x005f0074
     5a8:	5f525349 	svcpl	0x00525349
     5ac:	4c424154 	stfmie	f4, [r2], {84}	; 0x54
     5b0:	4d565f45 	ldclmi	15, cr5, [r6, #-276]	; 0xfffffeec
     5b4:	5f5f0041 	svcpl	0x005f0041
     5b8:	4e52454b 	cdpmi	5, 5, cr4, cr2, cr11, {2}
     5bc:	545f4c45 	ldrbpl	r4, [pc], #-3141	; 5c4 <SYS_STACK_SIZE+0x1c4>
     5c0:	565f5458 			; <UNDEFINED> instruction: 0x565f5458
     5c4:	5f00414d 	svcpl	0x0000414d
     5c8:	52454b5f 	subpl	r4, r5, #97280	; 0x17c00
     5cc:	5f4c454e 	svcpl	0x004c454e
     5d0:	41444f52 	cmpmi	r4, r2, asr pc
     5d4:	565f4154 			; <UNDEFINED> instruction: 0x565f4154
     5d8:	5f00414d 	svcpl	0x0000414d
     5dc:	6c64695f 			; <UNDEFINED> instruction: 0x6c64695f
     5e0:	69735f65 	ldmdbvs	r3!, {r0, r2, r5, r6, r8, r9, sl, fp, ip, lr}^
     5e4:	5f5f657a 	svcpl	0x005f657a
     5e8:	625f5f00 	subsvs	r5, pc, #0, 30
     5ec:	745f7373 	ldrbvc	r7, [pc], #-883	; 5f4 <SYS_STACK_SIZE+0x1f4>
     5f0:	61657261 	cmnvs	r5, r1, ror #4
     5f4:	735f325f 	cmpvc	pc, #-268435451	; 0xf0000005
     5f8:	5f657a69 	svcpl	0x00657a69
     5fc:	6873005f 	ldmdavs	r3!, {r0, r1, r2, r3, r4, r6}^
     600:	2074726f 	rsbscs	r7, r4, pc, ror #4
     604:	69736e75 	ldmdbvs	r3!, {r0, r2, r4, r5, r6, r9, sl, fp, sp, lr}^
     608:	64656e67 	strbtvs	r6, [r5], #-3687	; 0xfffff199
     60c:	746e6920 	strbtvc	r6, [lr], #-2336	; 0xfffff6e0
     610:	645f5f00 	ldrbvs	r5, [pc], #-3840	; 618 <SYS_STACK_SIZE+0x218>
     614:	5f617461 	svcpl	0x00617461
     618:	65726174 	ldrbvs	r6, [r2, #-372]!	; 0xfffffe8c
     61c:	5f315f61 	svcpl	0x00315f61
     620:	657a6973 	ldrbvs	r6, [sl, #-2419]!	; 0xfffff68d
     624:	53005f5f 	movwpl	r5, #3935	; 0xf5f
     628:	535f5359 	cmppl	pc, #1677721601	; 0x64000001
     62c:	4b434154 	blmi	10d0b84 <__kernel_size__+0x10cf650>
     630:	5a49535f 	bpl	12553b4 <__kernel_size__+0x1253e80>
     634:	5f5f0045 	svcpl	0x005f0045
     638:	45524154 	ldrbmi	r4, [r2, #-340]	; 0xfffffeac
     63c:	5f315f41 	svcpl	0x00315f41
     640:	5f535342 	svcpl	0x00535342
     644:	00594850 	subseq	r4, r9, r0, asr r8
     648:	41545f5f 	cmpmi	r4, pc, asr pc
     64c:	5f414552 	svcpl	0x00414552
     650:	49505f32 	ldmdbmi	r0, {r1, r4, r5, r8, r9, sl, fp, ip, lr}^
     654:	495f414c 	ldmdbmi	pc, {r2, r3, r6, r8, lr}^	; <UNPREDICTABLE>
     658:	505f5152 	subspl	r5, pc, r2, asr r1	; <UNPREDICTABLE>
     65c:	5f005948 	svcpl	0x00005948
     660:	5241545f 	subpl	r5, r1, #1593835520	; 0x5f000000
     664:	315f4145 	cmpcc	pc, r5, asr #2
     668:	4c49505f 	mcrrmi	0, 5, r5, r9, cr15
     66c:	42415f41 	submi	r5, r1, #260	; 0x104
     670:	48505f54 	ldmdami	r0, {r2, r4, r6, r8, r9, sl, fp, ip, lr}^
     674:	42410059 	submi	r0, r1, #89	; 0x59
     678:	54535f54 	ldrbpl	r5, [r3], #-3924	; 0xfffff0ac
     67c:	5f4b4341 	svcpl	0x004b4341
     680:	455a4953 	ldrbmi	r4, [sl, #-2387]	; 0xfffff6ad
     684:	545f5f00 	ldrbpl	r5, [pc], #-3840	; 68c <SYS_STACK_SIZE+0x28c>
     688:	41455241 	cmpmi	r5, r1, asr #4
     68c:	505f325f 	subspl	r3, pc, pc, asr r2	; <UNPREDICTABLE>
     690:	5f414c49 	svcpl	0x00414c49
     694:	5f435653 	svcpl	0x00435653
     698:	00594850 	subseq	r4, r9, r0, asr r8
     69c:	454b5f5f 	strbmi	r5, [fp, #-3935]	; 0xfffff0a1
     6a0:	4c454e52 	mcrrmi	14, 5, r4, r5, cr2
     6a4:	5458545f 	ldrbpl	r5, [r8], #-1119	; 0xfffffba1
     6a8:	5948505f 	stmdbpl	r8, {r0, r1, r2, r3, r4, r6, ip, lr}^
     6ac:	41434953 	cmpmi	r3, r3, asr r9
     6b0:	5f5f004c 	svcpl	0x005f004c
     6b4:	4e52454b 	cdpmi	5, 5, cr4, cr2, cr11, {2}
     6b8:	505f4c45 	subspl	r4, pc, r5, asr #24
     6bc:	5f414c49 	svcpl	0x00414c49
     6c0:	5f544241 	svcpl	0x00544241
     6c4:	00594850 	subseq	r4, r9, r0, asr r8
     6c8:	5f514946 	svcpl	0x00514946
     6cc:	43415453 	movtmi	r5, #5203	; 0x1453
     6d0:	49535f4b 	ldmdbmi	r3, {r0, r1, r3, r6, r8, r9, sl, fp, ip, lr}^
     6d4:	5f00455a 	svcpl	0x0000455a
     6d8:	5241545f 	subpl	r5, r1, #1593835520	; 0x5f000000
     6dc:	325f4145 	subscc	r4, pc, #1073741841	; 0x40000011
     6e0:	4c49505f 	mcrrmi	0, 5, r5, r9, cr15
     6e4:	48505f41 	ldmdami	r0, {r0, r6, r8, r9, sl, fp, ip, lr}^
     6e8:	495f0059 	ldmdbmi	pc, {r0, r3, r4, r6}^	; <UNPREDICTABLE>
     6ec:	545f5253 	ldrbpl	r5, [pc], #-595	; 6f4 <SYS_STACK_SIZE+0x2f4>
     6f0:	454c4241 	strbmi	r4, [ip, #-577]	; 0xfffffdbf
     6f4:	494e495f 	stmdbmi	lr, {r0, r1, r2, r3, r4, r6, r8, fp, lr}^
     6f8:	5f5f0054 	svcpl	0x005f0054
     6fc:	45524154 	ldrbmi	r4, [r2, #-340]	; 0xfffffeac
     700:	5f325f41 	svcpl	0x00325f41
     704:	44414552 	strbmi	r4, [r1], #-1362	; 0xfffffaae
     708:	5f474e49 	svcpl	0x00474e49
     70c:	41455241 	cmpmi	r5, r1, asr #4
     710:	414d565f 	cmpmi	sp, pc, asr r6
     714:	745f5f00 	ldrbvc	r5, [pc], #-3840	; 71c <SYS_STACK_SIZE+0x31c>
     718:	745f7478 	ldrbvc	r7, [pc], #-1144	; 720 <SYS_STACK_SIZE+0x320>
     71c:	61657261 	cmnvs	r5, r1, ror #4
     720:	735f325f 	cmpvc	pc, #-268435451	; 0xf0000005
     724:	5f657a69 	svcpl	0x00657a69
     728:	5f5f005f 	svcpl	0x005f005f
     72c:	45524154 	ldrbmi	r4, [r2, #-340]	; 0xfffffeac
     730:	5f315f41 	svcpl	0x00315f41
     734:	5f545854 	svcpl	0x00545854
     738:	00594850 	subseq	r4, r9, r0, asr r8
     73c:	41545f5f 	cmpmi	r4, pc, asr pc
     740:	5f414552 	svcpl	0x00414552
     744:	4f525f32 	svcmi	0x00525f32
     748:	41544144 	cmpmi	r4, r4, asr #2
     74c:	414d565f 	cmpmi	sp, pc, asr r6
     750:	545f5f00 	ldrbpl	r5, [pc], #-3840	; 758 <SYS_STACK_SIZE+0x358>
     754:	41455241 	cmpmi	r5, r1, asr #4
     758:	545f325f 	ldrbpl	r3, [pc], #-607	; 760 <SYS_STACK_SIZE+0x360>
     75c:	505f5458 	subspl	r5, pc, r8, asr r4	; <UNPREDICTABLE>
     760:	5f005948 	svcpl	0x00005948
     764:	52454b5f 	subpl	r4, r5, #97280	; 0x17c00
     768:	5f4c454e 	svcpl	0x004c454e
     76c:	414c4950 	cmpmi	ip, r0, asr r9
     770:	4356535f 	cmpmi	r6, #2080374785	; 0x7c000001
     774:	414d565f 	cmpmi	sp, pc, asr r6
     778:	495f5f00 	ldmdbmi	pc, {r8, r9, sl, fp, ip, lr}^	; <UNPREDICTABLE>
     77c:	5f454c44 	svcpl	0x00454c44
     780:	5f545854 	svcpl	0x00545854
     784:	00414d4c 	subeq	r4, r1, ip, asr #26
     788:	41545f5f 	cmpmi	r4, pc, asr pc
     78c:	5f414552 	svcpl	0x00414552
     790:	4f525f32 	svcmi	0x00525f32
     794:	41544144 	cmpmi	r4, r4, asr #2
     798:	5948505f 	stmdbpl	r8, {r0, r1, r2, r3, r4, r6, ip, lr}^
     79c:	545f5f00 	ldrbpl	r5, [pc], #-3840	; 7a4 <SYS_STACK_SIZE+0x3a4>
     7a0:	30524254 	subscc	r4, r2, r4, asr r2
     7a4:	5552505f 	ldrbpl	r5, [r2, #-95]	; 0xffffffa1
     7a8:	00414245 	subeq	r4, r1, r5, asr #4
     7ac:	59535f5f 	ldmdbpl	r3, {r0, r1, r2, r3, r4, r6, r8, r9, sl, fp, ip, lr}^
     7b0:	42415453 	submi	r5, r1, #1392508928	; 0x53000000
     7b4:	5f53454c 	svcpl	0x0053454c
     7b8:	45524154 	ldrbmi	r4, [r2, #-340]	; 0xfffffeac
     7bc:	5f325f41 	svcpl	0x00325f41
     7c0:	00594850 	subseq	r4, r9, r0, asr r8
     7c4:	41545f5f 	cmpmi	r4, pc, asr pc
     7c8:	5f414552 	svcpl	0x00414552
     7cc:	4f525f31 	svcmi	0x00525f31
     7d0:	41544144 	cmpmi	r4, r4, asr #2
     7d4:	414d565f 	cmpmi	sp, pc, asr r6
     7d8:	545f5f00 	ldrbpl	r5, [pc], #-3840	; 7e0 <SYS_STACK_SIZE+0x3e0>
     7dc:	41455241 	cmpmi	r5, r1, asr #4
     7e0:	505f325f 	subspl	r3, pc, pc, asr r2	; <UNPREDICTABLE>
     7e4:	5f414c49 	svcpl	0x00414c49
     7e8:	00414d56 	subeq	r4, r1, r6, asr sp
     7ec:	41545f5f 	cmpmi	r4, pc, asr pc
     7f0:	5f414552 	svcpl	0x00414552
     7f4:	41445f32 	cmpmi	r4, r2, lsr pc
     7f8:	565f4154 			; <UNDEFINED> instruction: 0x565f4154
     7fc:	5f00414d 	svcpl	0x0000414d
     800:	52454b5f 	subpl	r4, r5, #97280	; 0x17c00
     804:	5f4c454e 	svcpl	0x004c454e
     808:	5f545854 	svcpl	0x00545854
     80c:	00414d4c 	subeq	r4, r1, ip, asr #26
     810:	59535f5f 	ldmdbpl	r3, {r0, r1, r2, r3, r4, r6, r8, r9, sl, fp, ip, lr}^
     814:	42415453 	submi	r5, r1, #1392508928	; 0x53000000
     818:	5f53454c 	svcpl	0x0053454c
     81c:	45524154 	ldrbmi	r4, [r2, #-340]	; 0xfffffeac
     820:	5f315f41 	svcpl	0x00315f41
     824:	00414d56 	subeq	r4, r1, r6, asr sp
     828:	41545f5f 	cmpmi	r4, pc, asr pc
     82c:	5f414552 	svcpl	0x00414552
     830:	41445f31 	cmpmi	r4, r1, lsr pc
     834:	565f4154 			; <UNDEFINED> instruction: 0x565f4154
     838:	5f00414d 	svcpl	0x0000414d
     83c:	72656b5f 	rsbvc	r6, r5, #97280	; 0x17c00
     840:	5f6c656e 	svcpl	0x006c656e
     844:	657a6973 	ldrbvs	r6, [sl, #-2419]!	; 0xfffff68d
     848:	5f005f5f 	svcpl	0x00005f5f
     84c:	5241545f 	subpl	r5, r1, #1593835520	; 0x5f000000
     850:	315f4145 	cmpcc	pc, r5, asr #2
     854:	4c49505f 	mcrrmi	0, 5, r5, r9, cr15
     858:	52495f41 	subpl	r5, r9, #260	; 0x104
     85c:	48505f51 	ldmdami	r0, {r0, r4, r6, r8, r9, sl, fp, ip, lr}^
     860:	5f5f0059 	svcpl	0x005f0059
     864:	5f747874 	svcpl	0x00747874
     868:	65726174 	ldrbvs	r6, [r2, #-372]!	; 0xfffffe8c
     86c:	5f315f61 	svcpl	0x00315f61
     870:	657a6973 	ldrbvs	r6, [sl, #-2419]!	; 0xfffff68d
     874:	5f005f5f 	svcpl	0x00005f5f
     878:	5241545f 	subpl	r5, r1, #1593835520	; 0x5f000000
     87c:	315f4145 	cmpcc	pc, r5, asr #2
     880:	4c49505f 	mcrrmi	0, 5, r5, r9, cr15
     884:	42415f41 	submi	r5, r1, #260	; 0x104
     888:	4d565f54 	ldclmi	15, cr5, [r6, #-336]	; 0xfffffeb0
     88c:	5f5f0041 	svcpl	0x005f0041
     890:	45524154 	ldrbmi	r4, [r2, #-340]	; 0xfffffeac
     894:	5f315f41 	svcpl	0x00315f41
     898:	414c4950 	cmpmi	ip, r0, asr r9
     89c:	444e555f 	strbmi	r5, [lr], #-1375	; 0xfffffaa1
     8a0:	414d565f 	cmpmi	sp, pc, asr r6
     8a4:	495f5f00 	ldmdbmi	pc, {r8, r9, sl, fp, ip, lr}^	; <UNPREDICTABLE>
     8a8:	5f454c44 	svcpl	0x00454c44
     8ac:	5f545854 	svcpl	0x00545854
     8b0:	00414d56 	subeq	r4, r1, r6, asr sp
     8b4:	454b5f5f 	strbmi	r5, [fp, #-3935]	; 0xfffff0a1
     8b8:	4c454e52 	mcrrmi	14, 5, r4, r5, cr2
     8bc:	4c49505f 	mcrrmi	0, 5, r5, r9, cr15
     8c0:	52495f41 	subpl	r5, r9, #260	; 0x104
     8c4:	48505f51 	ldmdami	r0, {r0, r4, r6, r8, r9, sl, fp, ip, lr}^
     8c8:	5f5f0059 	svcpl	0x005f0059
     8cc:	45524154 	ldrbmi	r4, [r2, #-340]	; 0xfffffeac
     8d0:	5f315f41 	svcpl	0x00315f41
     8d4:	414c4950 	cmpmi	ip, r0, asr r9
     8d8:	4356535f 	cmpmi	r6, #2080374785	; 0x7c000001
     8dc:	414d565f 	cmpmi	sp, pc, asr r6
     8e0:	4b5f5f00 	blmi	17d84e8 <__kernel_size__+0x17d6fb4>
     8e4:	454e5245 	strbmi	r5, [lr, #-581]	; 0xfffffdbb
     8e8:	49505f4c 	ldmdbmi	r0, {r2, r3, r6, r8, r9, sl, fp, ip, lr}^
     8ec:	555f414c 	ldrbpl	r4, [pc, #-332]	; 7a8 <SYS_STACK_SIZE+0x3a8>
     8f0:	565f444e 	ldrbpl	r4, [pc], -lr, asr #8
     8f4:	5500414d 	strpl	r4, [r0, #-333]	; 0xfffffeb3
     8f8:	535f444e 	cmppl	pc, #1308622848	; 0x4e000000
     8fc:	4b434154 	blmi	10d0e54 <__kernel_size__+0x10cf920>
     900:	5a49535f 	bpl	1255684 <__kernel_size__+0x1254150>
     904:	5f5f0045 	svcpl	0x005f0045
     908:	61646f72 	smcvs	18162	; 0x46f2
     90c:	745f6174 	ldrbvc	r6, [pc], #-372	; 914 <SYS_STACK_SIZE+0x514>
     910:	61657261 	cmnvs	r5, r1, ror #4
     914:	735f315f 	cmpvc	pc, #-1073741801	; 0xc0000017
     918:	5f657a69 	svcpl	0x00657a69
     91c:	5f5f005f 	svcpl	0x005f005f
     920:	45524154 	ldrbmi	r4, [r2, #-340]	; 0xfffffeac
     924:	5f325f41 	svcpl	0x00325f41
     928:	41544144 	cmpmi	r4, r4, asr #2
     92c:	5948505f 	stmdbpl	r8, {r0, r1, r2, r3, r4, r6, ip, lr}^
     930:	4b5f5f00 	blmi	17d8538 <__kernel_size__+0x17d7004>
     934:	454e5245 	strbmi	r5, [lr, #-581]	; 0xfffffdbb
     938:	41445f4c 	cmpmi	r4, ip, asr #30
     93c:	505f4154 	subspl	r4, pc, r4, asr r1	; <UNPREDICTABLE>
     940:	49535948 	ldmdbmi	r3, {r3, r6, r8, fp, ip, lr}^
     944:	004c4143 	subeq	r4, ip, r3, asr #2
     948:	41545f5f 	cmpmi	r4, pc, asr pc
     94c:	5f414552 	svcpl	0x00414552
     950:	49505f31 	ldmdbmi	r0, {r0, r4, r5, r8, r9, sl, fp, ip, lr}^
     954:	535f414c 	cmppl	pc, #76, 2
     958:	505f5359 	subspl	r5, pc, r9, asr r3	; <UNPREDICTABLE>
     95c:	2f005948 	svccs	0x00005948
     960:	656d6f68 	strbvs	r6, [sp, #-3944]!	; 0xfffff098
     964:	696e612f 	stmdbvs	lr!, {r0, r1, r2, r3, r5, r8, sp, lr}^
     968:	7365442f 	cmnvc	r5, #788529152	; 0x2f000000
     96c:	706f746b 	rsbvc	r7, pc, fp, ror #8
     970:	4944542f 	stmdbmi	r4, {r0, r1, r2, r3, r5, sl, ip, lr}^
     974:	722f4949 	eorvc	r4, pc, #1196032	; 0x124000
     978:	34353035 	ldrtcc	r3, [r5], #-53	; 0xffffffcb
     97c:	4e554e2d 	cdpmi	14, 5, cr4, cr5, cr13, {1}
     980:	2d5a4549 	cfldr64cs	mvdx4, [sl, #-292]	; 0xfffffedc
     984:	2d414e41 	stclcs	14, cr4, [r1, #-260]	; 0xfffffefc
     988:	4c554150 	ldfmie	f4, [r5], {80}	; 0x50
     98c:	31302f41 	teqcc	r0, r1, asr #30
     990:	6175635f 	cmnvs	r5, pc, asr r3
     994:	70742f74 	rsbsvc	r2, r4, r4, ror pc
     998:	0033305f 	eorseq	r3, r3, pc, asr r0
     99c:	646d656d 	strbtvs	r6, [sp], #-1389	; 0xfffffa93
     9a0:	6f6c7065 	svcvs	0x006c7065
     9a4:	5f5f0079 	svcpl	0x005f0079
     9a8:	4e52454b 	cdpmi	5, 5, cr4, cr2, cr11, {2}
     9ac:	505f4c45 	subspl	r4, pc, r5, asr #24
     9b0:	5f414c49 	svcpl	0x00414c49
     9b4:	5f535953 	svcpl	0x00535953
     9b8:	00594850 	subseq	r4, r9, r0, asr r8
     9bc:	41545f5f 	cmpmi	r4, pc, asr pc
     9c0:	5f414552 	svcpl	0x00414552
     9c4:	4f525f31 	svcmi	0x00525f31
     9c8:	41544144 	cmpmi	r4, r4, asr #2
     9cc:	414d4c5f 	cmpmi	sp, pc, asr ip
     9d0:	545f5f00 	ldrbpl	r5, [pc], #-3840	; 9d8 <SYS_STACK_SIZE+0x5d8>
     9d4:	41455241 	cmpmi	r5, r1, asr #4
     9d8:	505f315f 	subspl	r3, pc, pc, asr r1	; <UNPREDICTABLE>
     9dc:	5f414c49 	svcpl	0x00414c49
     9e0:	5f535953 	svcpl	0x00535953
     9e4:	00414d56 	subeq	r4, r1, r6, asr sp
     9e8:	454b5f5f 	strbmi	r5, [fp, #-3935]	; 0xfffff0a1
     9ec:	4c454e52 	mcrrmi	14, 5, r4, r5, cr2
     9f0:	4c49505f 	mcrrmi	0, 5, r5, r9, cr15
     9f4:	4d565f41 	ldclmi	15, cr5, [r6, #-260]	; 0xfffffefc
     9f8:	5f5f0041 	svcpl	0x005f0041
     9fc:	45524154 	ldrbmi	r4, [r2, #-340]	; 0xfffffeac
     a00:	5f325f41 	svcpl	0x00325f41
     a04:	44414552 	strbmi	r4, [r1], #-1362	; 0xfffffaae
     a08:	5f474e49 	svcpl	0x00474e49
     a0c:	41455241 	cmpmi	r5, r1, asr #4
     a10:	5948505f 	stmdbpl	r8, {r0, r1, r2, r3, r4, r6, ip, lr}^
     a14:	545f5f00 	ldrbpl	r5, [pc], #-3840	; a1c <SYS_STACK_SIZE+0x61c>
     a18:	41455241 	cmpmi	r5, r1, asr #4
     a1c:	445f315f 	ldrbmi	r3, [pc], #-351	; a24 <SYS_STACK_SIZE+0x624>
     a20:	5f415441 	svcpl	0x00415441
     a24:	00414d4c 	subeq	r4, r1, ip, asr #26
     a28:	41545f5f 	cmpmi	r4, pc, asr pc
     a2c:	5f414552 	svcpl	0x00414552
     a30:	49505f32 	ldmdbmi	r0, {r1, r4, r5, r8, r9, sl, fp, ip, lr}^
     a34:	495f414c 	ldmdbmi	pc, {r2, r3, r6, r8, lr}^	; <UNPREDICTABLE>
     a38:	565f5152 			; <UNDEFINED> instruction: 0x565f5152
     a3c:	5f00414d 	svcpl	0x0000414d
     a40:	5241545f 	subpl	r5, r1, #1593835520	; 0x5f000000
     a44:	325f4145 	subscc	r4, pc, #1073741841	; 0x40000011
     a48:	444f525f 	strbmi	r5, [pc], #-607	; a50 <SYS_STACK_SIZE+0x650>
     a4c:	5f415441 	svcpl	0x00415441
     a50:	00414d4c 	subeq	r4, r1, ip, asr #26
     a54:	48434143 	stmdami	r3, {r0, r1, r6, r8, lr}^
     a58:	414d5f45 	cmpmi	sp, r5, asr #30
     a5c:	45544e49 	ldrbmi	r4, [r4, #-3657]	; 0xfffff1b7
     a60:	434e414e 	movtmi	r4, #57678	; 0xe14e
     a64:	45535f45 	ldrbmi	r5, [r3, #-3909]	; 0xfffff0bb
     a68:	59415754 	stmdbpl	r1, {r2, r4, r6, r8, r9, sl, ip, lr}^
     a6c:	554d4d00 	strbpl	r4, [sp, #-3328]	; 0xfffff300
     a70:	7465475f 	strbtvc	r4, [r5], #-1887	; 0xfffff8a1
     a74:	7269465f 	rsbvc	r4, r9, #99614720	; 0x5f00000
     a78:	654c7473 	strbvs	r7, [ip, #-1139]	; 0xfffffb8d
     a7c:	546c6576 	strbtpl	r6, [ip], #-1398	; 0xfffffa8a
     a80:	736e6172 	cmnvc	lr, #-2147483620	; 0x8000001c
     a84:	6974616c 	ldmdbvs	r4!, {r2, r3, r5, r6, r8, sp, lr}^
     a88:	61546e6f 	cmpvs	r4, pc, ror #28
     a8c:	5f656c62 	svcpl	0x00656c62
     a90:	73796850 	cmnvc	r9, #80, 16	; 0x500000
     a94:	6c616369 	stclvs	3, cr6, [r1], #-420	; 0xfffffe5c
     a98:	72646441 	rsbvc	r6, r4, #1090519040	; 0x41000000
     a9c:	00737365 	rsbseq	r7, r3, r5, ror #6
     aa0:	5f554d4d 	svcpl	0x00554d4d
     aa4:	5f746553 	svcpl	0x00746553
     aa8:	52425454 	subpl	r5, r2, #84, 8	; 0x54000000
     aac:	5f5f0031 	svcpl	0x005f0031
     ab0:	746e6975 	strbtvc	r6, [lr], #-2421	; 0xfffff68b
     ab4:	00745f38 	rsbseq	r5, r4, r8, lsr pc
     ab8:	35315043 	ldrcc	r5, [r1, #-67]!	; 0xffffffbd
     abc:	004e4542 	subeq	r4, lr, r2, asr #10
     ac0:	415f5748 	cmpmi	pc, r8, asr #14
     ac4:	53454343 	movtpl	r4, #21315	; 0x5343
     ac8:	4c465f53 	mcrrmi	15, 5, r5, r6, cr3
     acc:	4d004741 	stcmi	7, cr4, [r0, #-260]	; 0xfffffefc
     ad0:	4e45554d 	cdpmi	5, 4, cr5, cr5, cr13, {2}
     ad4:	454c4241 	strbmi	r4, [ip, #-577]	; 0xfffffdbf
     ad8:	004f4e5f 	subeq	r4, pc, pc, asr lr	; <UNPREDICTABLE>
     adc:	5f554d4d 	svcpl	0x00554d4d
     ae0:	5f746553 	svcpl	0x00746553
     ae4:	43425454 	movtmi	r5, #9300	; 0x2454
     ae8:	57550052 			; <UNDEFINED> instruction: 0x57550052
     aec:	56004e58 			; <UNDEFINED> instruction: 0x56004e58
     af0:	0041534d 	subeq	r5, r1, sp, asr #6
     af4:	555f314c 	ldrbpl	r3, [pc, #-332]	; 9b0 <SYS_STACK_SIZE+0x5b0>
     af8:	4946494e 	stmdbmi	r6, {r1, r2, r3, r6, r8, fp, lr}^
     afc:	435f4445 	cmpmi	pc, #1157627904	; 0x45000000
     b00:	45484341 	strbmi	r4, [r8, #-833]	; 0xfffffcbf
     b04:	5445535f 	strbpl	r5, [r5], #-863	; 0xfffffca1
     b08:	00594157 	subseq	r4, r9, r7, asr r1
     b0c:	4e475249 	cdpmi	2, 4, cr5, cr7, cr9, {2}
     b10:	4900315f 	stmdbmi	r0, {r0, r1, r2, r3, r4, r6, r8, ip, sp}
     b14:	5f4e4752 	svcpl	0x004e4752
     b18:	46570032 			; <UNDEFINED> instruction: 0x46570032
     b1c:	54535f49 	ldrbpl	r5, [r3], #-3913	; 0xfffff0b7
     b20:	004c4c41 	subeq	r4, ip, r1, asr #24
     b24:	454e4e49 	strbmi	r4, [lr, #-3657]	; 0xfffff1b7
     b28:	534f4d52 	movtpl	r4, #64850	; 0xfd52
     b2c:	48535f54 	ldmdami	r3, {r2, r4, r6, r8, r9, sl, fp, ip, lr}^
     b30:	41455241 	cmpmi	r5, r1, asr #4
     b34:	494c4942 	stmdbmi	ip, {r1, r6, r8, fp, lr}^
     b38:	64005954 	strvs	r5, [r0], #-2388	; 0xfffff6ac
     b3c:	00726361 	rsbseq	r6, r2, r1, ror #6
     b40:	485f314c 	ldmdami	pc, {r2, r3, r6, r8, ip, sp}^	; <UNPREDICTABLE>
     b44:	41565241 	cmpmi	r6, r1, asr #4
     b48:	435f4452 	cmpmi	pc, #1375731712	; 0x52000000
     b4c:	45484341 	strbmi	r4, [r8, #-833]	; 0xfffffcbf
     b50:	0041565f 	subeq	r5, r1, pc, asr r6
     b54:	5f4d4354 	svcpl	0x004d4354
     b58:	50505553 	subspl	r5, r0, r3, asr r5
     b5c:	0054524f 	subseq	r5, r4, pc, asr #4
     b60:	555f314c 	ldrbpl	r3, [pc, #-332]	; a1c <SYS_STACK_SIZE+0x61c>
     b64:	4946494e 	stmdbmi	r6, {r1, r2, r3, r6, r8, fp, lr}^
     b68:	435f4445 	cmpmi	pc, #1157627904	; 0x45000000
     b6c:	45484341 	strbmi	r4, [r8, #-833]	; 0xfffffcbf
     b70:	554d4d00 	strbpl	r4, [sp, #-3328]	; 0xfffff300
     b74:	7465475f 	strbtvc	r4, [r5], #-1887	; 0xfffff8a1
     b78:	4254545f 	subsmi	r5, r4, #1593835520	; 0x5f000000
     b7c:	4d003052 	stcmi	0, cr3, [r0, #-328]	; 0xfffffeb8
     b80:	475f554d 	ldrbmi	r5, [pc, -sp, asr #10]
     b84:	545f7465 	ldrbpl	r7, [pc], #-1125	; b8c <SYS_STACK_SIZE+0x78c>
     b88:	31524254 	cmpcc	r2, r4, asr r2
     b8c:	61627600 	cmnvs	r2, r0, lsl #12
     b90:	4d4d0072 	stclmi	0, cr0, [sp, #-456]	; 0xfffffe38
     b94:	414e4555 	cmpmi	lr, r5, asr r5
     b98:	5f454c42 	svcpl	0x00454c42
     b9c:	00534559 	subseq	r4, r3, r9, asr r5
     ba0:	72627474 	rsbvc	r7, r2, #116, 8	; 0x74000000
     ba4:	74740031 	ldrbtvc	r0, [r4], #-49	; 0xffffffcf
     ba8:	7a69735f 	bvc	1a5d92c <__kernel_size__+0x1a5c3f8>
     bac:	50420065 	subpl	r0, r2, r5, rrx
     bb0:	49414d5f 	stmdbmi	r1, {r0, r1, r2, r3, r4, r6, r8, sl, fp, lr}^
     bb4:	4941544e 	stmdbmi	r1, {r1, r2, r3, r6, sl, ip, lr}^
     bb8:	4143004e 	cmpmi	r3, lr, asr #32
     bbc:	44454843 	strbmi	r4, [r5], #-2115	; 0xfffff7bd
     bc0:	4d454d5f 	stclmi	13, cr4, [r5, #-380]	; 0xfffffe84
     bc4:	5f59524f 	svcpl	0x0059524f
     bc8:	455a4953 	ldrbmi	r4, [sl, #-2387]	; 0xfffff6ad
     bcc:	464d4e00 	strbmi	r4, [sp], -r0, lsl #28
     bd0:	4d4d0049 	stclmi	0, cr0, [sp, #-292]	; 0xfffffedc
     bd4:	65475f55 	strbvs	r5, [r7, #-3925]	; 0xfffff0ab
     bd8:	54545f74 	ldrbpl	r5, [r4], #-3956	; 0xfffff08c
     bdc:	00524342 	subseq	r4, r2, r2, asr #6
     be0:	5f554d4d 	svcpl	0x00554d4d
     be4:	62616e45 	rsbvs	r6, r1, #1104	; 0x450
     be8:	4d00656c 	cfstr32mi	mvfx6, [r0, #-432]	; 0xfffffe50
     bec:	535f554d 	cmppl	pc, #322961408	; 0x13400000
     bf0:	445f7465 	ldrbmi	r7, [pc], #-1125	; bf8 <SYS_STACK_SIZE+0x7f8>
     bf4:	00524341 	subseq	r4, r2, r1, asr #6
     bf8:	63627474 	cmnvs	r2, #116, 8	; 0x74000000
     bfc:	4d4d0072 	stclmi	0, cr0, [sp, #-456]	; 0xfffffe38
     c00:	65535f55 	ldrbvs	r5, [r3, #-3925]	; 0xfffff0ab
     c04:	42565f74 	subsmi	r5, r6, #116, 30	; 0x1d0
     c08:	4d005241 	sfmmi	f5, 4, [r0, #-260]	; 0xfffffefc
     c0c:	535f554d 	cmppl	pc, #322961408	; 0x13400000
     c10:	545f7465 	ldrbpl	r7, [pc], #-1125	; c18 <SYS_STACK_SIZE+0x818>
     c14:	30524254 	subscc	r4, r2, r4, asr r2
     c18:	44504500 	ldrbmi	r4, [r0], #-1280	; 0xfffffb00
     c1c:	50450030 	subpl	r0, r5, r0, lsr r0
     c20:	74003144 	strvc	r3, [r0], #-324	; 0xfffffebc
     c24:	68705f74 	ldmdavs	r0!, {r2, r4, r5, r6, r8, r9, sl, fp, ip, lr}^
     c28:	6464615f 	strbtvs	r6, [r4], #-351	; 0xfffffea1
     c2c:	414d0072 	hvcmi	53250	; 0xd002
     c30:	45544e49 	ldrbmi	r4, [r4, #-3657]	; 0xfffff1b7
     c34:	434e414e 	movtmi	r4, #57678	; 0xe14e
     c38:	52425f45 	subpl	r5, r2, #276	; 0x114
     c3c:	4344414f 	movtmi	r4, #16719	; 0x414f
     c40:	00545341 	subseq	r5, r4, r1, asr #6
     c44:	5a533154 	bpl	14cd19c <__kernel_size__+0x14cbc68>
     c48:	5f314c00 	svcpl	0x00314c00
     c4c:	56524148 	ldrbpl	r4, [r2], -r8, asr #2
     c50:	5f445241 	svcpl	0x00445241
     c54:	48434143 	stmdami	r3, {r0, r1, r6, r8, lr}^
     c58:	45535f45 	ldrbmi	r5, [r3, #-3909]	; 0xfffff0bb
     c5c:	59415754 	stmdbpl	r1, {r2, r4, r6, r8, r9, sl, ip, lr}^
     c60:	554d4d00 	strbpl	r4, [sp, #-3328]	; 0xfffff300
     c64:	7465475f 	strbtvc	r4, [r5], #-1887	; 0xfffff8a1
     c68:	4142565f 	cmpmi	r2, pc, asr r6
     c6c:	4f430052 	svcmi	0x00430052
     c70:	45524548 	ldrbmi	r4, [r2, #-1352]	; 0xfffffab8
     c74:	575f544e 	ldrbpl	r5, [pc, -lr, asr #8]
     c78:	004b4c41 	subeq	r4, fp, r1, asr #24
     c7c:	5f554d4d 	svcpl	0x00554d4d
     c80:	5f746547 	svcpl	0x00746547
     c84:	4c544353 	mrrcmi	3, 5, r4, r4, cr3	; <UNPREDICTABLE>
     c88:	54540052 	ldrbpl	r0, [r4], #-82	; 0xffffffae
     c8c:	00413042 	subeq	r3, r1, r2, asr #32
     c90:	485f314c 	ldmdami	pc, {r2, r3, r6, r8, ip, sp}^	; <UNPREDICTABLE>
     c94:	41565241 	cmpmi	r6, r1, asr #4
     c98:	435f4452 	cmpmi	pc, #1375731712	; 0x52000000
     c9c:	45484341 	strbmi	r4, [r8, #-833]	; 0xfffffcbf
     ca0:	554d4d00 	strbpl	r4, [sp, #-3328]	; 0xfffff300
     ca4:	42414e45 	submi	r4, r1, #1104	; 0x450
     ca8:	4800454c 	stmdami	r0, {r2, r3, r6, r8, sl, lr}
     cac:	56445241 	strbpl	r5, [r4], -r1, asr #4
     cb0:	5f445241 	svcpl	0x00445241
     cb4:	00424c54 	subeq	r4, r2, r4, asr ip
     cb8:	5f4d454d 	svcpl	0x004d454d
     cbc:	52524142 	subspl	r4, r2, #-2147483632	; 0x80000010
     cc0:	00524549 	subseq	r4, r2, r9, asr #10
     cc4:	42414e45 	submi	r4, r1, #1104	; 0x450
     cc8:	4641454c 	strbmi	r4, [r1], -ip, asr #10
     ccc:	47524f00 	ldrbmi	r4, [r2, -r0, lsl #30]
     cd0:	4f00304e 	svcmi	0x0000304e
     cd4:	314e4752 	cmpcc	lr, r2, asr r7
     cd8:	554d4d00 	strbpl	r4, [sp, #-3328]	; 0xfffff300
     cdc:	7465535f 	strbtvc	r5, [r5], #-863	; 0xfffffca1
     ce0:	7269465f 	rsbvc	r4, r9, #99614720	; 0x5f00000
     ce4:	654c7473 	strbvs	r7, [ip, #-1139]	; 0xfffffb8d
     ce8:	546c6576 	strbtpl	r6, [ip], #-1398	; 0xfffffa8a
     cec:	736e6172 	cmnvc	lr, #-2147483620	; 0x8000001c
     cf0:	6974616c 	ldmdbvs	r4!, {r2, r3, r5, r6, r8, sp, lr}^
     cf4:	61546e6f 	cmpvs	r4, pc, ror #28
     cf8:	5f656c62 	svcpl	0x00656c62
     cfc:	73796850 	cmnvc	r9, #80, 16	; 0x500000
     d00:	6c616369 	stclvs	3, cr6, [r1], #-420	; 0xfffffe5c
     d04:	72646441 	rsbvc	r6, r4, #1090519040	; 0x41000000
     d08:	00737365 	rsbseq	r7, r3, r5, ror #6
     d0c:	4554554f 	ldrbmi	r5, [r4, #-1359]	; 0xfffffab1
     d10:	534f4d52 	movtpl	r4, #64850	; 0xfd52
     d14:	48535f54 	ldmdami	r3, {r2, r4, r6, r8, r9, sl, fp, ip, lr}^
     d18:	41455241 	cmpmi	r5, r1, asr #4
     d1c:	494c4942 	stmdbmi	ip, {r1, r6, r8, fp, lr}^
     d20:	73005954 	movwvc	r5, #2388	; 0x954
     d24:	726c7463 	rsbvc	r7, ip, #1660944384	; 0x63000000
     d28:	756d6d00 	strbvc	r6, [sp, #-3328]!	; 0xfffff300
     d2c:	62616e65 	rsbvs	r6, r1, #1616	; 0x650
     d30:	5200656c 	andpl	r6, r0, #108, 10	; 0x1b000000
     d34:	52455345 	subpl	r5, r5, #335544321	; 0x14000001
     d38:	30444556 	subcc	r4, r4, r6, asr r5
     d3c:	666d6d00 	strbtvs	r6, [sp], -r0, lsl #26
     d40:	6d003072 	stcvs	0, cr3, [r0, #-456]	; 0xfffffe38
     d44:	3172666d 	cmncc	r2, sp, ror #12
     d48:	666d6d00 	strbtvs	r6, [sp], -r0, lsl #26
     d4c:	6d003272 	sfmvs	f3, 4, [r0, #-456]	; 0xfffffe38
     d50:	3372666d 	cmncc	r2, #114294784	; 0x6d00000
     d54:	53455200 	movtpl	r5, #20992	; 0x5200
     d58:	45565245 	ldrbmi	r5, [r6, #-581]	; 0xfffffdbb
     d5c:	54003744 	strpl	r3, [r0], #-1860	; 0xfffff8bc
     d60:	41314254 	teqmi	r1, r4, asr r2
     d64:	53434600 	movtpl	r4, #13824	; 0x3600
     d68:	55535f45 	ldrbpl	r5, [r3, #-3909]	; 0xfffff0bb
     d6c:	524f5050 	subpl	r5, pc, #80	; 0x50
     d70:	30540054 	subscc	r0, r4, r4, asr r0
     d74:	42005a53 	andmi	r5, r0, #339968	; 0x53000
     d78:	434e4152 	movtmi	r4, #57682	; 0xe152
     d7c:	52505f48 	subspl	r5, r0, #72, 30	; 0x120
     d80:	43494445 	movtmi	r4, #37957	; 0x9445
     d84:	00524f54 	subseq	r4, r2, r4, asr pc
     d88:	45534552 	ldrbmi	r4, [r3, #-1362]	; 0xfffffaae
     d8c:	44455652 	strbmi	r5, [r5], #-1618	; 0xfffff9ae
     d90:	46410031 			; <UNDEFINED> instruction: 0x46410031
     d94:	004f4e5f 	subeq	r4, pc, pc, asr lr	; <UNPREDICTABLE>
     d98:	45534552 	ldrbmi	r4, [r3, #-1362]	; 0xfffffaae
     d9c:	44455652 	strbmi	r5, [r5], #-1618	; 0xfffff9ae
     da0:	45520033 	ldrbmi	r0, [r2, #-51]	; 0xffffffcd
     da4:	56524553 			; <UNDEFINED> instruction: 0x56524553
     da8:	00344445 	eorseq	r4, r4, r5, asr #8
     dac:	49585541 	ldmdbmi	r8, {r0, r6, r8, sl, ip, lr}^
     db0:	5241494c 	subpl	r4, r1, #76, 18	; 0x130000
     db4:	45525f59 	ldrbmi	r5, [r2, #-3929]	; 0xfffff0a7
     db8:	54534947 	ldrbpl	r4, [r3], #-2375	; 0xfffff6b9
     dbc:	00535245 	subseq	r5, r3, r5, asr #4
     dc0:	45534552 	ldrbmi	r4, [r3, #-1362]	; 0xfffffaae
     dc4:	44455652 	strbmi	r5, [r5], #-1618	; 0xfffff9ae
     dc8:	45520035 	ldrbmi	r0, [r2, #-53]	; 0xffffffcb
     dcc:	56524553 			; <UNDEFINED> instruction: 0x56524553
     dd0:	00364445 	eorseq	r4, r6, r5, asr #8
     dd4:	485f314c 	ldmdami	pc, {r2, r3, r6, r8, ip, sp}^	; <UNPREDICTABLE>
     dd8:	41565241 	cmpmi	r6, r1, asr #4
     ddc:	465f4452 			; <UNDEFINED> instruction: 0x465f4452
     de0:	45465f47 	strbmi	r5, [r6, #-3911]	; 0xfffff0b9
     de4:	00484354 	subeq	r4, r8, r4, asr r3
     de8:	595f4641 	ldmdbpl	pc, {r0, r6, r9, sl, lr}^	; <UNPREDICTABLE>
     dec:	53005345 	movwpl	r5, #837	; 0x345
     df0:	45524148 	ldrbmi	r4, [r2, #-328]	; 0xfffffeb8
     df4:	4c494241 	sfmmi	f4, 2, [r9], {65}	; 0x41
     df8:	5f595449 	svcpl	0x00595449
     dfc:	4556454c 	ldrbmi	r4, [r6, #-1356]	; 0xfffffab4
     e00:	5000534c 	andpl	r5, r0, ip, asr #6
     e04:	0041534d 	subeq	r5, r1, sp, asr #6
     e08:	5f554d4d 	svcpl	0x00554d4d
     e0c:	5f746553 	svcpl	0x00746553
     e10:	4c544353 	mrrcmi	3, 5, r4, r4, cr3	; <UNPREDICTABLE>
     e14:	4d4d0052 	stclmi	0, cr0, [sp, #-328]	; 0xfffffeb8
     e18:	65475f55 	strbvs	r5, [r7, #-3925]	; 0xfffff0ab
     e1c:	44495f74 	strbmi	r5, [r9], #-3956	; 0xfffff08c
     e20:	464d4d5f 			; <UNDEFINED> instruction: 0x464d4d5f
     e24:	4d003152 	stfmis	f3, [r0, #-328]	; 0xfffffeb8
     e28:	475f554d 	ldrbmi	r5, [pc, -sp, asr #10]
     e2c:	495f7465 	ldmdbmi	pc, {r0, r2, r5, r6, sl, ip, sp, lr}^	; <UNPREDICTABLE>
     e30:	4d4d5f44 	stclmi	15, cr5, [sp, #-272]	; 0xfffffef0
     e34:	00335246 	eorseq	r5, r3, r6, asr #4
     e38:	485f314c 	ldmdami	pc, {r2, r3, r6, r8, ip, sp}^	; <UNPREDICTABLE>
     e3c:	41565241 	cmpmi	r6, r1, asr #4
     e40:	525f4452 	subspl	r4, pc, #1375731712	; 0x52000000
     e44:	45474e41 	strbmi	r4, [r7, #-3649]	; 0xfffff1bf
     e48:	47524900 	ldrbmi	r4, [r2, -r0, lsl #18]
     e4c:	4900304e 	stmdbmi	r0, {r1, r2, r3, r6, ip, sp}
     e50:	314e4752 	cmpcc	lr, r2, asr r7
     e54:	53455200 	movtpl	r5, #20992	; 0x5200
     e58:	45565245 	ldrbmi	r5, [r6, #-581]	; 0xfffffdbb
     e5c:	73003244 	movwvc	r3, #580	; 0x244
     e60:	6d2f6372 	stcvs	3, cr6, [pc, #-456]!	; ca0 <SYS_STACK_SIZE+0x8a0>
     e64:	745f756d 	ldrbvc	r7, [pc], #-1389	; e6c <SYS_STACK_SIZE+0xa6c>
     e68:	736c6f6f 	cmnvc	ip, #444	; 0x1bc
     e6c:	00632e5f 	rsbeq	r2, r3, pc, asr lr
     e70:	5f554d4d 	svcpl	0x00554d4d
     e74:	62616e45 	rsbvs	r6, r1, #1104	; 0x450
     e78:	415f656c 	cmpmi	pc, ip, ror #10
     e7c:	73656363 	cmnvc	r5, #-1946157055	; 0x8c000001
     e80:	616c4673 	smcvs	50275	; 0xc463
     e84:	314c0067 	cmpcc	ip, r7, rrx
     e88:	4341435f 	movtmi	r4, #4959	; 0x135f
     e8c:	545f4548 	ldrbpl	r4, [pc], #-1352	; e94 <SYS_STACK_SIZE+0xa94>
     e90:	5f545345 	svcpl	0x00545345
     e94:	5f444e41 	svcpl	0x00444e41
     e98:	41454c43 	cmpmi	r5, r3, asr #24
     e9c:	4d4d004e 	stclmi	0, cr0, [sp, #-312]	; 0xfffffec8
     ea0:	65475f55 	strbvs	r5, [r7, #-3925]	; 0xfffff0ab
     ea4:	44495f74 	strbmi	r5, [r9], #-3956	; 0xfffff08c
     ea8:	464d4d5f 			; <UNDEFINED> instruction: 0x464d4d5f
     eac:	4d003052 	stcmi	0, cr3, [r0, #-328]	; 0xfffffeb8
     eb0:	475f554d 	ldrbmi	r5, [pc, -sp, asr #10]
     eb4:	445f7465 	ldrbmi	r7, [pc], #-1125	; ebc <SYS_STACK_SIZE+0xabc>
     eb8:	00524341 	subseq	r4, r2, r1, asr #6
     ebc:	5f554d4d 	svcpl	0x00554d4d
     ec0:	5f746547 	svcpl	0x00746547
     ec4:	4d5f4449 	cfldrdmi	mvd4, [pc, #-292]	; da8 <SYS_STACK_SIZE+0x9a8>
     ec8:	3252464d 	subscc	r4, r2, #80740352	; 0x4d00000
     ecc:	5f314c00 	svcpl	0x00314c00
     ed0:	46494e55 			; <UNDEFINED> instruction: 0x46494e55
     ed4:	5f444549 	svcpl	0x00444549
     ed8:	48434143 	stmdami	r3, {r0, r1, r6, r8, lr}^
     edc:	41565f45 	cmpmi	r6, r5, asr #30
     ee0:	494e5500 	stmdbmi	lr, {r8, sl, ip, lr}^
     ee4:	44454946 	strbmi	r4, [r5], #-2374	; 0xfffff6ba
     ee8:	424c545f 	submi	r5, ip, #1593835520	; 0x5f000000
     eec:	554d4d00 	strbpl	r4, [sp, #-3328]	; 0xfffff300
     ef0:	766e495f 			; <UNDEFINED> instruction: 0x766e495f
     ef4:	64696c61 	strbtvs	r6, [r9], #-3169	; 0xfffff39f
     ef8:	5f657461 	svcpl	0x00657461
     efc:	00424c54 	subeq	r4, r2, r4, asr ip
     f00:	45505553 	ldrbmi	r5, [r0, #-1363]	; 0xfffffaad
     f04:	43455352 	movtmi	r5, #21330	; 0x5352
     f08:	4e4f4954 			; <UNDEFINED> instruction: 0x4e4f4954
     f0c:	5055535f 	subspl	r5, r5, pc, asr r3
     f10:	54524f50 	ldrbpl	r4, [r2], #-3920	; 0xfffff0b0
     f14:	5f314c00 	svcpl	0x00314c00
     f18:	56524148 	ldrbpl	r4, [r2], -r8, asr #2
     f1c:	5f445241 	svcpl	0x00445241
     f20:	465f4742 	ldrbmi	r4, [pc], -r2, asr #14
     f24:	48435445 	stmdami	r3, {r0, r2, r6, sl, ip, lr}^
     f28:	43414300 	movtmi	r4, #4864	; 0x1300
     f2c:	4d5f4548 	cfldr64mi	mvdx4, [pc, #-288]	; e14 <SYS_STACK_SIZE+0xa14>
     f30:	544e4941 	strbpl	r4, [lr], #-2369	; 0xfffff6bf
     f34:	4e414e45 	cdpmi	14, 4, cr4, cr1, cr5, {2}
     f38:	4d5f4543 	cfldr64mi	mvdx4, [pc, #-268]	; e34 <SYS_STACK_SIZE+0xa34>
     f3c:	73004156 	movwvc	r4, #342	; 0x156
     f40:	54746f6c 	ldrbtpl	r6, [r4], #-3948	; 0xfffff094
     f44:	6c730031 	ldclvs	0, cr0, [r3], #-196	; 0xffffff3c
     f48:	3254746f 	subscc	r7, r4, #1862270976	; 0x6f000000
     f4c:	72696400 	rsbvc	r6, r9, #0, 8
     f50:	7369665f 	cmnvc	r9, #99614720	; 0x5f00000
     f54:	00616369 	rsbeq	r6, r1, r9, ror #6
     f58:	656c5f5f 	strbvs	r5, [ip, #-3935]!	; 0xfffff0a1
     f5c:	316c6576 	smccc	50774	; 0xc656
     f60:	6761705f 			; <UNDEFINED> instruction: 0x6761705f
     f64:	6e695f65 	cdpvs	15, 6, cr5, cr9, cr5, {3}
     f68:	73007469 	movwvc	r7, #1129	; 0x469
     f6c:	6d2f6372 	stcvs	3, cr6, [pc, #-456]!	; dac <SYS_STACK_SIZE+0x9ac>
     f70:	632e756d 			; <UNDEFINED> instruction: 0x632e756d
     f74:	6c5f5f00 	mrrcvs	15, 0, r5, pc, cr0	; <UNPREDICTABLE>
     f78:	6c657665 	stclvs	6, cr7, [r5], #-404	; 0xfffffe6c
     f7c:	61705f32 	cmnvs	r0, r2, lsr pc
     f80:	695f6567 	ldmdbvs	pc, {r0, r1, r2, r5, r6, r8, sl, sp, lr}^	; <UNPREDICTABLE>
     f84:	0074696e 	rsbseq	r6, r4, lr, ror #18
     f88:	72646461 	rsbvc	r6, r4, #1627389952	; 0x61000000
     f8c:	5f003254 	svcpl	0x00003254
     f90:	756d6d5f 	strbvc	r6, [sp, #-3423]!	; 0xfffff2a1
     f94:	696e695f 	stmdbvs	lr!, {r0, r1, r2, r3, r4, r6, r8, fp, sp, lr}^
     f98:	43490074 	movtmi	r0, #36980	; 0x9074
     f9c:	42414e45 	submi	r4, r1, #1104	; 0x450
     fa0:	0052454c 	subseq	r4, r2, ip, asr #10
     fa4:	45505954 	ldrbmi	r5, [r0, #-2388]	; 0xfffff6ac
     fa8:	675f0052 			; <UNDEFINED> instruction: 0x675f0052
     fac:	5f646369 	svcpl	0x00646369
     fb0:	49470074 	stmdbmi	r7, {r2, r4, r5, r6}^
     fb4:	00304343 	eorseq	r4, r0, r3, asr #6
     fb8:	47464349 	strbmi	r4, [r6, -r9, asr #6]
     fbc:	675f0052 			; <UNDEFINED> instruction: 0x675f0052
     fc0:	5f636369 	svcpl	0x00636369
     fc4:	50490074 	subpl	r0, r9, r4, ror r0
     fc8:	524f4952 	subpl	r4, pc, #1343488	; 0x148000
     fcc:	52595449 	subspl	r5, r9, #1224736768	; 0x49000000
     fd0:	494f4500 	stmdbmi	pc, {r8, sl, lr}^	; <UNPREDICTABLE>
     fd4:	53490052 	movtpl	r0, #36946	; 0x9052
     fd8:	49544341 	ldmdbmi	r4, {r0, r6, r8, r9, lr}^
     fdc:	00524556 	subseq	r4, r2, r6, asr r5
     fe0:	2f637273 	svccs	0x00637273
     fe4:	2e636967 	vnmulcs.f16	s13, s6, s15	; <UNPREDICTABLE>
     fe8:	65720063 	ldrbvs	r0, [r2, #-99]!	; 0xffffff9d
     fec:	76726573 			; <UNDEFINED> instruction: 0x76726573
     ff0:	00306465 	eorseq	r6, r0, r5, ror #8
     ff4:	65736572 	ldrbvs	r6, [r3, #-1394]!	; 0xfffffa8e
     ff8:	64657672 	strbtvs	r7, [r5], #-1650	; 0xfffff98e
     ffc:	65720031 	ldrbvs	r0, [r2, #-49]!	; 0xffffffcf
    1000:	76726573 			; <UNDEFINED> instruction: 0x76726573
    1004:	00326465 	eorseq	r6, r2, r5, ror #8
    1008:	65736572 	ldrbvs	r6, [r3, #-1394]!	; 0xfffffa8e
    100c:	64657672 	strbtvs	r7, [r5], #-1650	; 0xfffff98e
    1010:	65720033 	ldrbvs	r0, [r2, #-51]!	; 0xffffffcd
    1014:	76726573 			; <UNDEFINED> instruction: 0x76726573
    1018:	00346465 	eorseq	r6, r4, r5, ror #8
    101c:	65736572 	ldrbvs	r6, [r3, #-1394]!	; 0xfffffa8e
    1020:	64657672 	strbtvs	r7, [r5], #-1650	; 0xfffff98e
    1024:	65720035 	ldrbvs	r0, [r2, #-53]!	; 0xffffffcb
    1028:	76726573 			; <UNDEFINED> instruction: 0x76726573
    102c:	00366465 	eorseq	r6, r6, r5, ror #8
    1030:	65736572 	ldrbvs	r6, [r3, #-1394]!	; 0xfffffa8e
    1034:	64657672 	strbtvs	r7, [r5], #-1650	; 0xfffff98e
    1038:	65720037 	ldrbvs	r0, [r2, #-55]!	; 0xffffffc9
    103c:	76726573 			; <UNDEFINED> instruction: 0x76726573
    1040:	00396465 	eorseq	r6, r9, r5, ror #8
    1044:	44434947 	strbmi	r4, [r3], #-2375	; 0xfffff6b9
    1048:	53490030 	movtpl	r0, #36912	; 0x9030
    104c:	42414e45 	submi	r4, r1, #1104	; 0x450
    1050:	0052454c 	subseq	r4, r2, ip, asr #10
    1054:	49505048 	ldmdbmi	r0, {r3, r6, ip, lr}^
    1058:	65720052 	ldrbvs	r0, [r2, #-82]!	; 0xffffffae
    105c:	76726573 			; <UNDEFINED> instruction: 0x76726573
    1060:	00386465 	eorseq	r6, r8, r5, ror #8
    1064:	45504349 	ldrbmi	r4, [r0, #-841]	; 0xfffffcb7
    1068:	0052444e 	subseq	r4, r2, lr, asr #8
    106c:	52494753 	subpl	r4, r9, #21757952	; 0x14c0000
    1070:	675f5f00 	ldrbvs	r5, [pc, -r0, lsl #30]
    1074:	695f6369 	ldmdbvs	pc, {r0, r3, r5, r6, r8, r9, sp, lr}^	; <UNPREDICTABLE>
    1078:	0074696e 	rsbseq	r6, r4, lr, ror #18
    107c:	52415449 	subpl	r5, r1, #1224736768	; 0x49000000
    1080:	53544547 	cmppl	r4, #297795584	; 0x11c00000
    1084:	53490052 	movtpl	r0, #36946	; 0x9052
    1088:	444e4550 	strbmi	r4, [lr], #-1360	; 0xfffffab0
    108c:	69540052 	ldmdbvs	r4, {r1, r4, r6}^
    1090:	3172656d 	cmncc	r2, sp, ror #10
    1094:	0053494d 	subseq	r4, r3, sp, asr #18
    1098:	656d6954 	strbvs	r6, [sp, #-2388]!	; 0xfffff6ac
    109c:	74433172 	strbvc	r3, [r3], #-370	; 0xfffffe8e
    10a0:	54006c72 	strpl	r6, [r0], #-3186	; 0xfffff38e
    10a4:	72656d69 	rsbvc	r6, r5, #6720	; 0x1a40
    10a8:	53494d32 	movtpl	r4, #40242	; 0x9d32
    10ac:	4d495400 	cfstrdmi	mvd5, [r9, #-0]
    10b0:	31305245 	teqcc	r0, r5, asr #4
    10b4:	6d695400 	cfstrdvs	mvd5, [r9, #-0]
    10b8:	4c317265 	lfmmi	f7, 4, [r1], #-404	; 0xfffffe6c
    10bc:	0064616f 	rsbeq	r6, r4, pc, ror #2
    10c0:	656d6954 	strbvs	r6, [sp, #-2388]!	; 0xfffff6ac
    10c4:	61563272 	cmpvs	r6, r2, ror r2
    10c8:	0065756c 	rsbeq	r7, r5, ip, ror #10
    10cc:	656d6954 	strbvs	r6, [sp, #-2388]!	; 0xfffff6ac
    10d0:	43544972 	cmpmi	r4, #1867776	; 0x1c8000
    10d4:	69540052 	ldmdbvs	r4, {r1, r4, r6}^
    10d8:	3272656d 	rsbscc	r6, r2, #457179136	; 0x1b400000
    10dc:	6c727443 	cfldrdvs	mvd7, [r2], #-268	; 0xfffffef4
    10e0:	63727300 	cmnvs	r2, #0, 6
    10e4:	6d69742f 	cfstrdvs	mvd7, [r9, #-188]!	; 0xffffff44
    10e8:	632e7265 			; <UNDEFINED> instruction: 0x632e7265
    10ec:	69745f00 	ldmdbvs	r4!, {r8, r9, sl, fp, ip, lr}^
    10f0:	5f72656d 	svcpl	0x0072656d
    10f4:	43500074 	cmpmi	r0, #116	; 0x74
    10f8:	496c6c65 	stmdbmi	ip!, {r0, r2, r5, r6, sl, fp, sp, lr}^
    10fc:	69540044 	ldmdbvs	r4, {r2, r6}^
    1100:	3272656d 	rsbscc	r6, r2, #457179136	; 0x1b400000
    1104:	64616f4c 	strbtvs	r6, [r1], #-3916	; 0xfffff0b4
    1108:	6d695400 	cfstrdvs	mvd5, [r9, #-0]
    110c:	49317265 	ldmdbmi	r1!, {r0, r2, r5, r6, r9, ip, sp, lr}
    1110:	6c43746e 	cfstrdvs	mvd7, [r3], {110}	; 0x6e
    1114:	69540072 	ldmdbvs	r4, {r1, r4, r5, r6}^
    1118:	3272656d 	rsbscc	r6, r2, #457179136	; 0x1b400000
    111c:	43746e49 	cmnmi	r4, #1168	; 0x490
    1120:	5400726c 	strpl	r7, [r0], #-620	; 0xfffffd94
    1124:	72656d69 	rsbvc	r6, r5, #6720	; 0x1a40
    1128:	504f5449 	subpl	r5, pc, r9, asr #8
    112c:	6d695400 	cfstrdvs	mvd5, [r9, #-0]
    1130:	52317265 	eorspl	r7, r1, #1342177286	; 0x50000006
    1134:	54005349 	strpl	r5, [r0], #-841	; 0xfffffcb7
    1138:	72656d69 	rsbvc	r6, r5, #6720	; 0x1a40
    113c:	4c474232 	sfmmi	f4, 2, [r7], {50}	; 0x32
    1140:	0064616f 	rsbeq	r6, r4, pc, ror #2
    1144:	69726550 	ldmdbvs	r2!, {r4, r6, r8, sl, sp, lr}^
    1148:	44496870 	strbmi	r6, [r9], #-2160	; 0xfffff790
    114c:	745f5f00 	ldrbvc	r5, [pc], #-3840	; 1154 <C_STACK_SIZE+0x154>
    1150:	72656d69 	rsbvc	r6, r5, #6720	; 0x1a40
    1154:	696e695f 	stmdbvs	lr!, {r0, r1, r2, r3, r4, r6, r8, fp, sp, lr}^
    1158:	69540074 	ldmdbvs	r4, {r2, r4, r5, r6}^
    115c:	3172656d 	cmncc	r2, sp, ror #10
    1160:	6f4c4742 	svcvs	0x004c4742
    1164:	54006461 	strpl	r6, [r0], #-1121	; 0xfffffb9f
    1168:	72656d69 	rsbvc	r6, r5, #6720	; 0x1a40
    116c:	53495232 	movtpl	r5, #37426	; 0x9232
    1170:	6d695400 	cfstrdvs	mvd5, [r9, #-0]
    1174:	56317265 	ldrtpl	r7, [r1], -r5, ror #4
    1178:	65756c61 	ldrbvs	r6, [r5, #-3169]!	; 0xfffff39f
    117c:	745f5f00 	ldrbvc	r5, [pc], #-3840	; 1184 <C_STACK_SIZE+0x184>
    1180:	5f6b7361 	svcpl	0x006b7361
    1184:	656c6469 	strbvs	r6, [ip, #-1129]!	; 0xfffffb97
    1188:	6376735f 	cmnvs	r6, #2080374785	; 0x7c000001
    118c:	6174735f 	cmnvs	r4, pc, asr r3
    1190:	745f6b63 	ldrbvc	r6, [pc], #-2915	; 1198 <C_STACK_SIZE+0x198>
    1194:	5f5f706f 	svcpl	0x005f706f
    1198:	00594850 	subseq	r4, r9, r0, asr r8
    119c:	61745f5f 	cmnvs	r4, pc, asr pc
    11a0:	695f6b73 	ldmdbvs	pc, {r0, r1, r4, r5, r6, r8, r9, fp, sp, lr}^	; <UNPREDICTABLE>
    11a4:	5f656c64 	svcpl	0x00656c64
    11a8:	5f717269 	svcpl	0x00717269
    11ac:	63617473 	cmnvs	r1, #1929379840	; 0x73000000
    11b0:	6f745f6b 	svcvs	0x00745f6b
    11b4:	565f5f70 	usub16pl	r5, pc, r0	; <UNPREDICTABLE>
    11b8:	5f00414d 	svcpl	0x0000414d
    11bc:	7361745f 	cmnvc	r1, #1593835520	; 0x5f000000
    11c0:	5f325f6b 	svcpl	0x00325f6b
    11c4:	5f637673 	svcpl	0x00637673
    11c8:	63617473 	cmnvs	r1, #1929379840	; 0x73000000
    11cc:	6f745f6b 	svcvs	0x00745f6b
    11d0:	505f5f70 	subspl	r5, pc, r0, ror pc	; <UNPREDICTABLE>
    11d4:	5f005948 	svcpl	0x00005948
    11d8:	7361745f 	cmnvc	r1, #1593835520	; 0x5f000000
    11dc:	5f325f6b 	svcpl	0x00325f6b
    11e0:	5f717269 	svcpl	0x00717269
    11e4:	63617473 	cmnvs	r1, #1929379840	; 0x73000000
    11e8:	6f745f6b 	svcvs	0x00745f6b
    11ec:	565f5f70 	usub16pl	r5, pc, r0	; <UNPREDICTABLE>
    11f0:	5f00414d 	svcpl	0x0000414d
    11f4:	7361745f 	cmnvc	r1, #1593835520	; 0x5f000000
    11f8:	5f315f6b 	svcpl	0x00315f6b
    11fc:	5f717269 	svcpl	0x00717269
    1200:	63617473 	cmnvs	r1, #1929379840	; 0x73000000
    1204:	6f745f6b 	svcvs	0x00745f6b
    1208:	505f5f70 	subspl	r5, pc, r0, ror pc	; <UNPREDICTABLE>
    120c:	74005948 	strvc	r5, [r0], #-2376	; 0xfffff6b8
    1210:	736b6369 	cmnvc	fp, #-1543503871	; 0xa4000001
    1214:	63727300 	cmnvs	r2, #0, 6
    1218:	616f622f 	cmnvs	pc, pc, lsr #4
    121c:	695f6472 	ldmdbvs	pc, {r1, r4, r5, r6, sl, sp, lr}^	; <UNPREDICTABLE>
    1220:	2e74696e 	vsubcs.f16	s13, s8, s29	; <UNPREDICTABLE>
    1224:	63740063 	cmnvs	r4, #99	; 0x63
    1228:	61745f62 	cmnvs	r4, r2, ror #30
    122c:	73616572 	cmnvc	r1, #478150656	; 0x1c800000
    1230:	5f505300 	svcpl	0x00505300
    1234:	5f515249 	svcpl	0x00515249
    1238:	00414d56 	subeq	r4, r1, r6, asr sp
    123c:	72727563 	rsbsvc	r7, r2, #415236096	; 0x18c00000
    1240:	5f746e65 	svcpl	0x00746e65
    1244:	6b736174 	blvs	1cd981c <__kernel_size__+0x1cd82e8>
    1248:	745f5f00 	ldrbvc	r5, [pc], #-3840	; 1250 <C_STACK_SIZE+0x250>
    124c:	5f6b7361 	svcpl	0x006b7361
    1250:	76735f32 	uhasxvc	r5, r3, r2
    1254:	74735f63 	ldrbtvc	r5, [r3], #-3939	; 0xfffff09d
    1258:	5f6b6361 	svcpl	0x006b6361
    125c:	5f706f74 	svcpl	0x00706f74
    1260:	414d565f 	cmpmi	sp, pc, asr r6
    1264:	745f5f00 	ldrbvc	r5, [pc], #-3840	; 126c <C_STACK_SIZE+0x26c>
    1268:	5f6b7361 	svcpl	0x006b7361
    126c:	656c6469 	strbvs	r6, [ip, #-1129]!	; 0xfffffb97
    1270:	7172695f 	cmnvc	r2, pc, asr r9
    1274:	6174735f 	cmnvs	r4, pc, asr r3
    1278:	745f6b63 	ldrbvc	r6, [pc], #-2915	; 1280 <C_STACK_SIZE+0x280>
    127c:	5f5f706f 	svcpl	0x005f706f
    1280:	00594850 	subseq	r4, r9, r0, asr r8
    1284:	61745f5f 	cmnvs	r4, pc, asr pc
    1288:	325f6b73 	subscc	r6, pc, #117760	; 0x1cc00
    128c:	7172695f 	cmnvc	r2, pc, asr r9
    1290:	6174735f 	cmnvs	r4, pc, asr r3
    1294:	745f6b63 	ldrbvc	r6, [pc], #-2915	; 129c <C_STACK_SIZE+0x29c>
    1298:	5f5f706f 	svcpl	0x005f706f
    129c:	00594850 	subseq	r4, r9, r0, asr r8
    12a0:	61745f5f 	cmnvs	r4, pc, asr pc
    12a4:	315f6b73 	cmpcc	pc, r3, ror fp	; <UNPREDICTABLE>
    12a8:	6376735f 	cmnvs	r6, #2080374785	; 0x7c000001
    12ac:	6174735f 	cmnvs	r4, pc, asr r3
    12b0:	745f6b63 	ldrbvc	r6, [pc], #-2915	; 12b8 <C_STACK_SIZE+0x2b8>
    12b4:	5f5f706f 	svcpl	0x005f706f
    12b8:	00414d56 	subeq	r4, r1, r6, asr sp
    12bc:	72616f62 	rsbvc	r6, r1, #392	; 0x188
    12c0:	6e695f64 	cdpvs	15, 6, cr5, cr9, cr4, {3}
    12c4:	53007469 	movwpl	r7, #1129	; 0x469
    12c8:	56535f50 	usaxpl	r5, r3, r0
    12cc:	48505f43 	ldmdami	r0, {r0, r1, r6, r8, r9, sl, fp, ip, lr}^
    12d0:	61740059 	cmnvs	r4, r9, asr r0
    12d4:	735f6b73 	cmpvc	pc, #117760	; 0x1cc00
    12d8:	63746977 	cmnvs	r4, #1949696	; 0x1dc000
    12dc:	50530068 	subspl	r0, r3, r8, rrx
    12e0:	5152495f 	cmppl	r2, pc, asr r9
    12e4:	5948505f 	stmdbpl	r8, {r0, r1, r2, r3, r4, r6, ip, lr}^
    12e8:	5f505300 	svcpl	0x00505300
    12ec:	5f435653 	svcpl	0x00435653
    12f0:	00414d56 	subeq	r4, r1, r6, asr sp
    12f4:	61745f5f 	cmnvs	r4, pc, asr pc
    12f8:	695f6b73 	ldmdbvs	pc, {r0, r1, r4, r5, r6, r8, r9, fp, sp, lr}^	; <UNPREDICTABLE>
    12fc:	5f656c64 	svcpl	0x00656c64
    1300:	5f637673 	svcpl	0x00637673
    1304:	63617473 	cmnvs	r1, #1929379840	; 0x73000000
    1308:	6f745f6b 	svcvs	0x00745f6b
    130c:	565f5f70 	usub16pl	r5, pc, r0	; <UNPREDICTABLE>
    1310:	5f00414d 	svcpl	0x0000414d
    1314:	7361745f 	cmnvc	r1, #1593835520	; 0x5f000000
    1318:	5f315f6b 	svcpl	0x00315f6b
    131c:	5f637673 	svcpl	0x00637673
    1320:	63617473 	cmnvs	r1, #1929379840	; 0x73000000
    1324:	6f745f6b 	svcvs	0x00745f6b
    1328:	505f5f70 	subspl	r5, pc, r0, ror pc	; <UNPREDICTABLE>
    132c:	5f005948 	svcpl	0x00005948
    1330:	7361745f 	cmnvc	r1, #1593835520	; 0x5f000000
    1334:	5f315f6b 	svcpl	0x00315f6b
    1338:	5f717269 	svcpl	0x00717269
    133c:	63617473 	cmnvs	r1, #1929379840	; 0x73000000
    1340:	6f745f6b 	svcvs	0x00745f6b
    1344:	565f5f70 	usub16pl	r5, pc, r0	; <UNPREDICTABLE>
    1348:	6b00414d 	blvs	11884 <__kernel_size__+0x10350>
    134c:	656e7265 	strbvs	r7, [lr, #-613]!	; 0xfffffd9b
    1350:	61685f6c 	cmnvs	r8, ip, ror #30
    1354:	656c646e 	strbvs	r6, [ip, #-1134]!	; 0xfffffb92
    1358:	72695f72 	rsbvc	r5, r9, #456	; 0x1c8
    135c:	6f630071 	svcvs	0x00630071
    1360:	7865746e 	stmdavc	r5!, {r1, r2, r3, r5, r6, sl, ip, sp, lr}^
    1364:	00745f74 	rsbseq	r5, r4, r4, ror pc
    1368:	746e6f63 	strbtvc	r6, [lr], #-3939	; 0xfffff09d
    136c:	00747865 	rsbseq	r7, r4, r5, ror #16
    1370:	52535053 	subspl	r5, r3, #83	; 0x53
    1374:	63727300 	cmnvs	r2, #0, 6
    1378:	72656b2f 	rsbvc	r6, r5, #48128	; 0xbc00
    137c:	5f6c656e 	svcpl	0x006c656e
    1380:	646e6168 	strbtvs	r6, [lr], #-360	; 0xfffffe98
    1384:	5f72656c 	svcpl	0x0072656c
    1388:	2e717269 	cdpcs	2, 7, cr7, cr1, cr9, {3}
    138c:	69740063 	ldmdbvs	r4!, {r0, r1, r5, r6}^
    1390:	5f736b63 	svcpl	0x00736b63
    1394:	6b736174 	blvs	1cd996c <__kernel_size__+0x1cd8438>
    1398:	5f505300 	svcpl	0x00505300
    139c:	00515249 	subseq	r5, r1, r9, asr #4
    13a0:	6b736174 	blvs	1cd9978 <__kernel_size__+0x1cd8444>
    13a4:	6d656d5f 	stclvs	13, cr6, [r5, #-380]!	; 0xfffffe84
    13a8:	6376735f 	cmnvs	r6, #2080374785	; 0x7c000001
    13ac:	7968705f 	stmdbvc	r8!, {r0, r1, r2, r3, r4, r6, ip, sp, lr}^
    13b0:	63727300 	cmnvs	r2, #0, 6
    13b4:	6863732f 	stmdavs	r3!, {r0, r1, r2, r3, r5, r8, r9, ip, sp, lr}^
    13b8:	6c756465 	cfldrdvs	mvd6, [r5], #-404	; 0xfffffe6c
    13bc:	632e7265 			; <UNDEFINED> instruction: 0x632e7265
    13c0:	73617400 	cmnvc	r1, #0, 8
    13c4:	656d5f6b 	strbvs	r5, [sp, #-3947]!	; 0xfffff095
    13c8:	72695f6d 	rsbvc	r5, r9, #436	; 0x1b4
    13cc:	68705f71 	ldmdavs	r0!, {r0, r4, r5, r6, r8, r9, sl, fp, ip, lr}^
    13d0:	61740079 	cmnvs	r4, r9, ror r0
    13d4:	745f6b73 	ldrbvc	r6, [pc], #-2931	; 13dc <C_STACK_SIZE+0x3dc>
    13d8:	30726274 	rsbscc	r6, r2, r4, ror r2
    13dc:	68637300 	stmdavs	r3!, {r8, r9, ip, sp, lr}^
    13e0:	6c756465 	cfldrdvs	mvd6, [r5], #-404	; 0xfffffe6c
    13e4:	635f7265 	cmpvs	pc, #1342177286	; 0x50000006
    13e8:	735f5f00 	cmpvc	pc, #0, 30
    13ec:	64656863 	strbtvs	r6, [r5], #-2147	; 0xfffff79d
    13f0:	72656c75 	rsbvc	r6, r5, #29952	; 0x7500
    13f4:	696e695f 	stmdbvs	lr!, {r0, r1, r2, r3, r4, r6, r8, fp, sp, lr}^
    13f8:	61740074 	cmnvs	r4, r4, ror r0
    13fc:	6d5f6b73 	vldrvs	d22, [pc, #-460]	; 1238 <C_STACK_SIZE+0x238>
    1400:	735f6d65 	cmpvc	pc, #6464	; 0x1940
    1404:	765f6376 			; <UNDEFINED> instruction: 0x765f6376
    1408:	6600616d 	strvs	r6, [r0], -sp, ror #2
    140c:	69636e75 	stmdbvs	r3!, {r0, r2, r4, r5, r6, r9, sl, fp, sp, lr}^
    1410:	73656e6f 	cmnvc	r5, #1776	; 0x6f0
    1414:	73617400 	cmnvc	r1, #0, 8
    1418:	656d5f6b 	strbvs	r5, [sp, #-3947]!	; 0xfffff095
    141c:	72695f6d 	rsbvc	r5, r9, #436	; 0x1b4
    1420:	6d765f71 	ldclvs	15, cr5, [r6, #-452]!	; 0xfffffe3c
    1424:	65720061 	ldrbvs	r0, [r2, #-97]!	; 0xffffff9f
    1428:	6e696461 	cdpvs	4, 6, cr6, cr9, cr1, {3}
    142c:	65765f67 	ldrbvs	r5, [r6, #-3943]!	; 0xfffff099
    1430:	69666972 	stmdbvs	r6!, {r1, r4, r5, r6, r8, fp, sp, lr}^
    1434:	6f746163 	svcvs	0x00746163
    1438:	6f630072 	svcvs	0x00630072
    143c:	7865746e 	stmdavc	r5!, {r1, r2, r3, r5, r6, sl, ip, sp, lr}^
    1440:	61735f74 	cmnvs	r3, r4, ror pc
    1444:	00726576 	rsbseq	r6, r2, r6, ror r5
    1448:	61745f5f 	cmnvs	r4, pc, asr pc
    144c:	5f616572 	svcpl	0x00616572
    1450:	72730031 	rsbsvc	r0, r3, #49	; 0x31
    1454:	61742f63 	cmnvs	r4, r3, ror #30
    1458:	5f616572 	svcpl	0x00616572
    145c:	00632e31 	rsbeq	r2, r3, r1, lsr lr
    1460:	2f637273 	svccs	0x00637273
    1464:	65726174 	ldrbvs	r6, [r2, #-372]!	; 0xfffffe8c
    1468:	2e325f61 	cdpcs	15, 3, cr5, cr2, cr1, {3}
    146c:	5f5f0063 	svcpl	0x005f0063
    1470:	65726174 	ldrbvs	r6, [r2, #-372]!	; 0xfffffe8c
    1474:	00325f61 	eorseq	r5, r2, r1, ror #30
    1478:	61745f5f 	cmnvs	r4, pc, asr pc
    147c:	5f616572 	svcpl	0x00616572
    1480:	656c6469 	strbvs	r6, [ip, #-1129]!	; 0xfffffb97
    1484:	63727300 	cmnvs	r2, #0, 6
    1488:	7261742f 	rsbvc	r7, r1, #788529152	; 0x2f000000
    148c:	695f6165 	ldmdbvs	pc, {r0, r2, r5, r6, r8, sp, lr}^	; <UNPREDICTABLE>
    1490:	2e656c64 	cdpcs	12, 6, cr6, cr5, cr4, {3}
    1494:	Address 0x0000000000001494 is out of bounds.


Disassembly of section .debug_frame:

00000000 <.debug_frame>:
   0:	0000000c 	andeq	r0, r0, ip
   4:	ffffffff 			; <UNDEFINED> instruction: 0xffffffff
   8:	7c020001 	stcvc	0, cr0, [r2], {1}
   c:	000d0c0e 	andeq	r0, sp, lr, lsl #24
  10:	0000001c 	andeq	r0, r0, ip, lsl r0
  14:	00000000 	andeq	r0, r0, r0
  18:	70010204 	andvc	r0, r1, r4, lsl #4
  1c:	00000080 	andeq	r0, r0, r0, lsl #1
  20:	8b040e42 	blhi	103930 <__kernel_size__+0x1023fc>
  24:	0b0d4201 	bleq	350830 <__kernel_size__+0x34f2fc>
  28:	420d0d78 	andmi	r0, sp, #120, 26	; 0x1e00
  2c:	00000ecb 	andeq	r0, r0, fp, asr #29
  30:	00000018 	andeq	r0, r0, r8, lsl r0
  34:	00000000 	andeq	r0, r0, r0
  38:	70010284 	andvc	r0, r1, r4, lsl #5
  3c:	000001b0 			; <UNDEFINED> instruction: 0x000001b0
  40:	8b080e42 	blhi	203950 <__kernel_size__+0x20241c>
  44:	42018e02 	andmi	r8, r1, #2, 28
  48:	00040b0c 	andeq	r0, r4, ip, lsl #22
  4c:	0000000c 	andeq	r0, r0, ip
  50:	ffffffff 			; <UNDEFINED> instruction: 0xffffffff
  54:	7c020001 	stcvc	0, cr0, [r2], {1}
  58:	000d0c0e 	andeq	r0, sp, lr, lsl #24
  5c:	0000001c 	andeq	r0, r0, ip, lsl r0
  60:	0000004c 	andeq	r0, r0, ip, asr #32
  64:	70030000 	andvc	r0, r3, r0
  68:	00000028 	andeq	r0, r0, r8, lsr #32
  6c:	8b040e42 	blhi	10397c <__kernel_size__+0x102448>
  70:	0b0d4201 	bleq	35087c <__kernel_size__+0x34f348>
  74:	420d0d4c 	andmi	r0, sp, #76, 26	; 0x1300
  78:	00000ecb 	andeq	r0, r0, fp, asr #29
  7c:	0000001c 	andeq	r0, r0, ip, lsl r0
  80:	0000004c 	andeq	r0, r0, ip, asr #32
  84:	70030028 	andvc	r0, r3, r8, lsr #32
  88:	00000028 	andeq	r0, r0, r8, lsr #32
  8c:	8b040e42 	blhi	10399c <__kernel_size__+0x102468>
  90:	0b0d4201 	bleq	35089c <__kernel_size__+0x34f368>
  94:	420d0d4c 	andmi	r0, sp, #76, 26	; 0x1300
  98:	00000ecb 	andeq	r0, r0, fp, asr #29
  9c:	0000001c 	andeq	r0, r0, ip, lsl r0
  a0:	0000004c 	andeq	r0, r0, ip, asr #32
  a4:	70030050 	andvc	r0, r3, r0, asr r0
  a8:	00000028 	andeq	r0, r0, r8, lsr #32
  ac:	8b040e42 	blhi	1039bc <__kernel_size__+0x102488>
  b0:	0b0d4201 	bleq	3508bc <__kernel_size__+0x34f388>
  b4:	420d0d4c 	andmi	r0, sp, #76, 26	; 0x1300
  b8:	00000ecb 	andeq	r0, r0, fp, asr #29
  bc:	0000001c 	andeq	r0, r0, ip, lsl r0
  c0:	0000004c 	andeq	r0, r0, ip, asr #32
  c4:	70030078 	andvc	r0, r3, r8, ror r0
  c8:	00000028 	andeq	r0, r0, r8, lsr #32
  cc:	8b040e42 	blhi	1039dc <__kernel_size__+0x1024a8>
  d0:	0b0d4201 	bleq	3508dc <__kernel_size__+0x34f3a8>
  d4:	420d0d4c 	andmi	r0, sp, #76, 26	; 0x1300
  d8:	00000ecb 	andeq	r0, r0, fp, asr #29
  dc:	0000001c 	andeq	r0, r0, ip, lsl r0
  e0:	0000004c 	andeq	r0, r0, ip, asr #32
  e4:	700300a0 	andvc	r0, r3, r0, lsr #1
  e8:	00000028 	andeq	r0, r0, r8, lsr #32
  ec:	8b040e42 	blhi	1039fc <__kernel_size__+0x1024c8>
  f0:	0b0d4201 	bleq	3508fc <__kernel_size__+0x34f3c8>
  f4:	420d0d4c 	andmi	r0, sp, #76, 26	; 0x1300
  f8:	00000ecb 	andeq	r0, r0, fp, asr #29
  fc:	0000001c 	andeq	r0, r0, ip, lsl r0
 100:	0000004c 	andeq	r0, r0, ip, asr #32
 104:	700300c8 	andvc	r0, r3, r8, asr #1
 108:	00000030 	andeq	r0, r0, r0, lsr r0
 10c:	8b040e42 	blhi	103a1c <__kernel_size__+0x1024e8>
 110:	0b0d4201 	bleq	35091c <__kernel_size__+0x34f3e8>
 114:	420d0d50 	andmi	r0, sp, #80, 26	; 0x1400
 118:	00000ecb 	andeq	r0, r0, fp, asr #29
 11c:	0000001c 	andeq	r0, r0, ip, lsl r0
 120:	0000004c 	andeq	r0, r0, ip, asr #32
 124:	700300f8 	strdvc	r0, [r3], -r8
 128:	00000028 	andeq	r0, r0, r8, lsr #32
 12c:	8b040e42 	blhi	103a3c <__kernel_size__+0x102508>
 130:	0b0d4201 	bleq	35093c <__kernel_size__+0x34f408>
 134:	420d0d4c 	andmi	r0, sp, #76, 26	; 0x1300
 138:	00000ecb 	andeq	r0, r0, fp, asr #29
 13c:	0000001c 	andeq	r0, r0, ip, lsl r0
 140:	0000004c 	andeq	r0, r0, ip, asr #32
 144:	70030120 	andvc	r0, r3, r0, lsr #2
 148:	00000030 	andeq	r0, r0, r0, lsr r0
 14c:	8b040e42 	blhi	103a5c <__kernel_size__+0x102528>
 150:	0b0d4201 	bleq	35095c <__kernel_size__+0x34f428>
 154:	420d0d50 	andmi	r0, sp, #80, 26	; 0x1400
 158:	00000ecb 	andeq	r0, r0, fp, asr #29
 15c:	0000001c 	andeq	r0, r0, ip, lsl r0
 160:	0000004c 	andeq	r0, r0, ip, asr #32
 164:	70030150 	andvc	r0, r3, r0, asr r1
 168:	00000028 	andeq	r0, r0, r8, lsr #32
 16c:	8b040e42 	blhi	103a7c <__kernel_size__+0x102548>
 170:	0b0d4201 	bleq	35097c <__kernel_size__+0x34f448>
 174:	420d0d4c 	andmi	r0, sp, #76, 26	; 0x1300
 178:	00000ecb 	andeq	r0, r0, fp, asr #29
 17c:	0000001c 	andeq	r0, r0, ip, lsl r0
 180:	0000004c 	andeq	r0, r0, ip, asr #32
 184:	70030178 	andvc	r0, r3, r8, ror r1
 188:	00000030 	andeq	r0, r0, r0, lsr r0
 18c:	8b040e42 	blhi	103a9c <__kernel_size__+0x102568>
 190:	0b0d4201 	bleq	35099c <__kernel_size__+0x34f468>
 194:	420d0d50 	andmi	r0, sp, #80, 26	; 0x1400
 198:	00000ecb 	andeq	r0, r0, fp, asr #29
 19c:	0000001c 	andeq	r0, r0, ip, lsl r0
 1a0:	0000004c 	andeq	r0, r0, ip, asr #32
 1a4:	700301a8 	andvc	r0, r3, r8, lsr #3
 1a8:	00000028 	andeq	r0, r0, r8, lsr #32
 1ac:	8b040e42 	blhi	103abc <__kernel_size__+0x102588>
 1b0:	0b0d4201 	bleq	3509bc <__kernel_size__+0x34f488>
 1b4:	420d0d4c 	andmi	r0, sp, #76, 26	; 0x1300
 1b8:	00000ecb 	andeq	r0, r0, fp, asr #29
 1bc:	0000001c 	andeq	r0, r0, ip, lsl r0
 1c0:	0000004c 	andeq	r0, r0, ip, asr #32
 1c4:	700301d0 	ldrdvc	r0, [r3], -r0	; <UNPREDICTABLE>
 1c8:	00000030 	andeq	r0, r0, r0, lsr r0
 1cc:	8b040e42 	blhi	103adc <__kernel_size__+0x1025a8>
 1d0:	0b0d4201 	bleq	3509dc <__kernel_size__+0x34f4a8>
 1d4:	420d0d50 	andmi	r0, sp, #80, 26	; 0x1400
 1d8:	00000ecb 	andeq	r0, r0, fp, asr #29
 1dc:	0000001c 	andeq	r0, r0, ip, lsl r0
 1e0:	0000004c 	andeq	r0, r0, ip, asr #32
 1e4:	70030200 	andvc	r0, r3, r0, lsl #4
 1e8:	00000028 	andeq	r0, r0, r8, lsr #32
 1ec:	8b040e42 	blhi	103afc <__kernel_size__+0x1025c8>
 1f0:	0b0d4201 	bleq	3509fc <__kernel_size__+0x34f4c8>
 1f4:	420d0d4c 	andmi	r0, sp, #76, 26	; 0x1300
 1f8:	00000ecb 	andeq	r0, r0, fp, asr #29
 1fc:	0000001c 	andeq	r0, r0, ip, lsl r0
 200:	0000004c 	andeq	r0, r0, ip, asr #32
 204:	70030228 	andvc	r0, r3, r8, lsr #4
 208:	00000030 	andeq	r0, r0, r0, lsr r0
 20c:	8b040e42 	blhi	103b1c <__kernel_size__+0x1025e8>
 210:	0b0d4201 	bleq	350a1c <__kernel_size__+0x34f4e8>
 214:	420d0d50 	andmi	r0, sp, #80, 26	; 0x1400
 218:	00000ecb 	andeq	r0, r0, fp, asr #29
 21c:	0000001c 	andeq	r0, r0, ip, lsl r0
 220:	0000004c 	andeq	r0, r0, ip, asr #32
 224:	70030258 	andvc	r0, r3, r8, asr r2
 228:	00000028 	andeq	r0, r0, r8, lsr #32
 22c:	8b040e42 	blhi	103b3c <__kernel_size__+0x102608>
 230:	0b0d4201 	bleq	350a3c <__kernel_size__+0x34f508>
 234:	420d0d4c 	andmi	r0, sp, #76, 26	; 0x1300
 238:	00000ecb 	andeq	r0, r0, fp, asr #29
 23c:	0000001c 	andeq	r0, r0, ip, lsl r0
 240:	0000004c 	andeq	r0, r0, ip, asr #32
 244:	70030280 	andvc	r0, r3, r0, lsl #5
 248:	00000028 	andeq	r0, r0, r8, lsr #32
 24c:	8b040e42 	blhi	103b5c <__kernel_size__+0x102628>
 250:	0b0d4201 	bleq	350a5c <__kernel_size__+0x34f528>
 254:	420d0d4c 	andmi	r0, sp, #76, 26	; 0x1300
 258:	00000ecb 	andeq	r0, r0, fp, asr #29
 25c:	0000001c 	andeq	r0, r0, ip, lsl r0
 260:	0000004c 	andeq	r0, r0, ip, asr #32
 264:	700302a8 	andvc	r0, r3, r8, lsr #5
 268:	00000068 	andeq	r0, r0, r8, rrx
 26c:	8b080e42 	blhi	203b7c <__kernel_size__+0x202648>
 270:	42018e02 	andmi	r8, r1, #2, 28
 274:	6e040b0c 	vmlavs.f64	d0, d4, d12
 278:	00080d0c 	andeq	r0, r8, ip, lsl #26
 27c:	0000001c 	andeq	r0, r0, ip, lsl r0
 280:	0000004c 	andeq	r0, r0, ip, asr #32
 284:	70030310 	andvc	r0, r3, r0, lsl r3
 288:	00000068 	andeq	r0, r0, r8, rrx
 28c:	8b080e42 	blhi	203b9c <__kernel_size__+0x202668>
 290:	42018e02 	andmi	r8, r1, #2, 28
 294:	6e040b0c 	vmlavs.f64	d0, d4, d12
 298:	00080d0c 	andeq	r0, r8, ip, lsl #26
 29c:	0000001c 	andeq	r0, r0, ip, lsl r0
 2a0:	0000004c 	andeq	r0, r0, ip, asr #32
 2a4:	70030378 	andvc	r0, r3, r8, ror r3
 2a8:	0000004c 	andeq	r0, r0, ip, asr #32
 2ac:	8b080e42 	blhi	203bbc <__kernel_size__+0x202688>
 2b0:	42018e02 	andmi	r8, r1, #2, 28
 2b4:	60040b0c 	andvs	r0, r4, ip, lsl #22
 2b8:	00080d0c 	andeq	r0, r8, ip, lsl #26
 2bc:	0000001c 	andeq	r0, r0, ip, lsl r0
 2c0:	0000004c 	andeq	r0, r0, ip, asr #32
 2c4:	700303c4 	andvc	r0, r3, r4, asr #7
 2c8:	0000004c 	andeq	r0, r0, ip, asr #32
 2cc:	8b080e42 	blhi	203bdc <__kernel_size__+0x2026a8>
 2d0:	42018e02 	andmi	r8, r1, #2, 28
 2d4:	60040b0c 	andvs	r0, r4, ip, lsl #22
 2d8:	00080d0c 	andeq	r0, r8, ip, lsl #26
 2dc:	0000001c 	andeq	r0, r0, ip, lsl r0
 2e0:	0000004c 	andeq	r0, r0, ip, asr #32
 2e4:	70030410 	andvc	r0, r3, r0, lsl r4
 2e8:	00000024 	andeq	r0, r0, r4, lsr #32
 2ec:	8b040e42 	blhi	103bfc <__kernel_size__+0x1026c8>
 2f0:	0b0d4201 	bleq	350afc <__kernel_size__+0x34f5c8>
 2f4:	420d0d4a 	andmi	r0, sp, #4736	; 0x1280
 2f8:	00000ecb 	andeq	r0, r0, fp, asr #29
 2fc:	0000000c 	andeq	r0, r0, ip
 300:	ffffffff 			; <UNDEFINED> instruction: 0xffffffff
 304:	7c020001 	stcvc	0, cr0, [r2], {1}
 308:	000d0c0e 	andeq	r0, sp, lr, lsl #24
 30c:	0000001c 	andeq	r0, r0, ip, lsl r0
 310:	000002fc 	strdeq	r0, [r0], -ip
 314:	70030434 	andvc	r0, r3, r4, lsr r4
 318:	0000005c 	andeq	r0, r0, ip, asr r0
 31c:	8b040e42 	blhi	103c2c <__kernel_size__+0x1026f8>
 320:	0b0d4201 	bleq	350b2c <__kernel_size__+0x34f5f8>
 324:	420d0d66 	andmi	r0, sp, #6528	; 0x1980
 328:	00000ecb 	andeq	r0, r0, fp, asr #29
 32c:	0000001c 	andeq	r0, r0, ip, lsl r0
 330:	000002fc 	strdeq	r0, [r0], -ip
 334:	70030490 	mulvc	r3, r0, r4
 338:	00000060 	andeq	r0, r0, r0, rrx
 33c:	8b040e42 	blhi	103c4c <__kernel_size__+0x102718>
 340:	0b0d4201 	bleq	350b4c <__kernel_size__+0x34f618>
 344:	420d0d68 	andmi	r0, sp, #104, 26	; 0x1a00
 348:	00000ecb 	andeq	r0, r0, fp, asr #29
 34c:	00000020 	andeq	r0, r0, r0, lsr #32
 350:	000002fc 	strdeq	r0, [r0], -ip
 354:	700304f0 	strdvc	r0, [r3], -r0	; <UNPREDICTABLE>
 358:	000009f8 	strdeq	r0, [r0], -r8
 35c:	8b080e42 	blhi	203c6c <__kernel_size__+0x202738>
 360:	42018e02 	andmi	r8, r1, #2, 28
 364:	03040b0c 	movweq	r0, #19212	; 0x4b0c
 368:	0d0c04d6 	cfstrseq	mvf0, [ip, #-856]	; 0xfffffca8
 36c:	00000008 	andeq	r0, r0, r8
 370:	0000000c 	andeq	r0, r0, ip
 374:	ffffffff 			; <UNDEFINED> instruction: 0xffffffff
 378:	7c020001 	stcvc	0, cr0, [r2], {1}
 37c:	000d0c0e 	andeq	r0, sp, lr, lsl #24
 380:	0000001c 	andeq	r0, r0, ip, lsl r0
 384:	00000370 	andeq	r0, r0, r0, ror r3
 388:	70030ee8 	andvc	r0, r3, r8, ror #29
 38c:	0000007c 	andeq	r0, r0, ip, ror r0
 390:	8b040e42 	blhi	103ca0 <__kernel_size__+0x10276c>
 394:	0b0d4201 	bleq	350ba0 <__kernel_size__+0x34f66c>
 398:	420d0d76 	andmi	r0, sp, #7552	; 0x1d80
 39c:	00000ecb 	andeq	r0, r0, fp, asr #29
 3a0:	0000000c 	andeq	r0, r0, ip
 3a4:	ffffffff 			; <UNDEFINED> instruction: 0xffffffff
 3a8:	7c020001 	stcvc	0, cr0, [r2], {1}
 3ac:	000d0c0e 	andeq	r0, sp, lr, lsl #24
 3b0:	0000001c 	andeq	r0, r0, ip, lsl r0
 3b4:	000003a0 	andeq	r0, r0, r0, lsr #7
 3b8:	70030f64 	andvc	r0, r3, r4, ror #30
 3bc:	0000007c 	andeq	r0, r0, ip, ror r0
 3c0:	8b040e42 	blhi	103cd0 <__kernel_size__+0x10279c>
 3c4:	0b0d4201 	bleq	350bd0 <__kernel_size__+0x34f69c>
 3c8:	420d0d76 	andmi	r0, sp, #7552	; 0x1d80
 3cc:	00000ecb 	andeq	r0, r0, fp, asr #29
 3d0:	0000000c 	andeq	r0, r0, ip
 3d4:	ffffffff 			; <UNDEFINED> instruction: 0xffffffff
 3d8:	7c020001 	stcvc	0, cr0, [r2], {1}
 3dc:	000d0c0e 	andeq	r0, sp, lr, lsl #24
 3e0:	00000018 	andeq	r0, r0, r8, lsl r0
 3e4:	000003d0 	ldrdeq	r0, [r0], -r0	; <UNPREDICTABLE>
 3e8:	70030fe0 	andvc	r0, r3, r0, ror #31
 3ec:	00000028 	andeq	r0, r0, r8, lsr #32
 3f0:	8b080e42 	blhi	203d00 <__kernel_size__+0x2027cc>
 3f4:	42018e02 	andmi	r8, r1, #2, 28
 3f8:	00040b0c 	andeq	r0, r4, ip, lsl #22
 3fc:	0000000c 	andeq	r0, r0, ip
 400:	ffffffff 			; <UNDEFINED> instruction: 0xffffffff
 404:	7c020001 	stcvc	0, cr0, [r2], {1}
 408:	000d0c0e 	andeq	r0, sp, lr, lsl #24
 40c:	0000001c 	andeq	r0, r0, ip, lsl r0
 410:	000003fc 	strdeq	r0, [r0], -ip
 414:	70031008 	andvc	r1, r3, r8
 418:	00000118 	andeq	r0, r0, r8, lsl r1
 41c:	8b080e42 	blhi	203d2c <__kernel_size__+0x2027f8>
 420:	42018e02 	andmi	r8, r1, #2, 28
 424:	02040b0c 	andeq	r0, r4, #12, 22	; 0x3000
 428:	080d0c86 	stmdaeq	sp, {r1, r2, r7, sl, fp}
 42c:	0000000c 	andeq	r0, r0, ip
 430:	ffffffff 			; <UNDEFINED> instruction: 0xffffffff
 434:	7c020001 	stcvc	0, cr0, [r2], {1}
 438:	000d0c0e 	andeq	r0, sp, lr, lsl #24
 43c:	00000020 	andeq	r0, r0, r0, lsr #32
 440:	0000042c 	andeq	r0, r0, ip, lsr #8
 444:	70031120 	andvc	r1, r3, r0, lsr #2
 448:	000002b4 			; <UNDEFINED> instruction: 0x000002b4
 44c:	8b040e42 	blhi	103d5c <__kernel_size__+0x102828>
 450:	0b0d4201 	bleq	350c5c <__kernel_size__+0x34f728>
 454:	0d015203 	sfmeq	f5, 4, [r1, #-12]
 458:	0ecb420d 	cdpeq	2, 12, cr4, cr11, cr13, {0}
 45c:	00000000 	andeq	r0, r0, r0
 460:	0000001c 	andeq	r0, r0, ip, lsl r0
 464:	0000042c 	andeq	r0, r0, ip, lsr #8
 468:	700313d4 	ldrdvc	r1, [r3], -r4
 46c:	00000160 	andeq	r0, r0, r0, ror #2
 470:	8b080e42 	blhi	203d80 <__kernel_size__+0x20284c>
 474:	42018e02 	andmi	r8, r1, #2, 28
 478:	02040b0c 	andeq	r0, r4, #12, 22	; 0x3000
 47c:	080d0caa 	stmdaeq	sp, {r1, r3, r5, r7, sl, fp}
 480:	0000000c 	andeq	r0, r0, ip
 484:	ffffffff 			; <UNDEFINED> instruction: 0xffffffff
 488:	7c020001 	stcvc	0, cr0, [r2], {1}
 48c:	000d0c0e 	andeq	r0, sp, lr, lsl #24
 490:	00000014 	andeq	r0, r0, r4, lsl r0
 494:	00000480 	andeq	r0, r0, r0, lsl #9
 498:	70f50000 	rscsvc	r0, r5, r0
 49c:	000000dc 	ldrdeq	r0, [r0], -ip
 4a0:	8b040e42 	blhi	103db0 <__kernel_size__+0x10287c>
 4a4:	0b0d4201 	bleq	350cb0 <__kernel_size__+0x34f77c>
 4a8:	0000000c 	andeq	r0, r0, ip
 4ac:	ffffffff 			; <UNDEFINED> instruction: 0xffffffff
 4b0:	7c020001 	stcvc	0, cr0, [r2], {1}
 4b4:	000d0c0e 	andeq	r0, sp, lr, lsl #24
 4b8:	00000014 	andeq	r0, r0, r4, lsl r0
 4bc:	000004a8 	andeq	r0, r0, r8, lsr #9
 4c0:	70f40000 	rscsvc	r0, r4, r0
 4c4:	00000078 	andeq	r0, r0, r8, ror r0
 4c8:	8b040e42 	blhi	103dd8 <__kernel_size__+0x1028a4>
 4cc:	0b0d4201 	bleq	350cd8 <__kernel_size__+0x34f7a4>
 4d0:	0000000c 	andeq	r0, r0, ip
 4d4:	ffffffff 			; <UNDEFINED> instruction: 0xffffffff
 4d8:	7c020001 	stcvc	0, cr0, [r2], {1}
 4dc:	000d0c0e 	andeq	r0, sp, lr, lsl #24
 4e0:	00000014 	andeq	r0, r0, r4, lsl r0
 4e4:	000004d0 	ldrdeq	r0, [r0], -r0	; <UNPREDICTABLE>
 4e8:	70034000 	andvc	r4, r3, r0
 4ec:	00000010 	andeq	r0, r0, r0, lsl r0
 4f0:	8b040e42 	blhi	103e00 <__kernel_size__+0x1028cc>
 4f4:	0b0d4201 	bleq	350d00 <__kernel_size__+0x34f7cc>
